(dp0
Vlogarithms
p1
Vcalculus
p2
sVpartial-derivative
p3
Vcalculus
p4
sVexponentiation
p5
g2
sVlambda-calculus
p6
g6
sVspecial-functions
p7
Vcalculus
p8
sVhypergeometric-function
p9
g8
sVinverse
p10
Vlinear-algebra
p11
sVlaurent-series
p12
g2
sVfactoring
p13
NsVmatlab
p14
g14
sVteaching
p15
NsVnorm
p16
Vfunctional-analysis
p17
sVcontrol-theory
p18
g18
sVpeano-axioms
p19
NsVgraph-theory
p20
Vcombinatorics
p21
sVquadratics
p22
g2
sVtopological-groups
p23
Vreal-analysis
p24
sVmatrices
p25
g11
sVarticle-writing
p26
NsVpartitions
p27
Vcombinatorics
p28
sVfirst-order-logic
p29
NsVgame-theory
p30
g30
sVhomological-algebra
p31
NsVentropy
p32
Vinformation-theory
p33
sVgraphing-functions
p34
Vcalculus
p35
sValgebra-precalculus
p36
g2
sVgre-exam
p37
Vgeometry
p38
sVquantifiers
p39
NsVapproximation
p40
Vnumerical-methods
p41
sVcategory-theory
p42
NsVchaos-theory
p43
Vdifferential-equations
p44
sVaffine-geometry
p45
Vlinear-algebra
p46
sVnumerical-optimization
p47
g47
sVgamma-function
p48
g8
sVprime-factorization
p49
Vnumber-theory
p50
sVoptimization
p51
g51
sVp-adic-number-theory
p52
Vnumber-theory
p53
sVdifferential-geometry
p54
NsVcontour-integration
p55
g2
sVcongruences
p56
Vnumber-theory
p57
sV3d
p58
Vgeometry
p59
sVset-theory
p60
g60
sVcombinatorial-game-theory
p61
Vcombinatorics
p62
sVnatural-numbers
p63
g2
sVbrownian-motion
p64
Vstochastic-processes
p65
sVdice
p66
Vprobability
p67
sVboolean-algebra
p68
NsVfake-proofs
p69
g2
sVfractional-calculus
p70
Vcalculus
p71
sVvectors
p72
Vlinear-algebra
p73
sVstochastic-calculus
p74
g74
sVproducts
p75
Vreal-analysis
p76
sVrandom-variables
p77
Vprobability
p78
sVcard-games
p79
Vprobability
p80
sVcauchy-sequence
p81
Vreal-analysis
p82
sVconvolution
p83
NsVfourier-series
p84
NsVweak-convergence
p85
Vfunctional-analysis
p86
sVsummation
p87
g76
sVturing-machines
p88
g88
sVlinear-algebra
p89
g89
sVderivatives
p90
g90
sVmodular-forms
p91
Vnumber-theory
p92
sVautomata
p93
g93
sVcharacteristic-classes
p94
g24
sVstopping-times
p95
Vstochastic-processes
p96
sVbayes-theorem
p97
Vprobability
p98
sVmodel-theory
p99
NsVfractions
p100
g2
sVpermutations
p101
Vcombinatorics
p102
sVuniversal-algebra
p103
NsValgebraic-curves
p104
NsVcurvature
p105
NsVstandard-deviation
p106
Vstatistics
p107
sVfluid-dynamics
p108
g108
sVfoundations
p109
NsVsymmetric-groups
p110
NsVlocally-convex-spaces
p111
Vfunctional-analysis
p112
sVordinals
p113
Vset-theory
p114
sVnumerical-linear-algebra
p115
Vlinear-algebra
p116
sVmatrix-equations
p117
g11
sVharmonic-analysis
p118
NsVirrational-numbers
p119
Vnumber-theory
p120
sVblock-matrices
p121
g11
sVharmonic-functions
p122
g2
sVdivergent-series
p123
g76
sVcryptography
p124
g124
sVcombinatorial-geometry
p125
Vgeometry
p126
sValgebraic-number-theory
p127
Vnumber-theory
p128
sVmachine-learning
p129
g129
sVstochastic-analysis
p130
Vstochastic-processes
p131
sVpolytopes
p132
Vgeometry
p133
sVqueueing-theory
p134
Vprobability
p135
sVproof-writing
p136
NsVadvice
p137
NsVphilosophy
p138
NsVapplications
p139
NsVtrees
p140
g21
sVorder-statistics
p141
Vstatistics
p142
sVcontext-free-grammar
p143
Vformal-languages
p144
sVtensor-products
p145
NsVonline-resources
p146
NsVexponential-function
p147
Vcalculus
p148
sVeuclidean-geometry
p149
Vgeometry
p150
sValgorithms
p151
g21
sVp-groups
p152
NsVcorrelation
p153
Vstatistics
p154
sVintegral-transforms
p155
NsVinner-product-space
p156
Vlinear-algebra
p157
sVmetric-spaces
p158
g24
sVfilters
p159
g24
sVelliptic-integrals
p160
g8
sVroots
p161
NsVformal-languages
p162
g162
sVpartial-fractions
p163
Vcalculus
p164
sVsymmetry
p165
NsVperturbation-theory
p166
Vdifferential-equations
p167
sVincompleteness
p168
NsVfinance
p169
g2
sVfactorial
p170
Vcombinatorics
p171
sVmultisets
p172
Vcombinatorics
p173
sVradicals
p174
g2
sVbig-list
p175
NsVexercises-and-solutions
p176
Vmeasure-theory
p177
sVlinear-programming
p178
g178
sVorder-theory
p179
g2
sVformal-systems
p180
NsVcomputational-complexity
p181
g21
sVcontinued-fractions
p182
Vnumber-theory
p183
sVnonlinear-optimization
p184
g184
sVorthonormal
p185
Vlinear-algebra
p186
sVroots-of-unity
p187
g2
sVinequality
p188
Vreal-analysis
p189
sVgroup-presentation
p190
NsVsymmetric-polynomials
p191
NsVcontest-math
p192
g57
sVnoncommutative-algebra
p193
NsVstatistical-inference
p194
g194
sVnormal-distribution
p195
Vprobability
p196
sVlp-spaces
p197
Vfunctional-analysis
p198
sVspectral-theory
p199
Vfunctional-analysis
p200
sVextremal-combinatorics
p201
Vcombinatorics
p202
sVconjectures
p203
Vnumber-theory
p204
sVfunctional-analysis
p205
g205
sVnash-equilibrium
p206
Vgame-theory
p207
sVeigenvalues-eigenvectors
p208
Vlinear-algebra
p209
sVclassical-analysis
p210
Vreal-analysis
p211
sVmaple
p212
g212
sVproof-strategy
p213
NsVfibonacci-numbers
p214
g76
sVproblem-solving
p215
g2
sVinduction
p216
g2
sVfourier-analysis
p217
NsVmonte-carlo
p218
g218
sVpolyhedra
p219
Vgeometry
p220
sVdifferential-forms
p221
NsVrandom-graphs
p222
g21
sVvector-analysis
p223
g4
sValgebraic-topology
p224
g24
sVinteger-programming
p225
g225
sVextension-field
p226
NsVaxioms
p227
Vset-theory
p228
sVvector-spaces
p229
Vlinear-algebra
p230
sVdefinition
p231
NsVpropositional-calculus
p232
NsVgeometry
p233
g233
sVlarge-cardinals
p234
Vset-theory
p235
sVholder-spaces
p236
Vreal-analysis
p237
sVquaternions
p238
Vgeometry
p239
sVcombinatorics
p240
g240
sVring-theory
p241
NsVcomplex-analysis
p242
g2
sVadjoint
p243
NsVcomplex-numbers
p244
g2
sVintuition
p245
NsVpigeonhole-principle
p246
Vcombinatorics
p247
sVsoft-question
p248
NsVprobability
p249
g249
sVgeodesic
p250
NsVrational-numbers
p251
g120
sVclosed-form
p252
Vcalculus
p253
sVopen-problem
p254
Vnumber-theory
p255
sVpolygons
p256
Vgeometry
p257
sVlagrange-multiplier
p258
Voptimization
p259
sVvector-fields
p260
NsVhomotopy-theory
p261
g24
sVrelations
p262
g2
sVconvention
p263
g2
sVbilinear-form
p264
Vlinear-algebra
p265
sVdifference-equations
p266
g76
sVclass-field-theory
p267
g128
sVdynamic-programming
p268
g268
sVexact-sequence
p269
NsVdimension-theory
p270
NsVquadratic-forms
p271
Vlinear-algebra
p272
sVspherical-geometry
p273
Vgeometry
p274
sVequivalence-relations
p275
g2
sVclifford-algebras
p276
NsVpacking-problem
p277
Vgeometry
p278
sVsolution-verification
p279
g2
sValgebraic-graph-theory
p280
g21
sVnonlinear-system
p281
Vdifferential-equations
p282
sVbinomial-theorem
p283
Vcombinatorics
p284
sVmotivation
p285
NsVfiber-bundles
p286
NsVhyperbolic-geometry
p287
Vgeometry
p288
sVdiscrete-mathematics
p289
g289
sVexponential-sum
p290
g76
sVanalysis
p291
Vreal-analysis
p292
sVmeasure-theory
p293
g293
sVrecurrence-relations
p294
g76
sVregular-expressions
p295
Vautomata
p296
sVspectral-graph-theory
p297
g21
sVnumber-theory
p298
g298
sVgalois-theory
p299
NsVvon-neumann-algebras
p300
Vfunctional-analysis
p301
sVprime-numbers
p302
Vnumber-theory
p303
sVcalculus
p304
g304
sVlattice-orders
p305
g2
sVlaplace-transform
p306
Vdifferential-equations
p307
sVtrace
p308
g11
sVvector-bundles
p309
NsVduality-theorems
p310
Vlinear-programming
p311
sVdifferential-topology
p312
NsVmarkov-chains
p313
Vprobability
p314
sVcoding-theory
p315
g315
sVquantum-mechanics
p316
Vlinear-algebra
p317
sVaverage
p318
Vstatistics
p319
sVconic-sections
p320
Vgeometry
p321
sVriemann-hypothesis
p322
Vnumber-theory
p323
sVinteger-lattices
p324
Vgeometry
p325
sVfree-groups
p326
NsVphysics
p327
Vcalculus
p328
sVbounded-variation
p329
Vreal-analysis
p330
sVpattern-recognition
p331
g331
sVrandom
p332
Vprobability
p333
sVpower-series
p334
g76
sVoperator-algebras
p335
g301
sVriemann-zeta
p336
Vnumber-theory
p337
sVparadoxes
p338
Vprobability
p339
sVhomology
p340
g24
sVcomputability
p341
NsVcoloring
p342
g21
sVdivisibility
p343
g57
sVtetration
p344
Vnumber-theory
p345
sVcareer-development
p346
NsVorthogonal-polynomials
p347
g8
sVmarkov-process
p348
g348
sVpermutation-groups
p349
NsVbezier-curve
p350
Vgeometry
p351
sVcircle
p352
Vgeometry
p353
sVfield-theory
p354
NsVcontinuity
p355
Vreal-analysis
p356
sVtriangle
p357
Vgeometry
p358
sVhyperbolic-functions
p359
g8
sVnotation
p360
g2
sVexpectation
p361
Vprobability
p362
sVcardinals
p363
g2
sVabelian-categories
p364
NsVcombinations
p365
Vcombinatorics
p366
sVtaylor-expansion
p367
Vcalculus
p368
sVdifferential-equations
p369
g369
sVdifferential
p370
Vdifferential-equations
p371
sVabstract-algebra
p372
NsVrational-functions
p373
g2
sVperiodic-functions
p374
Vreal-analysis
p375
sVtopos-theory
p376
NsVdistribution-theory
p377
Vfunctional-analysis
p378
sVvaluation-theory
p379
NsVinclusion-exclusion
p380
Vcombinatorics
p381
sVprobability-theory
p382
Vprobability
p383
sVsurfaces
p384
NsVeigenfunctions
p385
g209
sVmonoid
p386
NsVcomputer-algebra-systems
p387
NsVimplicit-differentiation
p388
Vcalculus
p389
sVconstructive-mathematics
p390
NsVlaw-of-large-numbers
p391
g383
sVtranscendental-numbers
p392
Vnumber-theory
p393
sVaxiom-of-choice
p394
Vset-theory
p395
sVgroup-cohomology
p396
NsVindefinite-integrals
p397
g8
sVboundary-value-problem
p398
Vfunctional-analysis
p399
sVcalculus-of-variations
p400
Vcalculus
p401
sVlimit-theorems
p402
Vcalculus
p403
sVfinite-differences
p404
Vnumerical-methods
p405
sVtensors
p406
NsVtype-theory
p407
g407
sVuniform-continuity
p408
Vreal-analysis
p409
sVrandom-matrices
p410
g11
sVmultivariable-calculus
p411
g4
sVconvex-analysis
p412
Vconvex-optimization
p413
sVrepresentation-theory
p414
NsVsimple-groups
p415
NsVfinite-fields
p416
NsVlogic
p417
NsVpde
p418
g399
sVestimation
p419
Vstatistics
p420
sVtranscendental-equations
p421
g8
sVnumber-systems
p422
g2
sVsymplectic-geometry
p423
NsVramsey-theory
p424
Vcombinatorics
p425
sVcohomology
p426
g24
sVsampling
p427
g427
sVlearning
p428
NsVlow-dimensional-topology
p429
g24
sVoperator-theory
p430
Vfunctional-analysis
p431
sVtopological-vector-spaces
p432
Vfunctional-analysis
p433
sVprobability-distributions
p434
Vprobability
p435
sVknot-theory
p436
g24
sVsemigroups
p437
NsVbinomial-coefficients
p438
g284
sVgeneral-relativity
p439
NsVreal-numbers
p440
Vreal-analysis
p441
sVasymptotics
p442
g21
sVnumerical-methods
p443
g443
sVpi
p444
g76
sVquadratic-reciprocity
p445
Vnumber-theory
p446
sVdeterminant
p447
Vlinear-algebra
p448
sVcyclic-groups
p449
NsVmultilinear-algebra
p450
Vlinear-algebra
p451
sVstochastic-processes
p452
g452
sValgebraic-geometry
p453
NsVbayesian
p454
g454
sVc-star-algebras
p455
Vfunctional-analysis
p456
sVmanifolds
p457
NsVdynamical-systems
p458
g44
sVlimits
p459
g403
sVpolar-coordinates
p460
Vcalculus
p461
sVarithmetic-geometry
p462
NsVcharacteristic-functions
p463
g383
sVproject-euler
p464
Vcombinatorics
p465
sVoperations-research
p466
g466
sVcompactness
p467
g24
sVriemann-surfaces
p468
g2
sVeconomics
p469
g2
sVgroup-theory
p470
NsVcalculator
p471
Vcalculus
p472
sVnonstandard-analysis
p473
Vcalculus
p474
sVconvex-optimization
p475
g475
sVcoordinate-systems
p476
Vgeometry
p477
sVsignal-processing
p478
g478
sVregression
p479
g479
sVintegral-equations
p480
Vdifferential-equations
p481
sVbinary
p482
Vcombinatorics
p483
sVrecreational-mathematics
p484
NsVtiling
p485
Vgeometry
p486
sVhilbert-spaces
p487
Vfunctional-analysis
p488
sVnormal-subgroups
p489
NsVrecursion
p490
g76
sVfractals
p491
g2
sVconnectedness
p492
g24
sVgroup-actions
p493
NsVapproximation-theory
p494
g41
sVinterpolation
p495
Vnumerical-methods
p496
sVinfinity
p497
g403
sVnp-complete
p498
g21
sVtriangulation
p499
Vgeometry
p500
sVstirling-numbers
p501
Vcombinatorics
p502
sVcharacters
p503
NsVbanach-spaces
p504
Vfunctional-analysis
p505
sVcatalan-numbers
p506
Vcombinatorics
p507
sVwolfram-alpha
p508
Vcalculus
p509
sVabelian-groups
p510
NsVinformation-theory
p511
g511
sVelliptic-functions
p512
g2
sVergodic-theory
p513
g44
sVparametric
p514
Vcalculus
p515
sVactuarial-science
p516
Vprobability
p517
sVanalytic-number-theory
p518
Vnumber-theory
p519
sVdecimal-expansion
p520
Vnumber-theory
p521
sVstochastic-integrals
p522
Vstochastic-processes
p523
sVdescriptive-statistics
p524
Vstatistics
p525
sVseveral-complex-variables
p526
g2
sVelementary-number-theory
p527
g57
sVexamples-counterexamples
p528
g24
sVexterior-algebra
p529
Vlinear-algebra
p530
sVsystems-of-equations
p531
Vlinear-algebra
p532
sVvisualization
p533
g533
sVirreducible-polynomials
p534
NsVmartingales
p535
g383
sVinvariant-theory
p536
NsVcross-product
p537
Vlinear-algebra
p538
sVsylow-theory
p539
NsVnormed-spaces
p540
Vfunctional-analysis
p541
sVsequences-and-series
p542
g76
sVproof-verification
p543
Vreal-analysis
p544
sVdiagonalization
p545
Vlinear-algebra
p546
sVreference-request
p547
NsVtransformation
p548
Vlinear-algebra
p549
sVhomework
p550
g2
sVinfinite-product
p551
g76
sVmatroids
p552
g21
sVzeta-functions
p553
g337
sValgebraic-groups
p554
NsVfunctional-inequalities
p555
g189
sVgeometric-topology
p556
g24
sVuniform-spaces
p557
g24
sVuniform-distribution
p558
Vprobability
p559
sVsolid-geometry
p560
Vgeometry
p561
sVclassical-mechanics
p562
Vdifferential-equations
p563
sVintersection
p564
Vgeometry
p565
sVdifferential-operators
p566
g399
sVsorting
p567
g21
sVbaire-category
p568
g24
sVtime-series
p569
g569
sVcomputer-science
p570
g21
sVterminology
p571
NsVprimality-test
p572
g303
sVmath-history
p573
NsVresidue-calculus
p574
g2
sVdata-analysis
p575
Vstatistics
p576
sVcompact-operators
p577
Vfunctional-analysis
p578
sVabsolute-value
p579
g189
sVdefinite-integrals
p580
g8
sVrecursive-algorithms
p581
g21
sVregular-language
p582
g296
sVmaximum-principle
p583
g2
sVintegration
p584
g8
sVcommutative-algebra
p585
NsVbanach-algebras
p586
Vfunctional-analysis
p587
sVreal-analysis
p588
g588
sVrandom-walk
p589
Vprobability
p590
sVfunction-composition
p591
g35
sVriemannian-geometry
p592
NsVlocally-compact-groups
p593
g24
sVimage-processing
p594
g594
sVconformal-geometry
p595
g2
sVspherical-coordinates
p596
g274
sVplane-curves
p597
Vgeometry
p598
sVmathematical-physics
p599
g599
sVmorse-theory
p600
g2
sVwavelets
p601
NsVsimulation
p602
Vprobability
p603
sVmorphism
p604
NsVprincipal-ideal-domains
p605
NsVpuzzle
p606
NsVrotations
p607
g239
sVdescriptive-set-theory
p608
g24
sVconditional-probability
p609
Vprobability
p610
sVschemes
p611
NsVdiophantine-equations
p612
Vnumber-theory
p613
sVfinite-rings
p614
NsVspline
p615
g496
sVforcing
p616
Vset-theory
p617
sVstatistics
p618
g618
sVarea
p619
Vgeometry
p620
sVelementary-set-theory
p621
g2
sVgeneral-topology
p622
g24
sVsheaf-theory
p623
NsVmodular-arithmetic
p624
g57
sVimproper-integrals
p625
g8
sVnetwork-flow
p626
g626
sVlie-algebras
p627
NsVfundamental-groups
p628
g24
sVcomplex-integration
p629
g2
sVcomputational-geometry
p630
g630
sVvolume
p631
g8
sVconvergence
p632
g76
sVfunctional-equations
p633
g35
sVideals
p634
NsVprojective-geometry
p635
NsVcomplex-geometry
p636
NsVgenerating-functions
p637
Vcombinatorics
p638
sVsobolev-spaces
p639
Vfunctional-analysis
p640
sVprojective-space
p641
NsVtrigonometry
p642
g2
sVproof-theory
p643
NsVtotient-function
p644
g57
sVgeometric-measure-theory
p645
Vmeasure-theory
p646
sVquantum-groups
p647
NsVlimsup-and-liminf
p648
Vreal-analysis
p649
sVfixed-point-theorems
p650
Vreal-analysis
p651
sVeducation
p652
NsVfunctions
p653
g35
sVdiscrete-geometry
p654
Vgeometry
p655
sVanalyticity
p656
g2
sVsimplicial-stuff
p657
g24
sVmathematica
p658
g658
sVlebesgue-integral
p659
Vmeasure-theory
p660
sVcovering-spaces
p661
g24
sVfinite-groups
p662
NsVarithmetic
p663
g2
sVlebesgue-measure
p664
Vmeasure-theory
p665
sVestimation-theory
p666
g666
sVmath-software
p667
NsVgeometric-group-theory
p668
NsVpolynomials
p669
NsVintegral-inequality
p670
g189
sVlie-groups
p671
NsVcomputational-mathematics
p672
g672
sVgap
p673
NsValternative-proof
p674
Vreal-analysis
p675
sVpredicate-logic
p676
NsVanalytic-geometry
p677
Vgeometry
p678
sVballs-in-bins
p679
Vprobability
p680
sVmathematical-modeling
p681
g681
sVsvd
p682
Vlinear-algebra
p683
sVmodules
p684
NsVgeometric-construction
p685
Vgeometry
p686
sVself-learning
p687
NsVuniform-convergence
p688
Vreal-analysis
p689
sVelliptic-curves
p690
Vnumber-theory
p691
sVprojective-module
p692
Ns.