(lp0
Vlogarithms
p1
aVpartial-derivative
p2
aVexponentiation
p3
aVlambda-calculus
p4
aVspecial-functions
p5
aVhypergeometric-function
p6
aVinverse
p7
aVlaurent-series
p8
aVfactoring
p9
aVmatlab
p10
aVteaching
p11
aVnorm
p12
aVcontrol-theory
p13
aVpeano-axioms
p14
aVgraph-theory
p15
aVquadratics
p16
aVtopological-groups
p17
aVmatrices
p18
aVarticle-writing
p19
aVpartitions
p20
aVfirst-order-logic
p21
aVgame-theory
p22
aVhomological-algebra
p23
aVentropy
p24
aVgraphing-functions
p25
aValgebra-precalculus
p26
aVgre-exam
p27
aVquantifiers
p28
aVapproximation
p29
aVcategory-theory
p30
aVchaos-theory
p31
aVaffine-geometry
p32
aVpermutations
p33
aVnumerical-optimization
p34
aVgamma-function
p35
aVprime-factorization
p36
aVoperations-research
p37
aVp-adic-number-theory
p38
aVdifferential-geometry
p39
aVcontour-integration
p40
aVcongruences
p41
aV3d
p42
aVset-theory
p43
aVcombinatorial-game-theory
p44
aVnatural-numbers
p45
aVbrownian-motion
p46
aVdice
p47
aVboolean-algebra
p48
aVfake-proofs
p49
aVfractional-calculus
p50
aVeconomics
p51
aVstochastic-calculus
p52
aVproducts
p53
aVrandom-variables
p54
aVcard-games
p55
aVcauchy-sequence
p56
aVconvolution
p57
aVfourier-series
p58
aVweak-convergence
p59
aVsummation
p60
aVturing-machines
p61
aVlinear-algebra
p62
aVderivatives
p63
aVmodular-forms
p64
aVautomata
p65
aVcharacteristic-classes
p66
aVstopping-times
p67
aVbayes-theorem
p68
aVmodel-theory
p69
aVfractions
p70
aVfixed-point-theorems
p71
aVuniversal-algebra
p72
aValgebraic-curves
p73
aVcurvature
p74
aVstandard-deviation
p75
aVfluid-dynamics
p76
aVfoundations
p77
aVsymmetric-groups
p78
aVlocally-convex-spaces
p79
aVordinals
p80
aVnumerical-linear-algebra
p81
aVmatrix-equations
p82
aVharmonic-analysis
p83
aVirrational-numbers
p84
aVblock-matrices
p85
aVharmonic-functions
p86
aVdivergent-series
p87
aVcryptography
p88
aVcombinatorial-geometry
p89
aValgebraic-number-theory
p90
aVmachine-learning
p91
aVstochastic-analysis
p92
aVpolytopes
p93
aVqueueing-theory
p94
aVproof-writing
p95
aVadvice
p96
aVphilosophy
p97
aVapplications
p98
aVtrees
p99
aVorder-statistics
p100
aVcontext-free-grammar
p101
aVtensor-products
p102
aVonline-resources
p103
aVexponential-function
p104
aVeuclidean-geometry
p105
aValgorithms
p106
aVp-groups
p107
aVcorrelation
p108
aVintegral-transforms
p109
aVinner-product-space
p110
aVmetric-spaces
p111
aVfilters
p112
aVelliptic-integrals
p113
aVroots
p114
aVformal-languages
p115
aVpartial-fractions
p116
aVsymmetry
p117
aVperturbation-theory
p118
aVincompleteness
p119
aVfinance
p120
aVfactorial
p121
aVmultisets
p122
aVradicals
p123
aVbig-list
p124
aVexercises-and-solutions
p125
aVlinear-programming
p126
aVorder-theory
p127
aVformal-systems
p128
aVcomputational-complexity
p129
aVcontinued-fractions
p130
aVnonlinear-optimization
p131
aVorthonormal
p132
aVroots-of-unity
p133
aVinequality
p134
aVgroup-presentation
p135
aVsymmetric-polynomials
p136
aVcontest-math
p137
aVnoncommutative-algebra
p138
aVstatistical-inference
p139
aVnormal-distribution
p140
aVlp-spaces
p141
aVspectral-theory
p142
aVextremal-combinatorics
p143
aVconjectures
p144
aVfunctional-analysis
p145
aVnash-equilibrium
p146
aVeigenvalues-eigenvectors
p147
aVclassical-analysis
p148
aVmaple
p149
aVproof-strategy
p150
aVfibonacci-numbers
p151
aVproblem-solving
p152
aVinduction
p153
aVfourier-analysis
p154
aVmonte-carlo
p155
aVpolyhedra
p156
aVdifferential-forms
p157
aVnonlinear-system
p158
aVvector-analysis
p159
aValgebraic-topology
p160
aVinteger-programming
p161
aVextension-field
p162
aVaxioms
p163
aVvector-spaces
p164
aVdefinition
p165
aVpropositional-calculus
p166
aVgeometry
p167
aVlarge-cardinals
p168
aVholder-spaces
p169
aVquaternions
p170
aVcombinatorics
p171
aVring-theory
p172
aVcomplex-analysis
p173
aVadjoint
p174
aVcomplex-numbers
p175
aVintuition
p176
aVpigeonhole-principle
p177
aVsoft-question
p178
aVprobability
p179
aVgeodesic
p180
aVrational-numbers
p181
aVclosed-form
p182
aVopen-problem
p183
aVpolygons
p184
aVlagrange-multiplier
p185
aVvector-fields
p186
aVhomotopy-theory
p187
aVrelations
p188
aVconvention
p189
aVrandom-graphs
p190
aVbilinear-form
p191
aVdifference-equations
p192
aVregular-expressions
p193
aVdynamic-programming
p194
aVexact-sequence
p195
aVdimension-theory
p196
aVquadratic-forms
p197
aVspherical-geometry
p198
aVequivalence-relations
p199
aVclifford-algebras
p200
aVpacking-problem
p201
aVsolution-verification
p202
aValgebraic-graph-theory
p203
aVbinomial-theorem
p204
aVmotivation
p205
aVfiber-bundles
p206
aVhyperbolic-geometry
p207
aVdiscrete-mathematics
p208
aVexponential-sum
p209
aVanalysis
p210
aVmeasure-theory
p211
aVrecurrence-relations
p212
aVclass-field-theory
p213
aVspectral-graph-theory
p214
aVnumber-theory
p215
aVgalois-theory
p216
aVvon-neumann-algebras
p217
aVprime-numbers
p218
aVcalculus
p219
aVlattice-orders
p220
aVlaplace-transform
p221
aVtrace
p222
aVvector-bundles
p223
aVduality-theorems
p224
aVdifferential-topology
p225
aVmarkov-chains
p226
aVcoding-theory
p227
aVquantum-mechanics
p228
aVaverage
p229
aVriemann-hypothesis
p230
aVinteger-lattices
p231
aVfree-groups
p232
aVphysics
p233
aVbounded-variation
p234
aVpattern-recognition
p235
aVrandom
p236
aVpower-series
p237
aVoperator-algebras
p238
aVriemann-zeta
p239
aVparadoxes
p240
aVhomology
p241
aVcomputability
p242
aVcoloring
p243
aVdivisibility
p244
aVtetration
p245
aVcareer-development
p246
aVorthogonal-polynomials
p247
aVmarkov-process
p248
aVpermutation-groups
p249
aVbezier-curve
p250
aVcircle
p251
aVfield-theory
p252
aVcontinuity
p253
aVtriangle
p254
aVhyperbolic-functions
p255
aVnotation
p256
aVexpectation
p257
aVcardinals
p258
aVabelian-categories
p259
aVcombinations
p260
aVtaylor-expansion
p261
aVdifferential-equations
p262
aVdifferential
p263
aVabstract-algebra
p264
aVrational-functions
p265
aVperiodic-functions
p266
aVtopos-theory
p267
aVdistribution-theory
p268
aVvaluation-theory
p269
aVinclusion-exclusion
p270
aVprobability-theory
p271
aVsurfaces
p272
aVeigenfunctions
p273
aVmonoid
p274
aVcomputer-algebra-systems
p275
aVimplicit-differentiation
p276
aVconstructive-mathematics
p277
aVlaw-of-large-numbers
p278
aVtranscendental-numbers
p279
aVaxiom-of-choice
p280
aVgroup-cohomology
p281
aVindefinite-integrals
p282
aVboundary-value-problem
p283
aVcalculus-of-variations
p284
aVlimit-theorems
p285
aVfinite-differences
p286
aVtensors
p287
aVtype-theory
p288
aVuniform-continuity
p289
aVrandom-matrices
p290
aVmultivariable-calculus
p291
aVconvex-analysis
p292
aVrepresentation-theory
p293
aVsimple-groups
p294
aVfinite-fields
p295
aVlogic
p296
aVpde
p297
aVestimation
p298
aVtranscendental-equations
p299
aVnumber-systems
p300
aVsymplectic-geometry
p301
aVramsey-theory
p302
aVcohomology
p303
aVsampling
p304
aVlearning
p305
aVlow-dimensional-topology
p306
aVoperator-theory
p307
aVtopological-vector-spaces
p308
aVprobability-distributions
p309
aVknot-theory
p310
aVsemigroups
p311
aVbinomial-coefficients
p312
aVgeneral-relativity
p313
aVreal-numbers
p314
aVasymptotics
p315
aVnumerical-methods
p316
aVpi
p317
aVquadratic-reciprocity
p318
aVdeterminant
p319
aVcyclic-groups
p320
aVmultilinear-algebra
p321
aVstochastic-processes
p322
aValgebraic-geometry
p323
aVbayesian
p324
aVc-star-algebras
p325
aVmanifolds
p326
aVdynamical-systems
p327
aVlimits
p328
aVpolar-coordinates
p329
aVarithmetic-geometry
p330
aVcharacteristic-functions
p331
aVproject-euler
p332
aVoptimization
p333
aVcompactness
p334
aVriemann-surfaces
p335
aVvectors
p336
aVgroup-theory
p337
aVcalculator
p338
aVnonstandard-analysis
p339
aVconvex-optimization
p340
aVcoordinate-systems
p341
aVsignal-processing
p342
aVregression
p343
aVintegral-equations
p344
aVbinary
p345
aVrecreational-mathematics
p346
aVconic-sections
p347
aVhilbert-spaces
p348
aVnormal-subgroups
p349
aVrecursion
p350
aVfractals
p351
aVconnectedness
p352
aVgroup-actions
p353
aVapproximation-theory
p354
aVinterpolation
p355
aVinfinity
p356
aVnp-complete
p357
aVtriangulation
p358
aVstirling-numbers
p359
aVcharacters
p360
aVbanach-spaces
p361
aVcatalan-numbers
p362
aVwolfram-alpha
p363
aVabelian-groups
p364
aVinformation-theory
p365
aVelliptic-functions
p366
aVergodic-theory
p367
aVparametric
p368
aVactuarial-science
p369
aVanalytic-number-theory
p370
aVdecimal-expansion
p371
aVstochastic-integrals
p372
aVdescriptive-statistics
p373
aVseveral-complex-variables
p374
aVelementary-number-theory
p375
aVexamples-counterexamples
p376
aVexterior-algebra
p377
aVsystems-of-equations
p378
aVvisualization
p379
aVirreducible-polynomials
p380
aVmartingales
p381
aVinvariant-theory
p382
aVcross-product
p383
aVsylow-theory
p384
aVnormed-spaces
p385
aVsequences-and-series
p386
aVproof-verification
p387
aVdiagonalization
p388
aVreference-request
p389
aVtransformation
p390
aVhomework
p391
aVinfinite-product
p392
aVmatroids
p393
aVzeta-functions
p394
aValgebraic-groups
p395
aVfunctional-inequalities
p396
aVgeometric-topology
p397
aVsorting
p398
aVuniform-spaces
p399
aVuniform-distribution
p400
aVsolid-geometry
p401
aVclassical-mechanics
p402
aVintersection
p403
aVdifferential-operators
p404
aVforcing
p405
aVbaire-category
p406
aVtime-series
p407
aVcomputer-science
p408
aVterminology
p409
aVprimality-test
p410
aVmath-history
p411
aVresidue-calculus
p412
aVdata-analysis
p413
aVcompact-operators
p414
aVabsolute-value
p415
aVdefinite-integrals
p416
aVrecursive-algorithms
p417
aVregular-language
p418
aVmaximum-principle
p419
aVintegration
p420
aVcommutative-algebra
p421
aVbanach-algebras
p422
aVreal-analysis
p423
aVrandom-walk
p424
aVfunction-composition
p425
aVriemannian-geometry
p426
aVlocally-compact-groups
p427
aVimage-processing
p428
aVconformal-geometry
p429
aVspherical-coordinates
p430
aVplane-curves
p431
aVmathematical-physics
p432
aVmorse-theory
p433
aVtiling
p434
aVwavelets
p435
aVsimulation
p436
aVmorphism
p437
aVprincipal-ideal-domains
p438
aVpuzzle
p439
aVrotations
p440
aVdescriptive-set-theory
p441
aVconditional-probability
p442
aVschemes
p443
aVdiophantine-equations
p444
aVfinite-rings
p445
aVspline
p446
aVstatistics
p447
aVarea
p448
aVelementary-set-theory
p449
aVgeneral-topology
p450
aVsheaf-theory
p451
aVmodular-arithmetic
p452
aVimproper-integrals
p453
aVnetwork-flow
p454
aVlie-algebras
p455
aVfundamental-groups
p456
aVcomplex-integration
p457
aVcomputational-geometry
p458
aVvolume
p459
aVconvergence
p460
aVfunctional-equations
p461
aVideals
p462
aVprojective-geometry
p463
aVcomplex-geometry
p464
aVgenerating-functions
p465
aVsobolev-spaces
p466
aVprojective-space
p467
aVtrigonometry
p468
aVproof-theory
p469
aVtotient-function
p470
aVgeometric-measure-theory
p471
aVquantum-groups
p472
aVlimsup-and-liminf
p473
aVgeometric-group-theory
p474
aVeducation
p475
aVfunctions
p476
aVdiscrete-geometry
p477
aVanalyticity
p478
aVsimplicial-stuff
p479
aVmathematica
p480
aVlebesgue-integral
p481
aVcovering-spaces
p482
aVfinite-groups
p483
aVarithmetic
p484
aVlebesgue-measure
p485
aVestimation-theory
p486
aVmath-software
p487
aVpolynomials
p488
aVintegral-inequality
p489
aVlie-groups
p490
aVcomputational-mathematics
p491
aVgap
p492
aValternative-proof
p493
aVpredicate-logic
p494
aVanalytic-geometry
p495
aVballs-in-bins
p496
aVmathematical-modeling
p497
aVsvd
p498
aVmodules
p499
aVgeometric-construction
p500
aVself-learning
p501
aVuniform-convergence
p502
aVelliptic-curves
p503
aVprojective-module
p504
a.