(dp0
Vlogarithms
p1
Valgebra-precalculus
p2
sVpartial-derivative
p3
Vmultivariable-calculus
p4
sVexponentiation
p5
Valgebra-precalculus
p6
sVlambda-calculus
p7
Vlogic
p8
sVspecial-functions
p9
Vintegration
p10
sVhypergeometric-function
p11
Vspecial-functions
p12
sVinverse
p13
Vmatrices
p14
sVlaurent-series
p15
Vcomplex-analysis
p16
sVfactoring
p17
Vpolynomials
p18
sVmatlab
p19
Vnumerical-methods
p20
sVteaching
p21
Vsoft-question
p22
sVnorm
p23
Vfunctional-analysis
p24
sVcontrol-theory
p25
Vdynamical-systems
p26
sVpeano-axioms
p27
Vlogic
p28
sVquadratics
p29
Valgebra-precalculus
p30
sVtopological-groups
p31
Vgeneral-topology
p32
sVmatrices
p33
Vlinear-algebra
p34
sVreal-analysis
p35
Vanalysis
p36
sVpartitions
p37
Vcombinatorics
p38
sVfirst-order-logic
p39
Vlogic
p40
sVgame-theory
p41
Vnash-equilibrium
p42
sVhomological-algebra
p43
Vabstract-algebra
p44
sVentropy
p45
Vinformation-theory
p46
sVgraphing-functions
p47
Vfunctions
p48
sValgebra-precalculus
p49
Vhomework
p50
sVgre-exam
p51
Vgeometry
p52
sVquantifiers
p53
Vlogic
p54
sVapproximation
p55
Vnumerical-methods
p56
sVcategory-theory
p57
Vabstract-algebra
p58
sVchaos-theory
p59
Vdynamical-systems
p60
sVaffine-geometry
p61
Vlinear-algebra
p62
sVnumerical-optimization
p63
Voptimization
p64
sVgamma-function
p65
Vspecial-functions
p66
sVprime-factorization
p67
Vnumber-theory
p68
sVoperations-research
p69
Vlinear-programming
p70
sVp-adic-number-theory
p71
Vnumber-theory
p72
sVcontour-integration
p73
Vcomplex-analysis
p74
sVdifferential-equations
p75
Vhomework
p76
sV3d
p77
Vgeometry
p78
sVset-theory
p79
Vlogic
p80
sVnatural-numbers
p81
Velementary-set-theory
p82
sVbrownian-motion
p83
Vstochastic-processes
p84
sVdivisibility
p85
Velementary-number-theory
p86
sVboolean-algebra
p87
Vlogic
p88
sVfake-proofs
p89
Valgebra-precalculus
p90
sVfractional-calculus
p91
Vcalculus
p92
sVvectors
p93
Vlinear-algebra
p94
sVstochastic-calculus
p95
Vstochastic-processes
p96
sVproducts
p97
Vsequences-and-series
p98
sVrandom-variables
p99
Vprobability
p100
sVcard-games
p101
Vprobability
p102
sVcauchy-sequence
p103
Vreal-analysis
p104
sVconvolution
p105
Vfourier-analysis
p106
sVfourier-series
p107
Vfourier-analysis
p108
sVweak-convergence
p109
Vfunctional-analysis
p110
sVsummation
p111
Vsequences-and-series
p112
sVturing-machines
p113
Vcomputability
p114
sVlinear-algebra
p115
Vmatrices
p116
sVderivatives
p117
Vcalculus
p118
sVmodular-forms
p119
Vnumber-theory
p120
sVautomata
p121
Vformal-languages
p122
sVcharacteristic-classes
p123
Valgebraic-topology
p124
sVstopping-times
p125
Vstochastic-processes
p126
sVbayes-theorem
p127
Vprobability
p128
sVmodel-theory
p129
Vlogic
p130
sVfractions
p131
Valgebra-precalculus
p132
sVpermutations
p133
Vcombinatorics
p134
sVuniversal-algebra
p135
Vabstract-algebra
p136
sValgebraic-curves
p137
Valgebraic-geometry
p138
sVcurvature
p139
Vdifferential-geometry
p140
sVplane-curves
p141
Vgeometry
p142
sVfluid-dynamics
p143
Vpde
p144
sVfoundations
p145
Vlogic
p146
sVsymmetric-groups
p147
Vgroup-theory
p148
sVlocally-convex-spaces
p149
Vfunctional-analysis
p150
sVordinals
p151
Vset-theory
p152
sVnumerical-linear-algebra
p153
Vlinear-algebra
p154
sVmatrix-equations
p155
Vmatrices
p156
sVdifferential-geometry
p157
Vmanifolds
p158
sVirrational-numbers
p159
Vnumber-theory
p160
sVblock-matrices
p161
Vmatrices
p162
sVharmonic-functions
p163
Vcomplex-analysis
p164
sVbanach-algebras
p165
Vfunctional-analysis
p166
sVdivergent-series
p167
Vsequences-and-series
p168
sVnotation
p169
Velementary-set-theory
p170
sVcombinatorial-geometry
p171
Vgeometry
p172
sValgebraic-number-theory
p173
Vnumber-theory
p174
sVmachine-learning
p175
Vstatistics
p176
sVstochastic-analysis
p177
Vstochastic-processes
p178
sVpolytopes
p179
Vgeometry
p180
sVqueueing-theory
p181
Vprobability
p182
sVproof-writing
p183
Vproof-strategy
p184
sVadvice
p185
Vsoft-question
p186
sVphilosophy
p187
Vsoft-question
p188
sVapplications
p189
Vsoft-question
p190
sVcardinals
p191
Velementary-set-theory
p192
sVhilbert-spaces
p193
Vfunctional-analysis
p194
sVvector-fields
p195
Vdifferential-geometry
p196
sVtensor-products
p197
Vabstract-algebra
p198
sVonline-resources
p199
Vreference-request
p200
sVdimension-theory
p201
Vcommutative-algebra
p202
sVeducation
p203
Vsoft-question
p204
sVeuclidean-geometry
p205
Vgeometry
p206
sValgorithms
p207
Vgraph-theory
p208
sVp-groups
p209
Vgroup-theory
p210
sVcorrelation
p211
Vstatistics
p212
sVintegral-transforms
p213
Vfourier-analysis
p214
sVinner-product-space
p215
Vlinear-algebra
p216
sVmetric-spaces
p217
Vgeneral-topology
p218
sVfilters
p219
Vgeneral-topology
p220
sVelliptic-integrals
p221
Vspecial-functions
p222
sVroots
p223
Vpolynomials
p224
sVformal-languages
p225
Vautomata
p226
sVpartial-fractions
p227
Vcalculus
p228
sVsymmetry
p229
Vgroup-theory
p230
sVperturbation-theory
p231
Vdifferential-equations
p232
sVharmonic-analysis
p233
Vfourier-analysis
p234
sVincompleteness
p235
Vlogic
p236
sVfinance
p237
Vhomework
p238
sVfactorial
p239
Vcombinatorics
p240
sVmultisets
p241
Vcombinatorics
p242
sVdescriptive-set-theory
p243
Vgeneral-topology
p244
sVexercises-and-solutions
p245
Vmeasure-theory
p246
sVlinear-programming
p247
Voptimization
p248
sVorder-theory
p249
Velementary-set-theory
p250
sVformal-systems
p251
Vlogic
p252
sVcomputational-complexity
p253
Valgorithms
p254
sVcontinued-fractions
p255
Vnumber-theory
p256
sVnonlinear-optimization
p257
Voptimization
p258
sVorthonormal
p259
Vlinear-algebra
p260
sVroots-of-unity
p261
Vcomplex-numbers
p262
sVinequality
p263
Vreal-analysis
p264
sVgroup-presentation
p265
Vgroup-theory
p266
sVsymmetric-polynomials
p267
Vpolynomials
p268
sVinterpolation
p269
Vnumerical-methods
p270
sVnoncommutative-algebra
p271
Vabstract-algebra
p272
sVstatistical-inference
p273
Vstatistics
p274
sVnormal-distribution
p275
Vprobability
p276
sVlp-spaces
p277
Vfunctional-analysis
p278
sVspectral-theory
p279
Vfunctional-analysis
p280
sVprojective-space
p281
Valgebraic-geometry
p282
sVextremal-combinatorics
p283
Vcombinatorics
p284
sVconjectures
p285
Vnumber-theory
p286
sVfunctional-analysis
p287
Vreal-analysis
p288
sVspline
p289
Vinterpolation
p290
sVeigenvalues-eigenvectors
p291
Vlinear-algebra
p292
sVclassical-analysis
p293
Vreal-analysis
p294
sVmaple
p295
Vnumerical-methods
p296
sVproof-strategy
p297
Vproof-writing
p298
sVfibonacci-numbers
p299
Vsequences-and-series
p300
sVproblem-solving
p301
Valgebra-precalculus
p302
sVinduction
p303
Vhomework
p304
sVfourier-analysis
p305
Vfourier-series
p306
sVmonte-carlo
p307
Vprobability
p308
sVpolyhedra
p309
Vgeometry
p310
sVdifferential-forms
p311
Vdifferential-geometry
p312
sVrandom-graphs
p313
Vgraph-theory
p314
sVvector-analysis
p315
Vmultivariable-calculus
p316
sValgebraic-topology
p317
Vgeneral-topology
p318
sVinteger-programming
p319
Vlinear-programming
p320
sVextension-field
p321
Vfield-theory
p322
sVaxioms
p323
Vset-theory
p324
sVvector-spaces
p325
Vlinear-algebra
p326
sVdefinition
p327
Vterminology
p328
sVpropositional-calculus
p329
Vlogic
p330
sVgeometry
p331
Vhomework
p332
sVlarge-cardinals
p333
Vset-theory
p334
sVarea
p335
Vgeometry
p336
sVquaternions
p337
Vrotations
p338
sVelementary-set-theory
p339
Vhomework
p340
sVring-theory
p341
Vabstract-algebra
p342
sVcomplex-analysis
p343
Vhomework
p344
sVadjoint
p345
Vcategory-theory
p346
sVcomplex-numbers
p347
Vcomplex-analysis
p348
sVconvex-analysis
p349
Vconvex-optimization
p350
sVintuition
p351
Vsoft-question
p352
sVpigeonhole-principle
p353
Vcombinatorics
p354
sVsoft-question
p355
Vreference-request
p356
sVprobability
p357
Vstatistics
p358
sVgeodesic
p359
Vdifferential-geometry
p360
sVrational-numbers
p361
Virrational-numbers
p362
sVclosed-form
p363
Vcalculus
p364
sVopen-problem
p365
Vnumber-theory
p366
sVpolygons
p367
Vgeometry
p368
sVlagrange-multiplier
p369
Voptimization
p370
sVcontext-free-grammar
p371
Vformal-languages
p372
sVhomotopy-theory
p373
Valgebraic-topology
p374
sVrelations
p375
Velementary-set-theory
p376
sVconvention
p377
Vnotation
p378
sVclifford-algebras
p379
Vabstract-algebra
p380
sVdifference-equations
p381
Vrecurrence-relations
p382
sVclass-field-theory
p383
Valgebraic-number-theory
p384
sVdynamic-programming
p385
Valgorithms
p386
sVnetwork-flow
p387
Vgraph-theory
p388
sVexponential-function
p389
Vcalculus
p390
sVquadratic-forms
p391
Vlinear-algebra
p392
sVspherical-geometry
p393
Vgeometry
p394
sVcoding-theory
p395
Vhomework
p396
sVbilinear-form
p397
Vlinear-algebra
p398
sVpacking-problem
p399
Vgeometry
p400
sVsolution-verification
p401
Vhomework
p402
sValgebraic-graph-theory
p403
Vgraph-theory
p404
sVnonlinear-system
p405
Vdifferential-equations
p406
sVbinomial-theorem
p407
Vbinomial-coefficients
p408
sVmotivation
p409
Vsoft-question
p410
sVfiber-bundles
p411
Vdifferential-geometry
p412
sVhyperbolic-geometry
p413
Vgeometry
p414
sVdiscrete-mathematics
p415
Vcombinatorics
p416
sVinformation-theory
p417
Vprobability
p418
sVmeasure-theory
p419
Vreal-analysis
p420
sVrecurrence-relations
p421
Vsequences-and-series
p422
sVregular-expressions
p423
Vregular-language
p424
sVspectral-graph-theory
p425
Vgraph-theory
p426
sVnumber-theory
p427
Velementary-number-theory
p428
sVgalois-theory
p429
Vabstract-algebra
p430
sVvon-neumann-algebras
p431
Voperator-algebras
p432
sVprime-numbers
p433
Vnumber-theory
p434
sVcalculus
p435
Vintegration
p436
sVlattice-orders
p437
Vorder-theory
p438
sVlaplace-transform
p439
Vdifferential-equations
p440
sVtrace
p441
Vmatrices
p442
sVvector-bundles
p443
Vdifferential-geometry
p444
sVduality-theorems
p445
Vlinear-programming
p446
sVmarkov-chains
p447
Vprobability
p448
sVequivalence-relations
p449
Vrelations
p450
sVquantum-mechanics
p451
Vlinear-algebra
p452
sVaverage
p453
Vstatistics
p454
sVriemann-hypothesis
p455
Vnumber-theory
p456
sVinteger-lattices
p457
Vgeometry
p458
sVfree-groups
p459
Vgroup-theory
p460
sVphysics
p461
Vcalculus
p462
sVbounded-variation
p463
Vreal-analysis
p464
sVpattern-recognition
p465
Vsequences-and-series
p466
sVrandom
p467
Vprobability
p468
sVpower-series
p469
Vsequences-and-series
p470
sVoperator-algebras
p471
Vfunctional-analysis
p472
sVriemann-zeta
p473
Vnumber-theory
p474
sVparadoxes
p475
Vprobability
p476
sVhomology
p477
Valgebraic-topology
p478
sVcomputability
p479
Vlogic
p480
sVcoloring
p481
Vgraph-theory
p482
sVdice
p483
Vprobability
p484
sVtetration
p485
Vnumber-theory
p486
sVcareer-development
p487
Vsoft-question
p488
sVorthogonal-polynomials
p489
Vspecial-functions
p490
sVmarkov-process
p491
Vmarkov-chains
p492
sVpermutation-groups
p493
Vgroup-theory
p494
sVbezier-curve
p495
Vgeometry
p496
sVcircle
p497
Vgeometry
p498
sVfield-theory
p499
Vabstract-algebra
p500
sVcontinuity
p501
Vreal-analysis
p502
sVtriangle
p503
Vgeometry
p504
sVhyperbolic-functions
p505
Vintegration
p506
sVcryptography
p507
Vnumber-theory
p508
sVexpectation
p509
Vprobability
p510
sVtrees
p511
Vgraph-theory
p512
sVabelian-categories
p513
Vcategory-theory
p514
sVcombinations
p515
Vcombinatorics
p516
sVtaylor-expansion
p517
Vcalculus
p518
sVcongruences
p519
Velementary-number-theory
p520
sVdifferential
p521
Vdifferential-equations
p522
sVabstract-algebra
p523
Vgroup-theory
p524
sVrational-functions
p525
Valgebra-precalculus
p526
sVperiodic-functions
p527
Vreal-analysis
p528
sVtopos-theory
p529
Vcategory-theory
p530
sVdistribution-theory
p531
Vfunctional-analysis
p532
sVvaluation-theory
p533
Vcommutative-algebra
p534
sVelementary-number-theory
p535
Vnumber-theory
p536
sVprobability-theory
p537
Vprobability
p538
sVsurfaces
p539
Vdifferential-geometry
p540
sVeigenfunctions
p541
Veigenvalues-eigenvectors
p542
sVmonoid
p543
Vabstract-algebra
p544
sVcomputer-algebra-systems
p545
Vmath-software
p546
sVimplicit-differentiation
p547
Vcalculus
p548
sVconstructive-mathematics
p549
Vlogic
p550
sVlaw-of-large-numbers
p551
Vprobability-theory
p552
sVtranscendental-numbers
p553
Vnumber-theory
p554
sVaxiom-of-choice
p555
Vset-theory
p556
sVgroup-cohomology
p557
Vgroup-theory
p558
sVindefinite-integrals
p559
Vintegration
p560
sVboundary-value-problem
p561
Vpde
p562
sVcalculus-of-variations
p563
Vcalculus
p564
sVlimit-theorems
p565
Vlimits
p566
sVfinite-differences
p567
Vnumerical-methods
p568
sVtensors
p569
Vdifferential-geometry
p570
sVtype-theory
p571
Vlogic
p572
sVuniform-continuity
p573
Vreal-analysis
p574
sVrandom-matrices
p575
Vmatrices
p576
sVlimits
p577
Vcalculus
p578
sVradicals
p579
Valgebra-precalculus
p580
sVrepresentation-theory
p581
Vgroup-theory
p582
sVtrigonometry
p583
Vhomework
p584
sVsimple-groups
p585
Vgroup-theory
p586
sVfinite-fields
p587
Vabstract-algebra
p588
sVlogic
p589
Vpropositional-calculus
p590
sVpde
p591
Vfunctional-analysis
p592
sVestimation
p593
Vstatistics
p594
sVtranscendental-equations
p595
Vspecial-functions
p596
sVnumber-systems
p597
Vhomework
p598
sVsymplectic-geometry
p599
Vdifferential-geometry
p600
sVramsey-theory
p601
Vcombinatorics
p602
sVcohomology
p603
Valgebraic-topology
p604
sVsampling
p605
Vstatistics
p606
sVlearning
p607
Vsoft-question
p608
sVlow-dimensional-topology
p609
Vgeometric-topology
p610
sVoperator-theory
p611
Vfunctional-analysis
p612
sVtopological-vector-spaces
p613
Vfunctional-analysis
p614
sVprobability-distributions
p615
Vprobability
p616
sVknot-theory
p617
Valgebraic-topology
p618
sVsemigroups
p619
Vabstract-algebra
p620
sVbinomial-coefficients
p621
Vcombinatorics
p622
sVgeneral-relativity
p623
Vdifferential-geometry
p624
sVreal-numbers
p625
Vreal-analysis
p626
sVasymptotics
p627
Valgorithms
p628
sVnumerical-methods
p629
Vdifferential-equations
p630
sVpi
p631
Vsequences-and-series
p632
sVquadratic-reciprocity
p633
Vnumber-theory
p634
sVdeterminant
p635
Vlinear-algebra
p636
sVcyclic-groups
p637
Vgroup-theory
p638
sVmultilinear-algebra
p639
Vlinear-algebra
p640
sVstochastic-processes
p641
Vprobability-theory
p642
sValgebraic-geometry
p643
Vcommutative-algebra
p644
sVbayesian
p645
Vprobability
p646
sVc-star-algebras
p647
Vfunctional-analysis
p648
sVmanifolds
p649
Vdifferential-geometry
p650
sVdynamical-systems
p651
Vdifferential-equations
p652
sVmultivariable-calculus
p653
Vcalculus
p654
sVpolar-coordinates
p655
Vcalculus
p656
sVarithmetic-geometry
p657
Valgebraic-geometry
p658
sVcharacteristic-functions
p659
Vprobability-theory
p660
sVproject-euler
p661
Vcombinatorics
p662
sVoptimization
p663
Vcalculus
p664
sVcompactness
p665
Vgeneral-topology
p666
sVriemann-surfaces
p667
Vcomplex-analysis
p668
sVeconomics
p669
Vhomework
p670
sVgroup-theory
p671
Vabstract-algebra
p672
sVcalculator
p673
Vcalculus
p674
sVnonstandard-analysis
p675
Vcalculus
p676
sVconvex-optimization
p677
Voptimization
p678
sVcoordinate-systems
p679
Vgeometry
p680
sVsignal-processing
p681
Vfourier-analysis
p682
sVregression
p683
Vstatistics
p684
sVintegral-equations
p685
Vdifferential-equations
p686
sVbinary
p687
Vcombinatorics
p688
sVrecreational-mathematics
p689
Vpuzzle
p690
sVtiling
p691
Vgeometry
p692
sVorder-statistics
p693
Vstatistics
p694
sVnormal-subgroups
p695
Vgroup-theory
p696
sVrecursion
p697
Vrecurrence-relations
p698
sVfractals
p699
Vcomplex-analysis
p700
sVconnectedness
p701
Vgeneral-topology
p702
sVgroup-actions
p703
Vgroup-theory
p704
sVgeometric-topology
p705
Valgebraic-topology
p706
sVcontest-math
p707
Velementary-number-theory
p708
sVinfinity
p709
Vlimits
p710
sVnp-complete
p711
Vcomputational-complexity
p712
sVtriangulation
p713
Vgeometry
p714
sVstirling-numbers
p715
Vcombinatorics
p716
sVriemannian-geometry
p717
Vdifferential-geometry
p718
sVcharacters
p719
Vrepresentation-theory
p720
sVbanach-spaces
p721
Vfunctional-analysis
p722
sVcatalan-numbers
p723
Vcombinatorics
p724
sVwolfram-alpha
p725
Vcalculus
p726
sVabelian-groups
p727
Vgroup-theory
p728
sVanalysis
p729
Vreal-analysis
p730
sVelliptic-functions
p731
Vcomplex-analysis
p732
sVergodic-theory
p733
Vdynamical-systems
p734
sVparametric
p735
Vcalculus
p736
sVactuarial-science
p737
Vprobability
p738
sVanalytic-number-theory
p739
Vnumber-theory
p740
sVdecimal-expansion
p741
Vnumber-theory
p742
sVstochastic-integrals
p743
Vstochastic-processes
p744
sVsolid-geometry
p745
Vgeometry
p746
sVprojective-geometry
p747
Valgebraic-geometry
p748
sVseveral-complex-variables
p749
Vcomplex-analysis
p750
sVinclusion-exclusion
p751
Vcombinatorics
p752
sVexamples-counterexamples
p753
Vgeneral-topology
p754
sVexterior-algebra
p755
Vlinear-algebra
p756
sVsystems-of-equations
p757
Vlinear-algebra
p758
sVvisualization
p759
Vintuition
p760
sVintersection
p761
Vgeometry
p762
sVmartingales
p763
Vprobability-theory
p764
sVinvariant-theory
p765
Valgebraic-geometry
p766
sVcross-product
p767
Vlinear-algebra
p768
sVsylow-theory
p769
Vgroup-theory
p770
sVnormed-spaces
p771
Vfunctional-analysis
p772
sVsequences-and-series
p773
Vreal-analysis
p774
sVproof-verification
p775
Vreal-analysis
p776
sVdiagonalization
p777
Vlinear-algebra
p778
sVreference-request
p779
Vsoft-question
p780
sVtransformation
p781
Vlinear-algebra
p782
sVhomework
p783
Vcalculus
p784
sVinfinite-product
p785
Vsequences-and-series
p786
sVmatroids
p787
Vgraph-theory
p788
sVzeta-functions
p789
Vriemann-zeta
p790
sValgebraic-groups
p791
Valgebraic-geometry
p792
sVfunctional-inequalities
p793
Vinequality
p794
sVapproximation-theory
p795
Vapproximation
p796
sVuniform-spaces
p797
Vgeneral-topology
p798
sVuniform-distribution
p799
Vprobability
p800
sVdescriptive-statistics
p801
Vstatistics
p802
sVclassical-mechanics
p803
Vdifferential-equations
p804
sVirreducible-polynomials
p805
Vpolynomials
p806
sVrecursive-algorithms
p807
Valgorithms
p808
sVdifferential-operators
p809
Vpde
p810
sVsorting
p811
Valgorithms
p812
sVarithmetic
p813
Valgebra-precalculus
p814
sVtime-series
p815
Vstochastic-processes
p816
sVcomputer-science
p817
Valgorithms
p818
sVterminology
p819
Vabstract-algebra
p820
sVprimality-test
p821
Vprime-numbers
p822
sVmath-history
p823
Vsoft-question
p824
sVresidue-calculus
p825
Vcomplex-analysis
p826
sVdata-analysis
p827
Vstatistics
p828
sVcompact-operators
p829
Vfunctional-analysis
p830
sVabsolute-value
p831
Vinequality
p832
sVdefinite-integrals
p833
Vintegration
p834
sVfinite-groups
p835
Vgroup-theory
p836
sVregular-language
p837
Vautomata
p838
sVmaximum-principle
p839
Vcomplex-analysis
p840
sVintegration
p841
Vcalculus
p842
sVcommutative-algebra
p843
Vabstract-algebra
p844
sVcombinatorial-game-theory
p845
Vcombinatorics
p846
sVarticle-writing
p847
Vsoft-question
p848
sVrandom-walk
p849
Vprobability
p850
sVfunction-composition
p851
Vfunctions
p852
sVexponential-sum
p853
Vsummation
p854
sVlocally-compact-groups
p855
Vtopological-groups
p856
sVconformal-geometry
p857
Vcomplex-analysis
p858
sVspherical-coordinates
p859
Vspherical-geometry
p860
sVstandard-deviation
p861
Vstatistics
p862
sVmathematical-physics
p863
Vphysics
p864
sVmorse-theory
p865
Vhomework
p866
sVwavelets
p867
Vfourier-analysis
p868
sVsimulation
p869
Vprobability
p870
sVmorphism
p871
Vabstract-algebra
p872
sVprincipal-ideal-domains
p873
Vabstract-algebra
p874
sVpuzzle
p875
Vrecreational-mathematics
p876
sVrotations
p877
Vgeometry
p878
sVbig-list
p879
Vsoft-question
p880
sVconditional-probability
p881
Vprobability
p882
sVschemes
p883
Valgebraic-geometry
p884
sVdiophantine-equations
p885
Vnumber-theory
p886
sVfinite-rings
p887
Vring-theory
p888
sVnash-equilibrium
p889
Vgame-theory
p890
sVstatistics
p891
Vprobability
p892
sVholder-spaces
p893
Vreal-analysis
p894
sVcombinatorics
p895
Vprobability
p896
sVgeneral-topology
p897
Vreal-analysis
p898
sVsheaf-theory
p899
Valgebraic-geometry
p900
sVmodular-arithmetic
p901
Velementary-number-theory
p902
sVimproper-integrals
p903
Vintegration
p904
sVexact-sequence
p905
Vhomological-algebra
p906
sVlie-algebras
p907
Vlie-groups
p908
sVfundamental-groups
p909
Valgebraic-topology
p910
sVcomplex-integration
p911
Vcomplex-analysis
p912
sVcomputational-geometry
p913
Vgeometry
p914
sVvolume
p915
Vintegration
p916
sVconvergence
p917
Vsequences-and-series
p918
sVfunctional-equations
p919
Vfunctions
p920
sVideals
p921
Vabstract-algebra
p922
sVimage-processing
p923
Vgeometry
p924
sVcomplex-geometry
p925
Valgebraic-geometry
p926
sVgenerating-functions
p927
Vcombinatorics
p928
sVsobolev-spaces
p929
Vfunctional-analysis
p930
sVgraph-theory
p931
Vcombinatorics
p932
sVdifferential-topology
p933
Vdifferential-geometry
p934
sVproof-theory
p935
Vlogic
p936
sVtotient-function
p937
Velementary-number-theory
p938
sVgeometric-measure-theory
p939
Vmeasure-theory
p940
sVquantum-groups
p941
Vhopf-algebras
p942
sVlimsup-and-liminf
p943
Vreal-analysis
p944
sVfixed-point-theorems
p945
Vreal-analysis
p946
sVconic-sections
p947
Vgeometry
p948
sVfunctions
p949
Vcalculus
p950
sVdiscrete-geometry
p951
Vgeometry
p952
sVanalyticity
p953
Vcomplex-analysis
p954
sVsimplicial-stuff
p955
Valgebraic-topology
p956
sVmathematica
p957
Vmath-software
p958
sVlebesgue-integral
p959
Vmeasure-theory
p960
sVcovering-spaces
p961
Valgebraic-topology
p962
sVforcing
p963
Vset-theory
p964
sVbaire-category
p965
Vgeneral-topology
p966
sVlebesgue-measure
p967
Vmeasure-theory
p968
sVestimation-theory
p969
Vstatistics
p970
sVmath-software
p971
Vsoft-question
p972
sVgeometric-group-theory
p973
Vgroup-theory
p974
sVpolynomials
p975
Vabstract-algebra
p976
sVintegral-inequality
p977
Vinequality
p978
sVlie-groups
p979
Vlie-algebras
p980
sVcomputational-mathematics
p981
Vnumerical-methods
p982
sVgap
p983
Vgroup-theory
p984
sValternative-proof
p985
Vreal-analysis
p986
sVpredicate-logic
p987
Vlogic
p988
sVanalytic-geometry
p989
Vgeometry
p990
sVballs-in-bins
p991
Vprobability
p992
sVmathematical-modeling
p993
Vdifferential-equations
p994
sVsvd
p995
Vlinear-algebra
p996
sVmodules
p997
Vabstract-algebra
p998
sVgeometric-construction
p999
Vgeometry
p1000
sVself-learning
p1001
Vsoft-question
p1002
sVuniform-convergence
p1003
Vreal-analysis
p1004
sVelliptic-curves
p1005
Vnumber-theory
p1006
sVprojective-module
p1007
Vmodules
p1008
s.