(dp0
Vhigh-frequency-estimators
p1
Vhigh-frequency
p2
sVrisk-premium
p3
Vfixed-income
p4
sVtrading-systems
p5
Vautomated-trading
p6
sVliquidity
p7
Voptions
p8
sVno-arbitrage-theory
p9
Varbitrage
p10
sVlognormal
p11
Vblack-scholes
p12
sVtrade
p13
Vtime
p14
sVoption-pricing
p15
Voptions
p16
sVnasdaq
p17
Vcodes
p18
sVrandom-matrix-theory
p19
Vcorrelation
p20
sVdrawdown
p21
Vfunds
p22
sVcds
p23
Vderivatives
p24
sVportfolio
p25
Vportfolio-management
p26
sVvisualization
p27
Vr
p28
sVindicator
p29
Vtechnicals
p30
sVrebalancing
p31
Vportfolio-management
p32
sVcorrelation-matrix
p33
Vcorrelation
p34
sVvaluation
p35
Vequities
p36
sVmarket-impact
p37
Vetf
p38
sVamerican-options
p39
Voption-pricing
p40
sVpricing-formulae
p41
Voption-pricing
p42
sVspread
p43
Voptions
p44
sVmatlab
p45
Vquantitative
p46
sVmean-variance
p47
Voptimization
p48
sVimplied-volatility
p49
Voptions
p50
sVpca
p51
Vfactor-models
p52
sVblack-scholes
p53
Voption-pricing
p54
sVreturn
p55
Vequities
p56
sVrisk
p57
Vrisk-management
p58
sVpython
p59
g28
sVembedded-options
p60
Vfixed-income
p61
sVcoherent-risk-measure
p62
Vreturns
p63
sVcapm
p64
Vbeta
p65
sVasset-allocation
p66
Vportfolio-management
p67
sVquantlib
p68
Vprogramming
p69
sVmathematics
p70
Vstatistics
p71
sVhedge
p72
Voptions
p73
sVasset-returns
p74
Vreturns
p75
sVheston
p76
Vstochastic-volatility
p77
sVvolatility
p78
Voptions
p79
sVtick-data
p80
Vdata
p81
sVbacktesting
p82
Vquant-trading-strategies
p83
sVcme
p84
Vdata
p85
sVexcel
p86
Vprogramming
p87
sVyield
p88
Vmodeling
p89
sVitos-lemma
p90
Vstochastic-calculus
p91
sVmachine-learning
p92
Vprediction
p93
sVmean-reversion
p94
Vpairs-trading
p95
sVdatabase
p96
Vdata
p97
sVtime-series
p98
Vstatistics
p99
sVmartingale
p100
Vstochastic-calculus
p101
sVbond
p102
Vfixed-income
p103
sVlimit-order-book
p104
Vhigh-frequency
p105
sVnormal-distribution
p106
Vblack-scholes
p107
sVarbitrage
p108
Voptions
p109
sVlearning
p110
Vquantitative
p111
sVmarket-model
p112
Vtime-series
p113
sVhardware
p114
Vgpgpu
p115
sVtesting
p116
Vtime-series
p117
sVprediction
p118
Vforecasting
p119
sVbooks
p120
Vmathematics
p121
sVtrading
p122
Vautomated-trading
p123
sVpricing
p124
Vfixed-income
p125
sVmarket-microstructure
p126
Vhigh-frequency
p127
sVduration
p128
Vfixed-income
p129
sVtechnicals
p130
Vindicator
p131
sVrisk-neutral-measure
p132
Voption-pricing
p133
sVeconometrics
p134
Vtime-series
p135
sVindex
p136
Vtime-series
p137
sVterm-structure
p138
Vpca
p139
sVswaps
p140
Vinterest-rates
p141
sVinvesting
p142
Vtrading
p143
sVgreeks
p144
Voptions
p145
sVhigh-frequency
p146
Vautomated-trading
p147
sVresearch
p148
Vequities
p149
sVbinomial-tree
p150
Voptions
p151
sVoptimization
p152
Vportfolio-management
p153
sVtransaction-costs
p154
Vautomated-trading
p155
sVmarket
p156
Vresearch
p157
sVpairs-trading
p158
Vcointegration
p159
sVlibor
p160
Vinterest-rates
p161
sVcovariance-matrix
p162
Vcovariance-estimation
p163
sVdifferential-equations
p164
Vblack-scholes
p165
sVfinancial-engineering
p166
Vstochastic-processes
p167
sVmultivariate
p168
Vtime-series
p169
sVtheory
p170
Vresearch
p171
sVrandom-walk
p172
Vtime-series
p173
sVexchange
p174
Vorder-execution
p175
sVdividends
p176
Vindex
p177
sVmonte-carlo
p178
Voption-pricing
p179
sVcovariance-estimation
p180
Vpca
p181
sVbroker
p182
Vhigh-frequency
p183
sVportfolio-management
p184
Voptimization
p185
sVvasicek
p186
Vinterest-rates
p187
sVbrownian-motion
p188
Vstochastic-processes
p189
sVmodeling
p190
Vinterest-rates
p191
sVhedging
p192
Voptions
p193
sVauto-correlation
p194
Vtime-series
p195
sVstandard-deviation
p196
Vsharpe-ratio
p197
sVexotics
p198
Voption-pricing
p199
sVdelta-neutral
p200
Voptions
p201
sVcareer
p202
Vbanks
p203
sVmoving-average
p204
Vquant-trading-strategies
p205
sVeconomics
p206
Vfinance
p207
sVprogramming
p208
Vquantlib
p209
sVdependence
p210
Vcorrelation
p211
sVperformanceanalytics
p212
Vperformance-evaluation
p213
sVstochastic-calculus
p214
Vstochastic-processes
p215
sVinvestment
p216
Vrisk
p217
sVcredit
p218
Vrisk
p219
sVetf
p220
Vequities
p221
sVvariance
p222
Vvolatility
p223
sVsharpe-ratio
p224
Vreturns
p225
sVfix
p226
Vautomated-trading
p227
sVcurve-fitting
p228
Voptimization
p229
sVsoftware
p230
Vbacktesting
p231
sVutility-theory
p232
Veconomics
p233
sValgorithmic-trading
p234
Vquant-trading-strategies
p235
sVforecasting
p236
Vtime-series
p237
sVsoft-question
p238
Vresearch
p239
sVprobability
p240
Voptions
p241
sVbasel
p242
Vcredit-risk
p243
sVapi
p244
Vquantlib
p245
sVvolatiliy-smile
p246
Vimplied-volatility
p247
sVanomalies
p248
Vvolatility
p249
sVvix
p250
Vvolatility
p251
sVintraday
p252
Vestimation
p253
sVautomated-trading
p254
Vtrading
p255
sVderivatives
p256
Voptions
p257
sVstatistics
p258
Vtime-series
p259
sVfactor-loading
p260
Vfactor-models
p261
sVleverage
p262
Vetf
p263
sVquants
p264
Vrisk-models
p265
sVhullwhite
p266
Vinterest-rates
p267
sVskew
p268
Voptions
p269
sVfactor-models
p270
Vregression
p271
sVnegative
p272
Vinterest-rates
p273
sVstrategy
p274
Voptions
p275
sVcredit-ratings
p276
Vcredit-risk
p277
sVreturns
p278
Vcapm
p279
sVportfolio-optimization
p280
Voptimization
p281
sVnumerical-methods
p282
Voption-pricing
p283
sVvar
p284
Vrisk
p285
sVrates
p286
Vrisk-models
p287
sVdiversification
p288
Vcorrelation
p289
sVarma
p290
Vgarch
p291
sVmoney-management
p292
Vposition-sizing
p293
sVportfolio-selection
p294
Voptimization
p295
sVskewness
p296
Vkurtosis
p297
sVgarch
p298
Vvolatility
p299
sVkalman
p300
Vbeta
p301
sVforward
p302
Vfx
p303
sVfundamentals
p304
Vdata
p305
sVfunds
p306
Vmutual-fund
p307
sVstochastic-processes
p308
Vstochastic-calculus
p309
sVbenchmark
p310
Vbacktesting
p311
sVcovariance
p312
Vcorrelation
p313
sVrisk-models
p314
Vrisk
p315
sVvolume
p316
Voptions
p317
sVsde
p318
Voption-pricing
p319
sVcontinuous-time
p320
Vtime-series
p321
sVdelta
p322
Vvolatility
p323
sVinterest-rates
p324
Vfixed-income
p325
sVmarket-making
p326
Voptions
p327
sVkurtosis
p328
Vskewness
p329
sVreference-request
p330
Vresearch
p331
sVcointegration
p332
Vtime-series
p333
sVquantitative
p334
Vfinance
p335
sVrisk-management
p336
Vrisk
p337
sValgorithm
p338
Vmarket-making
p339
sVdefault
p340
Vprobability
p341
sVquant-trading-strategies
p342
Vbacktesting
p343
sVlocal-volatility
p344
Voption-pricing
p345
sVbinary-options
p346
Voptions
p347
sVr
p348
Vgarch
p349
sVneural-networks
p350
Vmachine-learning
p351
sVexpected-return
p352
Vreturns
p353
sVuntagged
p354
NsVdistribution
p355
Vimplied-volatility
p356
sVstochastic-volatility
p357
Vvolatility
p358
sVhistory
p359
Vfx
p360
sVspx
p361
Vvix
p362
sVmodern-portfolio-theory
p363
Vportfolio-management
p364
sVcalculation
p365
Voptions
p366
sVtactical-asset-allocation
p367
Vresearch
p368
sVshort-selling
p369
Vequities
p370
sVyield-curve
p371
Vfixed-income
p372
sVgeneral
p373
Vmbs
p374
sVrandom-variables
p375
Vtime-series
p376
sVcurrency
p377
Vreturns
p378
sVorder-execution
p379
Vhigh-frequency
p380
sVposition-sizing
p381
Vquant-trading-strategies
p382
sVcalibration
p383
Voption-pricing
p384
sVsimulations
p385
Vmonte-carlo
p386
sVorder-handling
p387
Vhigh-frequency
p388
sVaccounting
p389
Voptions
p390
sVfixed-income
p391
Vinterest-rates
p392
sVregression
p393
Vtime-series
p394
sVinteractive-brokers
p395
Vprogramming
p396
sVfinance
p397
Vtime-series
p398
sVlatency
p399
Vhigh-frequency
p400
sVelectronic-trading
p401
Vlimit-order-book
p402
sVrecovery
p403
Vdefault
p404
sVdelta-hedging
p405
Voptions
p406
sVstationarity
p407
Vtime-series
p408
sVkelly-criterion
p409
Vquant-trading-strategies
p410
sVequities
p411
Vresearch
p412
sVfloating-rate
p413
Vfixed-income
p414
sVinsurance
p415
Vrisk-management
p416
sVmodels
p417
Voption-pricing
p418
sVmarket-data
p419
Vdata
p420
sVperformance
p421
Vreturns
p422
sVparameter
p423
Vtime-series
p424
sVinflation
p425
Vfixed-income
p426
sVhistorical-data
p427
Vdata
p428
sVinterpolation
p429
Vvolatility
p430
sVcredit-risk
p431
Vcredit-ratings
p432
sVstatistical-finance
p433
Vstatistics
p434
sVasset-pricing
p435
Vequities
p436
sVconvertible-bond
p437
Vbinomial-tree
p438
sVinformation
p439
Vtrading
p440
sVfx
p441
Vvolatility
p442
sVquote
p443
Voptions
p444
sVprice
p445
Vequities
p446
sVyahoo
p447
Vdata
p448
sVbanks
p449
Vinterest-rates
p450
sVbeta
p451
Vcapm
p452
sVcva
p453
Vcredit
p454
sVbloomberg
p455
Vdata
p456
sVperformance-evaluation
p457
Vperformance
p458
sVcopula
p459
Vprobability
p460
sVdata
p461
Vmarket-data
p462
sVvalue-at-risk
p463
Vmonte-carlo
p464
sVmbs
p465
Vvaluation
p466
sVestimation
p467
Vvolatility
p468
sVdata-mining
p469
Vmarket-data
p470
sVreplication
p471
Voptions
p472
sVfutures
p473
Voptions
p474
sVput-call-parity
p475
Voptions
p476
sVanalysis
p477
Vdata
p478
sVoptions
p479
Voption-pricing
p480
sVcommodities
p481
Voptions
p482
sVacademia
p483
Vmarket-making
p484
sVgamma
p485
Vgreeks
p486
sVcorrelation
p487
Vtime-series
p488
sVbasket
p489
Voptions
p490
sVbest-practices
p491
Vtime-series
p492
sVmacro-economics
p493
Vpricing
p494
sVmean
p495
Vstandard-deviation
p496
sVorder
p497
Vorder-handling
p498
sVoption-strategies
p499
Voptions
p500
sVlog-returns
p501
Vasset-returns
p502
s.