(dp0
Vhigh-frequency-estimators
p1
Vhigh-frequency
p2
sVrisk-premium
p3
Vfixed-income
p4
sVbanks
p5
Vinterest-rates
p6
sVtrading-systems
p7
Vtrading
p8
sVno-arbitrage-theory
p9
Varbitrage
p10
sVlognormal
p11
Voptions
p12
sVtrade
p13
NsVoption-pricing
p14
g12
sVperformance
p15
Vcapm
p16
sVnasdaq
p17
NsVrandom-matrix-theory
p18
Vtime-series
p19
sVdrawdown
p20
NsVcds
p21
Vderivatives
p22
sVportfolio
p23
Vportfolio-management
p24
sVvisualization
p25
g25
sVindicator
p26
NsVrebalancing
p27
Vportfolio-management
p28
sVcorrelation-matrix
p29
g19
sVkurtosis
p30
NsVmarket-impact
p31
Vetf
p32
sVamerican-options
p33
g33
sVpricing-formulae
p34
g12
sVspread
p35
Voptions
p36
sVmatlab
p37
g37
sVmean-variance
p38
Voptimization
p39
sVimplied-volatility
p40
Voptions
p41
sVpca
p42
g42
sVsde
p43
g12
sVstationarity
p44
Vtime-series
p45
sVreturn
p46
Vequities
p47
sVrisk
p48
Vrisk-management
p49
sVpython
p50
g50
sVlibor
p51
Vinterest-rates
p52
sVcoherent-risk-measure
p53
g16
sVcapm
p54
g54
sVasset-allocation
p55
Vportfolio-management
p56
sVfloating-rate
p57
Vfixed-income
p58
sVquantlib
p59
Vprogramming
p60
sVvasicek
p61
Vinterest-rates
p62
sVhedge
p63
Voptions
p64
sVasset-returns
p65
g16
sVheston
p66
Vvolatility
p67
sVvolatility
p68
g68
sVtick-data
p69
Vmarket-data
p70
sVbacktesting
p71
g71
sVdata-mining
p72
g72
sVcme
p73
g70
sVexcel
p74
Vprogramming
p75
sVyield
p76
Vinterest-rates
p77
sVitos-lemma
p78
Vstochastic-calculus
p79
sVmean-reversion
p80
Vpairs-trading
p81
sVtime-series
p82
g82
sVmartingale
p83
Vstochastic-calculus
p84
sVbond
p85
Vfixed-income
p86
sVlimit-order-book
p87
Vhigh-frequency
p88
sVnormal-distribution
p89
g12
sVarbitrage
p90
g90
sVanomalies
p91
Vvolatility
p92
sVreplication
p93
g93
sVmarket-model
p94
Vtime-series
p95
sVtesting
p96
g96
sVbasket
p97
Voptions
p98
sVprediction
p99
Vforecasting
p100
sVbooks
p101
Vstatistics
p102
sVtrading
p103
g103
sVpricing
p104
Vfixed-income
p105
sVmarket-microstructure
p106
g106
sVduration
p107
Vfixed-income
p108
sVtechnicals
p109
NsVrisk-neutral-measure
p110
g12
sVeconometrics
p111
g111
sVindex
p112
g112
sVterm-structure
p113
Vpca
p114
sVswaps
p115
g115
sVinvesting
p116
Vtrading
p117
sVgreeks
p118
Voptions
p119
sVresearch
p120
Vequities
p121
sVbinomial-tree
p122
Voptions
p123
sVr
p124
g124
sVtransaction-costs
p125
g8
sVintraday
p126
Vvolatility
p127
sVpairs-trading
p128
g128
sVembedded-options
p129
Vfixed-income
p130
sVcovariance-matrix
p131
Vpca
p132
sVdifferential-equations
p133
g133
sVprice
p134
Vequities
p135
sVmultivariate
p136
Vtime-series
p137
sVtheory
p138
g121
sVrandom-walk
p139
Vtime-series
p140
sVexchange
p141
Vorder-execution
p142
sVdividends
p143
Vindex
p144
sVmonte-carlo
p145
g145
sVcovariance-estimation
p146
g132
sVbroker
p147
Vhigh-frequency
p148
sVportfolio-management
p149
g149
sVbrownian-motion
p150
Vstochastic-processes
p151
sVmarket-data
p152
g152
sVmodeling
p153
g77
sVleverage
p154
Vetf
p155
sVauto-correlation
p156
Vtime-series
p157
sVstandard-deviation
p158
g16
sVexotics
p159
g159
sVcareer
p160
g6
sVmoving-average
p161
Vquant-trading-strategies
p162
sVeconomics
p163
Vtime-series
p164
sVprogramming
p165
g165
sVdependence
p166
g19
sVperformanceanalytics
p167
g16
sVstochastic-calculus
p168
g168
sVcredit
p169
g169
sVetf
p170
g170
sVvariance
p171
Vvolatility
p172
sVsharpe-ratio
p173
g16
sVfix
p174
g8
sVcurve-fitting
p175
Voptimization
p176
sVsoftware
p177
Vbacktesting
p178
sVutility-theory
p179
g164
sValgorithmic-trading
p180
g180
sVforecasting
p181
g181
sVsoft-question
p182
g121
sVprobability
p183
g183
sVbasel
p184
Vcredit-ratings
p185
sVperformance-evaluation
p186
g16
sVorder
p187
Vhigh-frequency
p188
sVapi
p189
g60
sVvolatiliy-smile
p190
g41
sVlearning
p191
g164
sVvix
p192
Vvolatility
p193
sVmarket
p194
g121
sVautomated-trading
p195
g8
sVderivatives
p196
g196
sVstatistics
p197
g197
sVfactor-loading
p198
Vregression
p199
sVhedging
p200
g200
sVquants
p201
g49
sVhullwhite
p202
Vinterest-rates
p203
sVskew
p204
Voptions
p205
sVnegative
p206
Vinterest-rates
p207
sVstrategy
p208
Voptions
p209
sVcredit-ratings
p210
g210
sVreturns
p211
g16
sVportfolio-optimization
p212
Voptimization
p213
sVinsurance
p214
Vrisk-management
p215
sVnumerical-methods
p216
g216
sVbest-practices
p217
Vtime-series
p218
sVvar
p219
g49
sVrates
p220
g49
sVtactical-asset-allocation
p221
g121
sVarma
p222
Vgarch
p223
sVmoney-management
p224
Vquant-trading-strategies
p225
sVportfolio-selection
p226
Voptimization
p227
sVskewness
p228
NsVgarch
p229
g229
sVkalman
p230
Vcapm
p231
sVfundamentals
p232
g70
sVfunds
p233
NsVstochastic-processes
p234
g234
sVbenchmark
p235
Vbacktesting
p236
sVcovariance
p237
g19
sVrisk-models
p238
g49
sVvolume
p239
Voptions
p240
sVforward
p241
g241
sVcontinuous-time
p242
Vtime-series
p243
sVdelta
p244
Vvolatility
p245
sVinterest-rates
p246
g246
sVgeneral
p247
Vequities
p248
sVvaluation
p249
g248
sVreference-request
p250
g121
sVcointegration
p251
Vtime-series
p252
sVrisk-management
p253
g253
sVfixed-income
p254
g254
sVdefault
p255
Vprobability
p256
sVquant-trading-strategies
p257
g257
sVlocal-volatility
p258
g12
sVbinary-options
p259
Voptions
p260
sVinformation
p261
Vtrading
p262
sVoptimization
p263
g263
sVneural-networks
p264
g264
sVexpected-return
p265
g16
sVuntagged
p266
NsVdistribution
p267
g41
sVstochastic-volatility
p268
g67
sVhistory
p269
Vfx
p270
sVspx
p271
g193
sVfutures
p272
g272
sVrandom-variables
p273
Vtime-series
p274
sVcalculation
p275
Voptions
p276
sVdiversification
p277
g19
sVshort-selling
p278
Vequities
p279
sVyield-curve
p280
g280
sVmarket-making
p281
Voptions
p282
sVhardware
p283
NsVcurrency
p284
g16
sVorder-execution
p285
g285
sVposition-sizing
p286
g225
sVsimulations
p287
Vmonte-carlo
p288
sVaccounting
p289
Voptions
p290
sVfx
p291
g291
sVregression
p292
g292
sVinteractive-brokers
p293
Vprogramming
p294
sVfinance
p295
g164
sVlatency
p296
Vhigh-frequency
p297
sVelectronic-trading
p298
g88
sVrecovery
p299
g256
sVdelta-hedging
p300
Voptions
p301
sVcalibration
p302
g12
sVkelly-criterion
p303
Vquant-trading-strategies
p304
sVequities
p305
g305
sVblack-scholes
p306
g12
sVinvestment
p307
g49
sVacademia
p308
g282
sVmachine-learning
p309
g309
sVmathematics
p310
g102
sVparameter
p311
Vtime-series
p312
sVhistorical-data
p313
g70
sVinterpolation
p314
Vvolatility
p315
sVcredit-risk
p316
g185
sVstatistical-finance
p317
Vstatistics
p318
sVasset-pricing
p319
g319
sVconvertible-bond
p320
g123
sVhigh-frequency
p321
g321
sVmodels
p322
g12
sVquote
p323
Voptions
p324
sVfinancial-engineering
p325
g325
sVyahoo
p326
g70
sVdelta-neutral
p327
Voptions
p328
sVbeta
p329
g231
sVcva
p330
Vcredit
p331
sVbloomberg
p332
g70
sVfactor-models
p333
g199
sVcopula
p334
Vprobability
p335
sVdata
p336
g70
sVvalue-at-risk
p337
Vmonte-carlo
p338
sVmbs
p339
g248
sVestimation
p340
g127
sValgorithm
p341
g341
sVdatabase
p342
g342
sVmodern-portfolio-theory
p343
Vportfolio-management
p344
sVput-call-parity
p345
Voptions
p346
sVanalysis
p347
g70
sVoptions
p348
g348
sVcommodities
p349
Voptions
p350
sVinflation
p351
Vfixed-income
p352
sVgamma
p353
g119
sVcorrelation
p354
g19
sVorder-handling
p355
g188
sVquantitative
p356
g164
sVmacro-economics
p357
g105
sVmean
p358
g16
sVliquidity
p359
Voptions
p360
sVoption-strategies
p361
Voptions
p362
sVlog-returns
p363
g16
s.