(lp0
Vutility-theory
p1
aVhigh-frequency-estimators
p2
aVrisk-premium
p3
aVbanks
p4
aVapi
p5
aVtrading-systems
p6
aVno-arbitrage-theory
p7
aVlognormal
p8
aVtrade
p9
aVoption-pricing
p10
aVnasdaq
p11
aVrandom-matrix-theory
p12
aVdrawdown
p13
aVcds
p14
aVportfolio
p15
aVvisualization
p16
aVindicator
p17
aVmarket-impact
p18
aVbinomial-tree
p19
aVcorrelation-matrix
p20
aVkurtosis
p21
aVfix
p22
aVamerican-options
p23
aVpricing-formulae
p24
aVspread
p25
aVmatlab
p26
aVmean-variance
p27
aVimplied-volatility
p28
aVpca
p29
aVsde
p30
aVreturn
p31
aVrisk
p32
aVpython
p33
aVsharpe-ratio
p34
aVcoherent-risk-measure
p35
aVcapm
p36
aVasset-allocation
p37
aVfloating-rate
p38
aVquantlib
p39
aVperformance
p40
aVhedge
p41
aVasset-returns
p42
aVheston
p43
aVvolatility
p44
aVtick-data
p45
aVbacktesting
p46
aVdata-mining
p47
aVcme
p48
aVexcel
p49
aVyield
p50
aVitos-lemma
p51
aVmean-reversion
p52
aVhistory
p53
aVtime-series
p54
aVmartingale
p55
aVbond
p56
aVlimit-order-book
p57
aVnormal-distribution
p58
aVarbitrage
p59
aVanomalies
p60
aVreplication
p61
aVmarket-model
p62
aVhardware
p63
aVtesting
p64
aVbasket
p65
aVprediction
p66
aVbooks
p67
aVtrading
p68
aVpricing
p69
aVmarket-microstructure
p70
aVduration
p71
aVtechnicals
p72
aVrisk-neutral-measure
p73
aVeconometrics
p74
aVindex
p75
aVterm-structure
p76
aVswaps
p77
aVinvesting
p78
aVgreeks
p79
aVresearch
p80
aVlibor
p81
aVfx
p82
aVr
p83
aVtransaction-costs
p84
aVintraday
p85
aVpairs-trading
p86
aVembedded-options
p87
aVcovariance-matrix
p88
aVdifferential-equations
p89
aVprice
p90
aVmultivariate
p91
aVtheory
p92
aVrandom-walk
p93
aVexchange
p94
aVdividends
p95
aVmonte-carlo
p96
aVcovariance-estimation
p97
aVbroker
p98
aVportfolio-management
p99
aVvasicek
p100
aVrebalancing
p101
aVbrownian-motion
p102
aVmodeling
p103
aVleverage
p104
aVauto-correlation
p105
aVstandard-deviation
p106
aVexotics
p107
aVcareer
p108
aVmoving-average
p109
aVeconomics
p110
aVprogramming
p111
aVdependence
p112
aVperformanceanalytics
p113
aVstochastic-calculus
p114
aVcredit
p115
aVetf
p116
aVvariance
p117
aVestimation
p118
aVoptions
p119
aVcurve-fitting
p120
aVsoftware
p121
aVinsurance
p122
aValgorithmic-trading
p123
aVforecasting
p124
aVsoft-question
p125
aVprobability
p126
aVbasel
p127
aVperformance-evaluation
p128
aVstatistical-finance
p129
aVstationarity
p130
aVlearning
p131
aVvix
p132
aVmarket
p133
aVautomated-trading
p134
aVderivatives
p135
aVstatistics
p136
aVfactor-loading
p137
aVhedging
p138
aVquants
p139
aVhullwhite
p140
aVskew
p141
aVlocal-volatility
p142
aVnegative
p143
aVstrategy
p144
aVcredit-ratings
p145
aVreturns
p146
aVportfolio-optimization
p147
aVnumerical-methods
p148
aVbest-practices
p149
aVvar
p150
aVrates
p151
aVtactical-asset-allocation
p152
aVarma
p153
aVmoney-management
p154
aVportfolio-selection
p155
aVskewness
p156
aVgarch
p157
aVkalman
p158
aVfundamentals
p159
aVfunds
p160
aVstochastic-processes
p161
aVbenchmark
p162
aVcovariance
p163
aVrisk-models
p164
aVvolume
p165
aVforward
p166
aVcontinuous-time
p167
aVdelta
p168
aVinterest-rates
p169
aVgeneral
p170
aVvaluation
p171
aVreference-request
p172
aVcointegration
p173
aVrisk-management
p174
aVfixed-income
p175
aVdefault
p176
aVquant-trading-strategies
p177
aVdatabase
p178
aVbinary-options
p179
aVinformation
p180
aVoptimization
p181
aVneural-networks
p182
aVexpected-return
p183
aVuntagged
p184
aVdistribution
p185
aVstochastic-volatility
p186
aVcva
p187
aVspx
p188
aVfutures
p189
aVcalculation
p190
aVdiversification
p191
aVshort-selling
p192
aVyield-curve
p193
aVmarket-making
p194
aVrandom-variables
p195
aVcurrency
p196
aVorder-execution
p197
aVposition-sizing
p198
aVsimulations
p199
aVaccounting
p200
aVregression
p201
aVinteractive-brokers
p202
aVfinance
p203
aVlatency
p204
aVelectronic-trading
p205
aVrecovery
p206
aVdelta-hedging
p207
aVcalibration
p208
aVkelly-criterion
p209
aVequities
p210
aVblack-scholes
p211
aVinvestment
p212
aVacademia
p213
aVmarket-data
p214
aVmathematics
p215
aVparameter
p216
aVhistorical-data
p217
aVinterpolation
p218
aVcredit-risk
p219
aVvolatiliy-smile
p220
aVasset-pricing
p221
aVconvertible-bond
p222
aVhigh-frequency
p223
aVmodels
p224
aVquote
p225
aVfinancial-engineering
p226
aVyahoo
p227
aVdelta-neutral
p228
aVbeta
p229
aVbloomberg
p230
aVfactor-models
p231
aVcopula
p232
aVdata
p233
aVvalue-at-risk
p234
aVmbs
p235
aValgorithm
p236
aVmachine-learning
p237
aVmodern-portfolio-theory
p238
aVput-call-parity
p239
aVanalysis
p240
aVorder
p241
aVcommodities
p242
aVinflation
p243
aVgamma
p244
aVcorrelation
p245
aVorder-handling
p246
aVquantitative
p247
aVmacro-economics
p248
aVmean
p249
aVliquidity
p250
aVoption-strategies
p251
aVlog-returns
p252
a.