(dp0
Vh.264
p1
Vandroid
p2
sVscreen-resolution
p3
Vandroid
p4
sVuserscripts
p5
Vjavascript
p6
sVprefix
p7
Vc++
p8
sVtcp-ip
p9
Vjava
p10
sVdropbox-api
p11
NsVtypeerror
p12
Vpython
p13
sVxts
p14
Vr
p15
sVwindows-ce
p16
NsVcreatejs
p17
Vjavascript
p18
sVopenmpi
p19
Vc
p20
sVonsubmit
p21
Vjavascript
p22
sVjquery-callback
p23
Vjquery
p24
sVfilenotfoundexception
p25
Vjava
p26
sVhttp-authentication
p27
Vphp
p28
sVrhomobile
p29
NsVlegacy-code
p30
Vjava
p31
sVrabbitmq
p32
NsVlistview
p33
Vandroid
p34
sVcufon
p35
Vjavascript
p36
sVdynamics-crm
p37
NsVmsysgit
p38
Vgit
p39
sVbittorrent
p40
Vpython
p41
sVdbcontext
p42
NsVdevelopment-environment
p43
Vruby-on-rails
p44
sVsolrnet
p45
Vsolr
p46
sVwindow.location
p47
Vjavascript
p48
sVtcpclient
p49
NsVwidget
p50
Vandroid
p51
sVcustom-adapter
p52
Vandroid
p53
sVviewcontroller
p54
Vios
p55
sVjasmine
p56
Vjavascript
p57
sVsunspot
p58
Vruby-on-rails
p59
sVfacebook-opengraph
p60
NsVtravis-ci
p61
Vjenkins
p62
sVcurve-fitting
p63
Vmatlab
p64
sVjquery-ajax
p65
Vjavascript
p66
sVprojection
p67
Vopengl
p68
sVclassification
p69
g69
sVcontact-form
p70
Vphp
p71
sVreplace
p72
Vphp
p73
sVsubstr
p74
Vphp
p75
sVunix
p76
g76
sVsilverlight-5.0
p77
NsValter-table
p78
Vmysql
p79
sVfstream
p80
Vc++
p81
sVdata-warehouse
p82
g82
sVmusic
p83
Vandroid
p84
sVdns
p85
g85
sVtokenize
p86
Vjava
p87
sVmonomac
p88
NsVjmx
p89
Vjava
p90
sVjms
p91
g91
sVkineticjs
p92
Vjavascript
p93
sVjmf
p94
Vjava
p95
sVdatanucleus
p96
Vpython
p97
sVuiprogressview
p98
Vios
p99
sVspring-jms
p100
Vjms
p101
sVdroppable
p102
Vjquery
p103
sVsmtp
p104
g104
sVtitanium
p105
Vandroid
p106
sVfibonacci
p107
Vjava
p108
sVsignal-processing
p109
g109
sVabsolute
p110
Vcss
p111
sVmotion
p112
Vandroid
p113
sVsybase-ase
p114
Vsql
p115
sVgeojson
p116
Vjavascript
p117
sVavfoundation
p118
Vios
p119
sVplayback
p120
Vaudio
p121
sVactionscript
p122
g122
sVremote-access
p123
NsVnhibernate
p124
NsVwinsock
p125
Vc++
p126
sViboutlet
p127
Vios
p128
sVabstraction
p129
NsVlonglistselector
p130
NsVsidekiq
p131
Vruby-on-rails
p132
sVdiagram
p133
Vjava
p134
sVplyr
p135
Vr
p136
sViis-7
p137
Vasp.net
p138
sViis-6
p139
Vasp.net
p140
sViis-8
p141
Viis
p142
sVtypes
p143
NsVfsockopen
p144
Vphp
p145
sVdijit
p146
Vjavascript
p147
sVwebfonts
p148
Vcss
p149
sValias
p150
Vsql
p151
sVvideo-capture
p152
Vandroid
p153
sVjenkins-plugins
p154
Vjenkins
p155
sVpresentmodalviewcontrolle
p156
Vios
p157
sVjquery-tabs
p158
Vjquery
p159
sVsendgrid
p160
Vphp
p161
sVbit-fields
p162
Vc
p163
sVrestriction
p164
Vphp
p165
sVxlib
p166
Vlinux
p167
sVbootstrapper
p168
NsVhtml-table
p169
Vhtml
p170
sVforce-layout
p171
Vjavascript
p172
sVspring-data-jpa
p173
Vspring
p174
sVconcurrency
p175
g175
sVlistactivity
p176
Vandroid
p177
sVuuid
p178
Vjava
p179
sVandroid-ndk
p180
Vandroid
p181
sVdynamic-language-runtime
p182
NsVhidden
p183
Vjquery
p184
sVautosuggest
p185
Vjquery
p186
sVslicing
p187
Vpython
p188
sVcloud-hosting
p189
Vcloud
p190
sVeffects
p191
Vjquery
p192
sVmpmovieplayer
p193
Vios
p194
sVinterrupt
p195
g20
sVmultidimensional
p196
Vphp
p197
sVrepaint
p198
Vjava
p199
sVselenium-ide
p200
Vselenium
p201
sVria-services
p202
NsVtimeout
p203
Vphp
p204
sVgoogle-analytics
p205
g205
sVcss-position
p206
Vcss
p207
sVphoto-gallery
p208
Vjquery
p209
sVazure-storage-tables
p210
NsVmdi
p211
NsVdjango-authentication
p212
Vdjango
p213
sVfunctional-programming
p214
g214
sVandroid-manifest
p215
Vandroid
p216
sVmdx
p217
NsVmongoid
p218
Vruby-on-rails
p219
sVgreatest-n-per-group
p220
Vsql
p221
sVoverwrite
p222
Vjava
p223
sVdst
p224
NsVsms
p225
Vandroid
p226
sVsmo
p227
Vsql
p228
sVdsl
p229
Vruby-on-rails
p230
sVsml
p231
NsVdatacontractserializer
p232
NsVado.net
p233
NsVfoundation
p234
g234
sVgunicorn
p235
Vdjango
p236
sVpaypal-ipn
p237
Vphp
p238
sVmd5
p239
g230
sVxargs
p240
Vbash
p241
sVvisualvm
p242
Vjava
p243
sVatl
p244
Vc++
p245
sVjavafx
p246
Vjava
p247
sVwindows-mobile
p248
NsVmingw
p249
Vc++
p250
sVformview
p251
Vasp.net
p252
sVcustomization
p253
Vandroid
p254
sVxib
p255
Vios
p256
sVsmartgwt
p257
Vgwt
p258
sVservice
p259
Vandroid
p260
sVddms
p261
Vandroid
p262
sVtsql
p263
g228
sVwsdl2java
p264
Vjava
p265
sVsqlcmd
p266
g228
sVmaster
p267
Vgit
p268
sVwindbg
p269
Vc++
p270
sVcdata
p271
Vxml
p272
sVedmx
p273
NsVandroid-drawable
p274
Vandroid
p275
sVtree
p276
Vjava
p277
sVdynamics-crm-4
p278
NsVfile-upload
p279
Vphp
p280
sVhierarchical-data
p281
Vsql
p282
sVtreeview
p283
NsVnopcommerce
p284
NsVbuild-automation
p285
Vjava
p286
sVdozer
p287
Vjava
p288
sVwebsocket
p289
Vjavascript
p290
sVfilemaker
p291
Vphp
p292
sVincrement
p293
Vjavascript
p294
sVcompareto
p295
Vjava
p296
sVblazeds
p297
Vflash
p298
sVoffice-interop
p299
NsVmkmapview
p300
Vios
p301
sVthree.js
p302
Vjavascript
p303
sVtransactions
p304
Vjava
p305
sVobject
p306
Vjavascript
p307
sVmetrics
p308
Vjava
p309
sVicloud
p310
Vios
p311
sVvarargs
p312
Vjava
p313
sVasp.net-mvc
p314
NsVangular-ui-router
p315
Vangularjs
p316
sVplayframework-1.x
p317
Vjava
p318
sVfabricjs
p319
Vjavascript
p320
sVjson-decode
p321
Vjson
p322
sVcaml
p323
Vsharepoint
p324
sVlanguage-agnostic
p325
Valgorithm
p326
sViphone-web
p327
g194
sVsoundpool
p328
Vandroid
p329
sVhibernate-validator
p330
Vjava
p331
sVautoit
p332
NsVunmanaged
p333
NsVgitignore
p334
Vgit
p335
sVlayout
p336
Vandroid
p337
sVmenu
p338
Vcss
p339
sVcriteria-api
p340
Vjava
p341
sVuser-agent
p342
Vphp
p343
sVform-for
p344
Vruby-on-rails
p345
sVqwidget
p346
Vc++
p347
sVwebrtc
p348
Vjavascript
p349
sVqgraphicsview
p350
g347
sVshortest-path
p351
Valgorithm
p352
sVpass-by-reference
p353
Vc++
p354
sVsendmessage
p355
NsVxmlreader
p356
Vxml
p357
sVsymfony-forms
p358
Vphp
p359
sVrelease
p360
Vobjective-c
p361
sVrestkit-0.20
p362
Vios
p363
sVjaxb2
p364
Vjava
p365
sVresult
p366
Vphp
p367
sVdelphi
p368
g368
sVstackoverflowexception
p369
NsVwikipedia
p370
Vphp
p371
sVclass-design
p372
NsVdjango-testing
p373
Vdjango
p374
sVdata.table
p375
g15
sVspring-integration
p376
Vspring
p377
sVirb
p378
g230
sVirc
p379
Vpython
p380
sVextend
p381
Vjavascript
p382
sVwcf-security
p383
Vwcf
p384
sVmultipartform-data
p385
Vjava
p386
sVjquery-validate
p387
Vjquery
p388
sVmobile-website
p389
Vandroid
p390
sVconstexpr
p391
Vc++
p392
sVgnu-make
p393
NsVbundling-and-minification
p394
NsVcarbon
p395
Vcocoa
p396
sVrtti
p397
Vdelphi
p398
sVsd-card
p399
Vandroid
p400
sVtriggers
p401
Vsql
p402
sVdalvik
p403
Vandroid
p404
sVadapter
p405
Vandroid
p406
sVsyntax-highlighting
p407
NsVlogic
p408
Vphp
p409
sVglobal-variables
p410
Vjavascript
p411
sVlogin
p412
Vphp
p413
sVinnerhtml
p414
Vjavascript
p415
sVgxt
p416
Vgwt
p417
sVduplicate-removal
p418
Vsql
p419
sVkohana
p420
Vphp
p421
sVdiff
p422
Vgit
p423
sVbilling
p424
Vandroid
p425
sVunion
p426
Vsql
p427
sVdicom
p428
NsVextraction
p429
Vpython
p430
sVdreamweaver
p431
g431
sVpartial-classes
p432
NsVsencha-touch
p433
NsVautocompletetextview
p434
Vandroid
p435
sVhardware-acceleration
p436
Vandroid
p437
sVtelnet
p438
Vjava
p439
sVprimitive-types
p440
Vjava
p441
sVlift
p442
Vscala
p443
sVweb-hosting
p444
Vhosting
p445
sVrobolectric
p446
Vandroid
p447
sVosx-leopard
p448
g396
sVdatatable
p449
NsVboost-bind
p450
Vc++
p451
sVdecisiontrees
p452
Vmachine-learning
p453
sVgeoip
p454
Vphp
p455
sVtyposcript
p456
NsVjplayer
p457
Vjquery
p458
sVvisual-studio-2013
p459
NsVvisual-studio-2012
p460
NsVvisual-studio-2010
p461
NsVdata-structures
p462
g462
sVtoolkit
p463
Vwpf
p464
sVplayer
p465
g2
sVognl
p466
Vjava
p467
sVlinechart
p468
Vjavascript
p469
sVjquery-live
p470
Vjquery
p471
sVlinq-to-nhibernate
p472
NsVsplit
p473
Vjava
p474
sVmaven-release-plugin
p475
Vmaven
p476
sVtemplates
p477
Vc++
p478
sVvectorization
p479
Vmatlab
p480
sVfilenames
p481
Vphp
p482
sVternary-operator
p483
Vphp
p484
sVwebstorm
p485
Vjavascript
p486
sVgzip
p487
NsVsettimeout
p488
Vjavascript
p489
sVbing-api
p490
NsVdependency-properties
p491
Vwpf
p492
sVopengl-3
p493
Vopengl
p494
sVgarbage-collection
p495
Vjava
p496
sVms-access-2007
p497
Vms-access
p498
sVxmlhttprequest
p499
Vjavascript
p500
sVms-access-2003
p501
Vms-access
p502
sVquartz-scheduler
p503
Vjava
p504
sVfortran
p505
g505
sVcollections
p506
Vjava
p507
sVnssortdescriptor
p508
Vios
p509
sVservicemix
p510
Vjava
p511
sVbnf
p512
Vjava
p513
sVeasymock
p514
Vjava
p515
sVfind-and-replace
p516
g73
sVshadow
p517
Vcss
p518
sVunique
p519
Vmysql
p520
sVcase-sensitive
p521
Vmysql
p522
sVapp-store
p523
Vios
p524
sVmemory-leaks
p525
Vmemory-management
p526
sVui-automation
p527
NsVfancybox
p528
Vjquery
p529
sVole
p530
NsVonchange
p531
Vjavascript
p532
sVxmlserializer
p533
NsVfop
p534
Vxslt
p535
sVmonogame
p536
NsVjavax.imageio
p537
Vjava
p538
sVandroid-studio
p539
Vandroid
p540
sVsubclass
p541
Vjava
p542
sVuml
p543
g134
sVactivemodel
p544
Vruby-on-rails
p545
sVbarcode
p546
Vandroid
p547
sVsubfolder
p548
NsVforeign-keys
p549
Vmysql
p550
sVjoomla
p551
Vphp
p552
sVwordpress-plugin
p553
Vwordpress
p554
sVsoa
p555
g555
sVvlookup
p556
NsVmocha
p557
g557
sVemgu
p558
NsVwrap
p559
Vjquery
p560
sVdirect3d
p561
Vc++
p562
sVfabric
p563
Vpython
p564
sVcombinatorics
p565
g565
sVsupport
p566
Vandroid
p567
sVbootstrap-typeahead
p568
Vcss
p569
sVcss-box-shadow
p570
Vcss
p571
sVwidth
p572
Vcss
p573
sVrebol
p574
NsVwordpress
p575
g575
sVrcpp
p576
g15
sVpassport
p577
Vnode.js
p578
sVfpga
p579
g579
sVlatex
p580
g136
sVsql-loader
p581
Voracle
p582
sVpaypal
p583
g238
sVnotifications
p584
Vandroid
p585
sVeclipse-pdt
p586
Veclipse
p587
sVamazon-simpledb
p588
Vamazon-web-services
p589
sVarrays
p590
g197
sVmongomapper
p591
Vmongodb
p592
sVdevices
p593
Vandroid
p594
sVaccess-vba
p595
Vms-access
p596
sVtweepy
p597
Vpython
p598
sVgoogle-maps-markers
p599
Vjavascript
p600
sVpowershell
p601
g601
sVyoutube-api
p602
NsVpassenger
p603
Vruby-on-rails
p604
sVviewmodel
p605
NsVtimezone
p606
NsVweb-frameworks
p607
Vpython
p608
sVlogical-operators
p609
Vphp
p610
sVuipickerview
p611
Vios
p612
sVkeyup
p613
Vjquery
p614
sVactor
p615
Vscala
p616
sVpacket-capture
p617
NsVjenkins
p618
g618
sVandroid-calendar
p619
Vandroid
p620
sVmodels
p621
Vdjango
p622
sVasterisk
p623
NsVyahoo
p624
Vphp
p625
sVobjectify
p626
g97
sVrhino-mocks
p627
NsVtablecellrenderer
p628
Vswing
p629
sVsetinterval
p630
Vjavascript
p631
sVcontacts
p632
Vandroid
p633
sVtime
p634
Vphp
p635
sVpush
p636
Vgit
p637
sVcodeblocks
p638
Vc++
p639
sVkendo-mobile
p640
NsVosx
p641
g396
sVjtextarea
p642
Vjava
p643
sVswitch-statement
p644
Vjava
p645
sVsolver
p646
NsVtablerow
p647
Vandroid
p648
sVmultiprocessing
p649
Vpython
p650
sVzebra-printers
p651
NsVedittext
p652
Vandroid
p653
sVvisual-studio-extensions
p654
NsVprediction
p655
Vr
p656
sVsign
p657
Vandroid
p658
sVrestkit
p659
g363
sVrspec2
p660
Vruby-on-rails
p661
sVdjango-queryset
p662
Vdjango
p663
sVwindows-installer
p664
NsVgoogle-plus-one
p665
Vandroid
p666
sVbadge
p667
Vios
p668
sVopencart
p669
Vphp
p670
sVmergesort
p671
Valgorithm
p672
sVwindows-8
p673
NsVwindows-7
p674
NsVvb.net
p675
Vasp.net
p676
sVqueue
p677
Vjava
p678
sVobjective-c-2.0
p679
Vobjective-c
p680
sVbreadcrumbs
p681
Vphp
p682
sVipc
p683
g20
sVipa
p684
Vios
p685
sVandroid-widget
p686
Vandroid
p687
sVjeditable
p688
Vjquery
p689
sVcode-access-security
p690
V.net
p691
sVbookmarks
p692
Vjavascript
p693
sVintellij-idea
p694
Vjava
p695
sVcallstack
p696
Vc++
p697
sVwicket
p698
Vjava
p699
sVhttpwebrequest
p700
NsVscope
p701
Vjavascript
p702
sVcommonsware
p703
Vandroid
p704
sVstarling-framework
p705
g298
sVlowercase
p706
NsVassociative-array
p707
Vphp
p708
sVcurrency
p709
Vphp
p710
sVentity-framework-4.3
p711
NsVentity-framework-4.1
p712
NsVninject
p713
NsVprinting
p714
NsVtext-mining
p715
g715
sVuse-case
p716
g134
sVprogressdialog
p717
Vandroid
p718
sVslidingmenu
p719
Vandroid
p720
sVandroid-sensors
p721
Vandroid
p722
sVuiimagepickercontroller
p723
Vios
p724
sVmonitoring
p725
Vjava
p726
sVthreadpool
p727
Vmultithreading
p728
sVsavon
p729
g230
sVfps
p730
Vandroid
p731
sVload-data-infile
p732
Vmysql
p733
sVxhtml
p734
Vhtml
p735
sVuser-permissions
p736
Vphp
p737
sVexplorer
p738
Vwindows
p739
sVblobstore
p740
g97
sVioctl
p741
Vlinux
p742
sVdate
p743
g635
sVactionmailer
p744
Vruby-on-rails
p745
sVdata
p746
Vphp
p747
sVgoogle-apps
p748
NsVcfml
p749
NsVhtml-lists
p750
Vcss
p751
sVstdio
p752
g20
sVstdin
p753
g20
sVprototypal-inheritance
p754
Vjavascript
p755
sVsandbox
p756
g396
sVsh
p757
Vbash
p758
sVlong-integer
p759
Vjava
p760
sVtty
p761
Vlinux
p762
sVjquery-dialog
p763
Vjquery
p764
sVwebpage
p765
Vhtml
p766
sVcloudbees
p767
Vjenkins
p768
sVpower-management
p769
Vandroid
p770
sVproguard
p771
Vandroid
p772
sVaccordion
p773
Vjquery
p774
sVasp.net-membership
p775
Vasp.net
p776
sVmethodology
p777
Vagile
p778
sVjit
p779
NsVcache-control
p780
Vphp
p781
sVchaining
p782
Vjquery
p783
sVstringbuilder
p784
Vjava
p785
sVrecords
p786
Vmysql
p787
sVmacvim
p788
NsVlwuit
p789
Vjava
p790
sVdate-format
p791
Vjava
p792
sVretrieve
p793
Vphp
p794
sVc++
p795
g795
sVcanvas
p796
Vjavascript
p797
sVrounding
p798
NsVmahout
p799
g799
sVinternet
p800
Vandroid
p801
sVformula
p802
NsVlink-to
p803
Vruby-on-rails
p804
sVhibernate
p805
g805
sVmime
p806
g161
sVpostsharp
p807
NsVcss-border-radius
p808
Vcss
p809
sVbootloader
p810
Vassembly
p811
sVuser-input
p812
Vjava
p813
sVocaml
p814
g814
sVseparator
p815
Vjava
p816
sVroutes
p817
Vruby-on-rails
p818
sVrouter
p819
Vjava
p820
sVsaving
p821
Vandroid
p822
sVvideo.js
p823
Vjavascript
p824
sVnested
p825
Vpython
p826
sVitextsharp
p827
NsVopen
p828
Vjava
p829
sVuniqueidentifier
p830
g228
sVnaudio
p831
NsVflask-sqlalchemy
p832
Vpython
p833
sVfms
p834
Vflash
p835
sVparams
p836
Vruby-on-rails
p837
sVconstants
p838
Vphp
p839
sVbits
p840
g20
sVprogress-bar
p841
Vandroid
p842
sVaddeventlistener
p843
Vjavascript
p844
sVcrash-reports
p845
Vios
p846
sVpadding
p847
Vcss
p848
sVuiwindow
p849
Vios
p850
sVplsqldeveloper
p851
Voracle
p852
sVflashdevelop
p853
g298
sVtypography
p854
Vcss
p855
sVlucene
p856
g856
sVfuture
p857
Vscala
p858
sVlinux-kernel
p859
Vlinux
p860
sVsax
p861
Vxml
p862
sVc++0x
p863
Vc++
p864
sVsap
p865
g865
sVfacebook-graph-api
p866
NsVsilverlight-4.0
p867
NsVuipopovercontroller
p868
Vios
p869
sVbackbone-views
p870
Vbackbone.js
p871
sVtcpdf
p872
Vphp
p873
sVzoo
p874
g136
sVbackwards-compatibility
p875
Vandroid
p876
sVabsolute-path
p877
Vphp
p878
sVdestroy
p879
Vruby-on-rails
p880
sVlocal-variables
p881
Vjava
p882
sVbcrypt
p883
Vphp
p884
sVbuffer
p885
g163
sVpager
p886
Vjquery
p887
sVgoogle-places-api
p888
g600
sVtextarea
p889
Vjavascript
p890
sVc++-cx
p891
NsVaverage
p892
Vsql
p893
sVdrive
p894
Vwindows
p895
sVtestcase
p896
Vunit-testing
p897
sVactionscript-2
p898
Vflash
p899
sVsalt
p900
g230
sVhmac
p901
Vjava
p902
sVwindow-resize
p903
Vjquery
p904
sVlotus
p905
NsVsynchronous
p906
NsVdatetime
p907
NsVprogramming-languages
p908
g908
sVbytebuffer
p909
Vjava
p910
sVxml
p911
g911
sVpython-3.2
p912
Vpython
p913
sVandroid-sdk-2.2
p914
Vandroid
p915
sVandroid-sdk-2.3
p916
Vandroid
p917
sVstreet-address
p918
g600
sVuiswitch
p919
Vios
p920
sVappharbor
p921
NsVrounded-corners
p922
Vcss
p923
sVuitextview
p924
Vios
p925
sVzipfile
p926
Vpython
p927
sVandroid-styles
p928
Vandroid
p929
sVinfowindow
p930
g600
sVandroid-layout
p931
Vandroid
p932
sVsettings
p933
NsVissue-tracking
p934
NsVtika
p935
Vjava
p936
sVwhere
p937
Vmysql
p938
sVinstallshield
p939
NsVdatatables
p940
Vjquery
p941
sVsocket.io
p942
Vnode.js
p943
sVjavabeans
p944
g944
sVserver-side
p945
Vjavascript
p946
sVowin
p947
NsVsmooth-scrolling
p948
Vjquery
p949
sVjobs
p950
Vjava
p951
sVconditional-statements
p952
Vphp
p953
sVscreen
p954
Vandroid
p955
sVserialization
p956
NsVspark
p957
g298
sVkendo-asp.net-mvc
p958
NsVrichfaces
p959
Vjsf
p960
sVexchange-server
p961
NsVwindows-applications
p962
NsVinfopath2010
p963
Vsharepoint
p964
sVbufferedreader
p965
Vjava
p966
sVmkannotationview
p967
Vios
p968
sVmodal-dialog
p969
Vjquery
p970
sVnsarraycontroller
p971
Vcocoa
p972
sVexpression
p973
NsVselenium-webdriver
p974
Vselenium
p975
sVworkflow-foundation-4
p976
NsVurl-scheme
p977
Vios
p978
sVsystem-verilog
p979
Vverilog
p980
sVsearch-engine
p981
Vsearch
p982
sVspring-data
p983
Vspring
p984
sVtwig
p985
g359
sVmessagebox
p986
NsVaccelerometer
p987
Vandroid
p988
sVstretch
p989
Vcss
p990
sVprototype
p991
Vjavascript
p992
sVgrid-layout
p993
Vjava
p994
sVlibgdx
p995
Vjava
p996
sVgrayscale
p997
Vphp
p998
sVantivirus
p999
NsVphotos
p1000
NsVhashtag
p1001
Vjquery
p1002
sVvariable-assignment
p1003
Vc++
p1004
sVbonjour
p1005
Vios
p1006
sVblowfish
p1007
Vjava
p1008
sVroleprovider
p1009
Vasp.net
p1010
sValarmmanager
p1011
Vandroid
p1012
sVparse.com
p1013
Vios
p1014
sVgoogle-closure
p1015
Vjavascript
p1016
sVlayout-inflater
p1017
Vandroid
p1018
sVoledb
p1019
NsVblas
p1020
NsVzend-studio
p1021
Vphp
p1022
sVconcatenation
p1023
g474
sVcoordinate-systems
p1024
Vandroid
p1025
sVcobol
p1026
NsVabstract-syntax-tree
p1027
Vjava
p1028
sVascii
p1029
Vpython
p1030
sVivy
p1031
Vant
p1032
sVsmalltalk
p1033
NsVbinary
p1034
Vc++
p1035
sVurl-encoding
p1036
Vphp
p1037
sVhostname
p1038
Vjava
p1039
sVcreateprocess
p1040
Vc++
p1041
sVsubdomain
p1042
NsVparcelable
p1043
Vandroid
p1044
sVrfid
p1045
Vandroid
p1046
sVallocation
p1047
Vc++
p1048
sVopenldap
p1049
Vldap
p1050
sVvirtual-machine
p1051
Vvirtualbox
p1052
sVextern
p1053
Vc++
p1054
sVwpf
p1055
g1055
sVlive-streaming
p1056
Vandroid
p1057
sVtracking
p1058
Vgoogle-analytics
p1059
sVundefined
p1060
Vjavascript
p1061
sVdata-modeling
p1062
g1062
sVworklight
p1063
Vandroid
p1064
sVdimension
p1065
NsVresx
p1066
NsVnosql
p1067
g1067
sVrest
p1068
g1068
sVsitecore6
p1069
NsVgdb
p1070
g270
sVjshint
p1071
Vjavascript
p1072
sVgdi
p1073
Vc++
p1074
sVgreasemonkey
p1075
Vjavascript
p1076
sVgenerator
p1077
Vpython
p1078
sVruby-on-rails
p1079
g1079
sVdjango-nonrel
p1080
Vdjango
p1081
sVd3.js
p1082
g172
sVadsense
p1083
Vjavascript
p1084
sVstopwatch
p1085
NsVsprockets
p1086
Vruby-on-rails
p1087
sVbitmapdata
p1088
g298
sVrubygems
p1089
g230
sVlibc
p1090
Vc
p1091
sVdart
p1092
NsVgestures
p1093
Vandroid
p1094
sVtraffic
p1095
Vandroid
p1096
sVpreference
p1097
Vandroid
p1098
sVenums
p1099
Vjava
p1100
sVaspectj
p1101
Vjava
p1102
sVparent-child
p1103
Vjquery
p1104
sVintel
p1105
Vassembly
p1106
sVstdmap
p1107
Vc++
p1108
sVjquery-ui-dialog
p1109
Vjquery
p1110
sVgrouping
p1111
Vsql
p1112
sVruntimeexception
p1113
Vandroid
p1114
sVconditional
p1115
Vphp
p1116
sVregex-negation
p1117
g73
sVshadowbox
p1118
Vjquery
p1119
sVprivate-members
p1120
Vc++
p1121
sVdimensions
p1122
Vandroid
p1123
sVexif
p1124
Vphp
p1125
sVregular-language
p1126
g73
sVstring-literals
p1127
Vc++
p1128
sVmanaged-c++
p1129
Vc++
p1130
sVexit
p1131
Vandroid
p1132
sVddl
p1133
Vsql
p1134
sVarrow
p1135
Vcss
p1136
sVruby-2.0
p1137
g230
sVqtip2
p1138
Vjquery
p1139
sVisset
p1140
Vphp
p1141
sVpackage
p1142
Vjava
p1143
sVacl
p1144
Vphp
p1145
sVacs
p1146
NsVpermalinks
p1147
Vwordpress
p1148
sVautotools
p1149
NsVcontent-type
p1150
Vphp
p1151
sVrelativelayout
p1152
Vandroid
p1153
sVimage
p1154
g998
sVstringstream
p1155
Vc++
p1156
sVpivot
p1157
Vsql
p1158
sVsencha-touch-2.1
p1159
NsVmdm
p1160
Vios
p1161
sVhex
p1162
Vjava
p1163
sVemacs
p1164
NsVuiwebview
p1165
Vios
p1166
sVseries
p1167
g469
sVspider
p1168
Vpython
p1169
sVlazy-evaluation
p1170
Vhaskell
p1171
sVandroid-asynctask
p1172
Vandroid
p1173
sVtaskbar
p1174
NsVuiimage
p1175
Vios
p1176
sVutf-16
p1177
Vphp
p1178
sVopenxml
p1179
NsVviewport
p1180
Vcss
p1181
sVpull
p1182
Vgit
p1183
sVwindows-phone-7.1
p1184
NsVcastle-activerecord
p1185
NsVviewpagerindicator
p1186
Vandroid
p1187
sVgraph-theory
p1188
Valgorithm
p1189
sVviewdidload
p1190
Vios
p1191
sVdelphi-7
p1192
Vdelphi
p1193
sVdelphi-5
p1194
Vdelphi
p1195
sVmigrate
p1196
Vruby-on-rails
p1197
sVvirtualhost
p1198
Vapache
p1199
sVnagios
p1200
g1200
sVcryptoapi
p1201
Vcryptography
p1202
sVobjective-c
p1203
g1203
sVquickbooks
p1204
NsVajaxcontroltoolkit
p1205
Vasp.net
p1206
sVsimple-html-dom
p1207
Vphp
p1208
sVspatial
p1209
g15
sVnomethoderror
p1210
Vruby-on-rails
p1211
sVopenid
p1212
Vphp
p1213
sVrichtextbox
p1214
NsVautoresize
p1215
Vios
p1216
sVrpy2
p1217
Vpython
p1218
sVwxwidgets
p1219
Vc++
p1220
sVmasm
p1221
Vassembly
p1222
sVmask
p1223
Vjquery
p1224
sVraphael
p1225
Vjavascript
p1226
sVcpu
p1227
Vjava
p1228
sVstrtotime
p1229
Vphp
p1230
sVscp
p1231
Vssh
p1232
sVmessage-driven-bean
p1233
Vjms
p1234
sVdatabase-backups
p1235
Vmysql
p1236
sVwindows-mobile-6.5
p1237
NsVtk
p1238
NsVsympy
p1239
Vpython
p1240
sVbasic-authentication
p1241
g28
sVjava-me
p1242
g790
sVcheckin
p1243
NsVresults
p1244
Vphp
p1245
sVgfortran
p1246
Vfortran
p1247
sVcondition
p1248
Vphp
p1249
sViphone-4
p1250
g194
sViphone-5
p1251
Vios
p1252
sVt4
p1253
NsVmicrosoft-sync-framework
p1254
NsVtoggle
p1255
Vjquery
p1256
sVsails.js
p1257
Vnode.js
p1258
sVpostmessage
p1259
Vjavascript
p1260
sVgridview
p1261
Vasp.net
p1262
sVbuild-process
p1263
g286
sVsync
p1264
Vandroid
p1265
sVqml
p1266
g347
sVomniauth
p1267
Vruby-on-rails
p1268
sVschema.org
p1269
NsVlinear
p1270
Vr
p1271
sVxor
p1272
g1008
sVclock
p1273
g635
sVinline-assembly
p1274
Vassembly
p1275
sVhomescreen
p1276
Vandroid
p1277
sVescaping
p1278
Vphp
p1279
sVobjectcontext
p1280
NsVorg-mode
p1281
NsVsql-insert
p1282
Vsql
p1283
sVlegend
p1284
g656
sVsubview
p1285
g194
sVemulator
p1286
Vandroid
p1287
sVsocial
p1288
NsVaction
p1289
Vjava
p1290
sVtesseract
p1291
NsVopenfire
p1292
Vandroid
p1293
sVtmux
p1294
NsVvim
p1295
NsVselect
p1296
Vmysql
p1297
sVesri
p1298
Vpython
p1299
sVoracle-apex
p1300
Voracle
p1301
sVexecutable
p1302
Vjava
p1303
sVfoxpro
p1304
NsVpreloader
p1305
Vjquery
p1306
sVplayframework-2.0
p1307
g318
sVplayframework-2.1
p1308
g318
sVplayframework-2.2
p1309
g318
sVrhel
p1310
Vlinux
p1311
sVtestunit
p1312
g230
sVasyncsocket
p1313
g10
sVgsm
p1314
g226
sVbxslider
p1315
Vjquery
p1316
sVappdomain
p1317
NsVwebkit
p1318
Vcss
p1319
sVfancybox-2
p1320
Vjquery
p1321
sVendpoint
p1322
Vwcf
p1323
sVsql-azure
p1324
NsVautocomplete
p1325
Vjquery
p1326
sVazure-web-roles
p1327
NsVuiactivityviewcontroller
p1328
Vios
p1329
sVprompt
p1330
Vjavascript
p1331
sVscan
p1332
Vjava
p1333
sVthread-sleep
p1334
Vjava
p1335
sVvisual-studio-debugging
p1336
g270
sVcllocationmanager
p1337
Vios
p1338
sVtapestry
p1339
Vjava
p1340
sVaxis
p1341
Vjava
p1342
sVgit-commit
p1343
Vgit
p1344
sVaxis2
p1345
Vjava
p1346
sVmachine-learning
p1347
g1347
sVresultset
p1348
Vjava
p1349
sVmapping
p1350
Vjava
p1351
sVxilinx
p1352
g1352
sVbioinformatics
p1353
g1353
sVfreepascal
p1354
Vdelphi
p1355
sVlifecycle
p1356
Vandroid
p1357
sVargparse
p1358
Vpython
p1359
sVappcelerator-mobile
p1360
g106
sVgithub
p1361
Vgit
p1362
sVparameterized
p1363
Vjava
p1364
sVdjango
p1365
g1365
sVnvidia
p1366
Vc++
p1367
sVcheckbox
p1368
Vjquery
p1369
sVinstaller
p1370
NsVstreamwriter
p1371
NsVexit-code
p1372
Vbash
p1373
sVstackpanel
p1374
Vwpf
p1375
sVdynamic-linq
p1376
Vlinq
p1377
sVinternet-explorer
p1378
Vjavascript
p1379
sVbuffering
p1380
Vphp
p1381
sVassemblies
p1382
V.net
p1383
sVgitlab
p1384
Vgit
p1385
sVhotkeys
p1386
NsVgradle
p1387
Vandroid
p1388
sVasp.net-2.0
p1389
Vasp.net
p1390
sVwindows-phone
p1391
NsVgpu-programming
p1392
g1367
sVselectbox
p1393
Vjquery
p1394
sVbluej
p1395
Vjava
p1396
sVoperator-precedence
p1397
g1091
sVwindows-server
p1398
g1398
sVqr-code
p1399
Vandroid
p1400
sVreduce
p1401
Vhadoop
p1402
sVcrontab
p1403
Vcron
p1404
sVexpandablelistview
p1405
Vandroid
p1406
sVcontent-management-system
p1407
Vphp
p1408
sVpyinstaller
p1409
Vpython
p1410
sVdistributed-transactions
p1411
g305
sVscribe
p1412
Vjava
p1413
sVftp
p1414
g1414
sVresearch
p1415
Valgorithm
p1416
sVoffline
p1417
Vjavascript
p1418
sVinitialization
p1419
Vc++
p1420
sVautofac
p1421
NsVintrinsics
p1422
Vc++
p1423
sVlocalization
p1424
NsVproxy
p1425
g1425
sVandroid-library
p1426
Vandroid
p1427
sVdefinition
p1428
Vc++
p1429
sVwolfram-mathematica
p1430
g136
sVdjango-forms
p1431
Vdjango
p1432
sVpositioning
p1433
Vcss
p1434
sVcastle
p1435
NsVweb-standards
p1436
Vhtml
p1437
sVoperator-overloading
p1438
Vc++
p1439
sVnewtonsoft
p1440
NsVjet
p1441
Vms-access
p1442
sVfaceted-search
p1443
Vsolr
p1444
sVswipe
p1445
Vandroid
p1446
sVsublimetext2
p1447
NsVsublimetext3
p1448
NsVsilverstripe
p1449
Vphp
p1450
sVrelationship
p1451
Vruby-on-rails
p1452
sVexpression-trees
p1453
NsVfilesystems
p1454
g1454
sVhtml-select
p1455
Vhtml
p1456
sVserializable
p1457
Vjava
p1458
sVtortoisehg
p1459
Vgit
p1460
sVphpmailer
p1461
Vphp
p1462
sVaac
p1463
Vaudio
p1464
sVinput-validation
p1465
Vjquery
p1466
sVbho
p1467
g1379
sVflexigrid
p1468
Vjquery
p1469
sVmootools
p1470
Vjavascript
p1471
sVwysiwyg
p1472
Vjavascript
p1473
sVnsurl
p1474
Vios
p1475
sVform-submit
p1476
Vjquery
p1477
sVpyserial
p1478
Vpython
p1479
sVcollapse
p1480
Vjquery
p1481
sVdrop-down-menu
p1482
Vjquery
p1483
sVpy2exe
p1484
Vpython
p1485
sVself
p1486
Vpython
p1487
sVdynamics-crm-online
p1488
NsVinternal
p1489
Vandroid
p1490
sVvmware
p1491
g1491
sValsa
p1492
Vlinux
p1493
sVx++
p1494
NsVsts-springsourcetoolsuite
p1495
Veclipse
p1496
sVconditional-formatting
p1497
NsVexe
p1498
NsVphonegap
p1499
Vandroid
p1500
sVgsoap
p1501
Vc++
p1502
sVmicrosoft
p1503
NsVwsgi
p1504
Vpython
p1505
sVxcode
p1506
g1506
sVbinary-tree
p1507
Valgorithm
p1508
sVsql-server-2005
p1509
Vsql
p1510
sVsession
p1511
Vphp
p1512
sVftp-client
p1513
Vftp
p1514
sVresourcedictionary
p1515
Vwpf
p1516
sVhornetq
p1517
Vjms
p1518
sVblender
p1519
Vpython
p1520
sVdrupal-modules
p1521
Vdrupal
p1522
sVkeychain
p1523
Vios
p1524
sVin-app-purchase
p1525
Vios
p1526
sVfileapi
p1527
Vjavascript
p1528
sVhtml-email
p1529
g161
sVscala-collections
p1530
Vscala
p1531
sVneon
p1532
Vassembly
p1533
sVsynchronization
p1534
Vjava
p1535
sV.each
p1536
Vjquery
p1537
sVflexbuilder
p1538
g298
sVhorizontal-scrolling
p1539
Vcss
p1540
sVbitmap
p1541
Vandroid
p1542
sVbanner
p1543
Vandroid
p1544
sVxml-parsing
p1545
Vxml
p1546
sV3g
p1547
Vandroid
p1548
sVrake-task
p1549
Vruby-on-rails
p1550
sVcrc
p1551
Vjava
p1552
sVgraph-databases
p1553
NsVmagicalrecord
p1554
Vios
p1555
sV3d
p1556
g68
sVcrm
p1557
g1557
sVset
p1558
Vjava
p1559
sViteration
p1560
Vpython
p1561
sVjade
p1562
g1562
sVstartup
p1563
NsVipod-touch
p1564
g194
sVsed
p1565
Vbash
p1566
sVfileoutputstream
p1567
Vjava
p1568
sVseo
p1569
Vphp
p1570
sVcontour
p1571
Vc++
p1572
sVproject
p1573
Veclipse
p1574
sVprotobuf-net
p1575
NsVmovie
p1576
g194
sVitunesconnect
p1577
Vios
p1578
sVliquibase
p1579
Vjava
p1580
sVmutex
p1581
Vmultithreading
p1582
sVscreen-orientation
p1583
Vandroid
p1584
sVimagemagick
p1585
Vphp
p1586
sVxslt
p1587
g1587
sVjapplet
p1588
Vjava
p1589
sVselectlist
p1590
NsVjavascript
p1591
g1591
sVintegration-testing
p1592
Vunit-testing
p1593
sVinterface
p1594
NsVhyperlink
p1595
Vhtml
p1596
sVglkit
p1597
Vios
p1598
sVfacebox
p1599
Vjquery
p1600
sVpdo
p1601
Vphp
p1602
sVlapack
p1603
NsVconnection
p1604
Vjava
p1605
sVpdf
p1606
Vphp
p1607
sVksoap2
p1608
Vandroid
p1609
sVload
p1610
Vjquery
p1611
sVgeolocation
p1612
Vandroid
p1613
sVmarkdown
p1614
Vhtml
p1615
sVdatediff
p1616
Vsql
p1617
sVweb-config
p1618
Vasp.net
p1619
sVdata-migration
p1620
g228
sVcompass-geolocation
p1621
Vandroid
p1622
sVpublishing
p1623
Vandroid
p1624
sVextension-methods
p1625
NsVbreadth-first-search
p1626
Valgorithm
p1627
sVangular-ui
p1628
Vangularjs
p1629
sVandroid-cursoradapter
p1630
Vandroid
p1631
sVsystem.io
p1632
NsVkerberos
p1633
Vjava
p1634
sVmultidimensional-array
p1635
g197
sVoverloading
p1636
Vc++
p1637
sVqtableview
p1638
g347
sVfunc
p1639
NsVhandling
p1640
Vjava
p1641
sVoptimization
p1642
g1642
sVandroid-browser
p1643
Vandroid
p1644
sVdrawable
p1645
Vandroid
p1646
sVexpander
p1647
Vwpf
p1648
sVnivoslider
p1649
Vjquery
p1650
sVcalculator
p1651
Vjava
p1652
sVcode-coverage
p1653
Vunit-testing
p1654
sVbinding
p1655
Vwpf
p1656
sVforeign-key-relationship
p1657
Vmysql
p1658
sVbiztalk-2010
p1659
NsVonitemclicklistener
p1660
Vandroid
p1661
sVvaadin
p1662
Vjava
p1663
sVkeystore
p1664
Vjava
p1665
sVx64
p1666
Vc++
p1667
sVangular-ui-bootstrap
p1668
Vangularjs
p1669
sVmatlab-figure
p1670
Vmatlab
p1671
sVuniversal-image-loader
p1672
Vandroid
p1673
sVuiactivityindicatorview
p1674
Vios
p1675
sValert
p1676
Vjavascript
p1677
sVcucumber
p1678
Vruby-on-rails
p1679
sVamf
p1680
g298
sVpassword-encryption
p1681
Vphp
p1682
sVstack
p1683
Vc++
p1684
sVdecompiler
p1685
Vjava
p1686
sVng-grid
p1687
Vangularjs
p1688
sVgoogletest
p1689
Vc++
p1690
sVgoogle-webmaster-tools
p1691
g1570
sVuser-defined-functions
p1692
g228
sVmysql
p1693
g1693
sVspring-transactions
p1694
Vspring
p1695
sVconditional-compilation
p1696
NsVsetup-project
p1697
NsVsidebar
p1698
Vwordpress
p1699
sVindexof
p1700
Vjavascript
p1701
sVsignals
p1702
Vc
p1703
sVsignalr
p1704
NsVlocation
p1705
Vandroid
p1706
sVfacebook-wall
p1707
NsVinput
p1708
Vjquery
p1709
sVgame-physics
p1710
Valgorithm
p1711
sVxml-rpc
p1712
Vphp
p1713
sVformat
p1714
g635
sVheader-files
p1715
Vc++
p1716
sVaugmented-reality
p1717
Vandroid
p1718
sVtire
p1719
NsVenumerable
p1720
g230
sVprojects
p1721
NsVjava-3d
p1722
Vjava
p1723
sVsorting
p1724
g197
sVd
p1725
NsVmarquee
p1726
Vhtml
p1727
sVscapy
p1728
Vpython
p1729
sVimagick
p1730
Vphp
p1731
sVwindows-store-apps
p1732
NsVclipping
p1733
Vandroid
p1734
sVmethods
p1735
Vjava
p1736
sVspring
p1737
g1737
sVwxpython
p1738
Vpython
p1739
sVvirtualenv
p1740
Vpython
p1741
sVnetbeans-platform
p1742
Vjava
p1743
sVlayout-manager
p1744
Vjava
p1745
sVrails-postgresql
p1746
Vruby-on-rails
p1747
sVtelerik
p1748
Vasp.net
p1749
sVteradata
p1750
Vsql
p1751
sVandroid-maps-v2
p1752
Vandroid
p1753
sVmethod-overloading
p1754
NsVgoogle-mirror-api
p1755
NsVwget
p1756
Vlinux
p1757
sVb-tree
p1758
Vdata-structures
p1759
sVrelational-database
p1760
Vdatabase
p1761
sVanti-patterns
p1762
Vdesign-patterns
p1763
sVasmack
p1764
Vandroid
p1765
sVjasperserver
p1766
Vjava
p1767
sVandroid-gradle
p1768
Vandroid
p1769
sVmedia-player
p1770
Vandroid
p1771
sVembedded-jetty
p1772
Vjava
p1773
sVpcre
p1774
g73
sVspan
p1775
Vhtml
p1776
sVspam
p1777
g161
sVjax-rs
p1778
Vjava
p1779
sVsubmit
p1780
Vphp
p1781
sVbios
p1782
Vassembly
p1783
sVfile-rename
p1784
Vphp
p1785
sVodp.net
p1786
Voracle
p1787
sVeventkit
p1788
Vios
p1789
sVxpath
p1790
Vxml
p1791
sVlint
p1792
Vandroid
p1793
sVlinq
p1794
g1794
sVdata-storage
p1795
Vandroid
p1796
sVatom
p1797
Vphp
p1798
sVline
p1799
Vjava
p1800
sVcin
p1801
Vc++
p1802
sVcil
p1803
V.net
p1804
sVfile-sharing
p1805
Vios
p1806
sVverification
p1807
Vphp
p1808
sVvisualsvn-server
p1809
Vsvn
p1810
sVpropertygrid
p1811
NsVpgadmin
p1812
Vpostgresql
p1813
sVunsafe
p1814
NsVchar
p1815
g163
sVduration
p1816
g635
sVchat
p1817
Vphp
p1818
sVparsec
p1819
Vhaskell
p1820
sVamqp
p1821
NsVgnuplot
p1822
g136
sVscrape
p1823
Vphp
p1824
sVscrapy
p1825
Vpython
p1826
sVcodec
p1827
g2
sVactiveresource
p1828
Vruby-on-rails
p1829
sVrevision
p1830
Vsvn
p1831
sVelements
p1832
Vjquery
p1833
sVmemory-mapped-files
p1834
NsVscrum
p1835
Vagile
p1836
sVslice
p1837
Vpython
p1838
sVlinq-to-sql
p1839
NsVwindows-phone-7.5
p1840
NsValgorithm
p1841
g1841
sVoracle
p1842
g1842
sVselenium-rc
p1843
Vselenium
p1844
sVhaving
p1845
Vsql
p1846
sVpartial
p1847
Vruby-on-rails
p1848
sVhashmap
p1849
Vjava
p1850
sVkernel-programming
p1851
g1851
sVejb-3.1
p1852
Vjava
p1853
sVgoogle-drive
p1854
NsVclean-urls
p1855
NsVcython
p1856
Vpython
p1857
sVsend
p1858
g161
sVjavascript-library
p1859
Vjavascript
p1860
sVmulticore
p1861
Vmultithreading
p1862
sVlistviewitem
p1863
g34
sVgetline
p1864
Vc++
p1865
sVresources
p1866
Vandroid
p1867
sVunzip
p1868
Vjava
p1869
sVmixins
p1870
g230
sVpagination
p1871
Vphp
p1872
sVspring.net
p1873
NsVgtk3
p1874
Vpython
p1875
sVgtk+
p1876
Vpython
p1877
sVnuget-package
p1878
NsVcategories
p1879
Vwordpress
p1880
sVgtk#
p1881
NsVentitymanager
p1882
g341
sVcontenteditable
p1883
Vjavascript
p1884
sViscroll
p1885
Vjquery
p1886
sVrack
p1887
g230
sVbiztalk
p1888
NsVasp-classic
p1889
NsVsingle-page-application
p1890
Vjavascript
p1891
sVvideo
p1892
g2
sVicalendar
p1893
Vphp
p1894
sVsql-server-2008
p1895
Vsql
p1896
sVindex
p1897
g1897
sVhtml-helper
p1898
NsVgit-clone
p1899
Vgit
p1900
sVdirective
p1901
Vangularjs
p1902
sVsql-server-2000
p1903
g228
sVmultimedia
p1904
Vandroid
p1905
sVbirt
p1906
Vjava
p1907
sVbox2d
p1908
g194
sVheatmap
p1909
g1271
sVremote-debugging
p1910
g270
sVslidingdrawer
p1911
Vandroid
p1912
sVsoftware-distribution
p1913
NsVwireshark
p1914
g820
sVwinapi
p1915
g1074
sVoctave
p1916
Vmatlab
p1917
sVubuntu
p1918
g1918
sVlex
p1919
NsVopenmp
p1920
Vc++
p1921
sVsunspot-rails
p1922
g59
sVrdp
p1923
Vremote-desktop
p1924
sVreceive
p1925
Vandroid
p1926
sVdate-range
p1927
Vsql
p1928
sVgetter-setter
p1929
Vjava
p1930
sVwcf-ria-services
p1931
NsVvoice-recognition
p1932
Vandroid
p1933
sVrdf
p1934
NsVsurvey
p1935
Vphp
p1936
sVderby
p1937
Vjava
p1938
sVentity-relationship
p1939
Vdatabase-design
p1940
sVkeylistener
p1941
Vjava
p1942
sVjava-io
p1943
Vjava
p1944
sVangularjs-scope
p1945
Vangularjs
p1946
sVfirefox
p1947
Vjavascript
p1948
sVvhosts
p1949
Vapache
p1950
sVinstantiation
p1951
Vjava
p1952
sVbazaar
p1953
g1460
sVzip
p1954
g1869
sVgoogle-app-engine
p1955
g97
sVphysics
p1956
g1711
sVnext
p1957
Vjquery
p1958
sVcss-sprites
p1959
Vcss
p1960
sVlcdui
p1961
g790
sVslim
p1962
Vphp
p1963
sVviewgroup
p1964
Vandroid
p1965
sVbezier-curve
p1966
NsVscheduled-tasks
p1967
NsVjob-scheduling
p1968
Vjava
p1969
sVportability
p1970
Vc++
p1971
sVthis
p1972
Vjavascript
p1973
sVtwitter-oauth
p1974
Vphp
p1975
sVthin
p1976
Vruby-on-rails
p1977
sVworksheet
p1978
NsVactiveadmin
p1979
Vruby-on-rails
p1980
sVbusiness-objects
p1981
NsVrefinerycms
p1982
Vruby-on-rails
p1983
sVnative-code
p1984
Vandroid
p1985
sVprocess
p1986
NsVfile-descriptor
p1987
g163
sVjavadoc
p1988
Vjava
p1989
sVfprintf
p1990
g1703
sVimage-scaling
p1991
g998
sVmalware
p1992
Vphp
p1993
sVkey-value-observing
p1994
Vobjective-c
p1995
sVfacebook-sdk-3.0
p1996
NsVnvd3.js
p1997
g172
sVdelay
p1998
Vjquery
p1999
sVclient-side-validation
p2000
Vruby-on-rails
p2001
sVnpm
p2002
Vnode.js
p2003
sVsession-cookies
p2004
Vphp
p2005
sVtcsh
p2006
Vbash
p2007
sVurl-rewriting
p2008
NsVwallpaper
p2009
Vandroid
p2010
sVqtwebkit
p2011
g347
sVout-of-memory
p2012
Vandroid
p2013
sVcounter
p2014
Vphp
p2015
sVelement
p2016
Vjquery
p2017
sVnancy
p2018
NsVosgi
p2019
Vjava
p2020
sVface-recognition
p2021
g1572
sVjqgrid-asp.net
p2022
Vjquery
p2023
sVmove
p2024
Vc++
p2025
sVjoptionpane
p2026
Vjava
p2027
sVcomma
p2028
Vphp
p2029
sVfacebook-c#-sdk
p2030
NsVofstream
p2031
Vc++
p2032
sVdirectx
p2033
g562
sVdispose
p2034
NsVgoogle-charts-api
p2035
Vjavascript
p2036
sVinstruments
p2037
Vios
p2038
sVhttpcontext
p2039
Vasp.net
p2040
sVdata-type-conversion
p2041
Vjava
p2042
sVdocx
p2043
NsVpython
p2044
g2044
sVsystem.reactive
p2045
NsVdock
p2046
g396
sVrotation
p2047
Vandroid
p2048
sVtransparent
p2049
Vandroid
p2050
sVpostgresql-9.1
p2051
Vpostgresql
p2052
sVpostgresql-9.2
p2053
Vpostgresql
p2054
sVeventtrigger
p2055
Vwpf
p2056
sVruby-1.9
p2057
g230
sVmerge
p2058
Vgit
p2059
sVoncreate
p2060
Vandroid
p2061
sVcomplexity-theory
p2062
g2062
sVsubset
p2063
g15
sVapp-config
p2064
NsVmeta
p2065
Vhtml
p2066
sVstatic
p2067
Vjava
p2068
sVcpanel
p2069
Vphp
p2070
sVknockout-2.0
p2071
Vknockout.js
p2072
sVbpel
p2073
Vsoa
p2074
sVankhsvn
p2075
Vsvn
p2076
sVmatrix
p2077
Vmatlab
p2078
sVkohana-3
p2079
g421
sVandroid-gcm
p2080
Vandroid
p2081
sVspecifications
p2082
Vjava
p2083
sVunderscore.js
p2084
Vjavascript
p2085
sVcore-bluetooth
p2086
Vios
p2087
sVdhcp
p2088
g2088
sVsendmail
p2089
Vphp
p2090
sVsubclipse
p2091
Vsvn
p2092
sVthrust
p2093
g1367
sVmule-studio
p2094
NsVgit-merge
p2095
Vgit
p2096
sVlexer
p2097
g513
sVandroid-image
p2098
Vandroid
p2099
sVuibezierpath
p2100
Vios
p2101
sVunobtrusive-javascript
p2102
Vjavascript
p2103
sVstruts-1
p2104
Vjava
p2105
sVweb.xml
p2106
Vjava
p2107
sVabstract-class
p2108
Vjava
p2109
sVpyside
p2110
Vpython
p2111
sVordering
p2112
Vmysql
p2113
sVundefined-behavior
p2114
Vc++
p2115
sVsticky-footer
p2116
Vcss
p2117
sVcore-foundation
p2118
Vobjective-c
p2119
sVcontextmenu
p2120
Vwpf
p2121
sVgwt-rpc
p2122
Vgwt
p2123
sVlibusb
p2124
Vusb
p2125
sVsubroutine
p2126
Vperl
p2127
sVsimd
p2128
g1423
sVjscrollpane
p2129
Vjava
p2130
sVtimepicker
p2131
Vandroid
p2132
sVviewer
p2133
g1607
sVgrails
p2134
Vgroovy
p2135
sVcobertura
p2136
Vjava
p2137
sVreverse-geocoding
p2138
g600
sVsysadmin
p2139
Vlinux
p2140
sVlike-operator
p2141
Vsql
p2142
sVselectors
p2143
Vjquery
p2144
sVasp.net
p2145
g2145
sVlotusscript
p2146
NsVsinatra
p2147
g2147
sVjboss7.x
p2148
Vjava
p2149
sVsoap
p2150
g2150
sVpersistence
p2151
Vjava
p2152
sVimplicit-conversion
p2153
Vscala
p2154
sVobserver-pattern
p2155
Vjava
p2156
sVwso2carbon
p2157
NsVcipher
p2158
Vjava
p2159
sVsimplecursoradapter
p2160
Vandroid
p2161
sVdevice
p2162
Vandroid
p2163
sVcomparison
p2164
Vjava
p2165
sVindexoutofboundsexception
p2166
Vjava
p2167
sVanimated-gif
p2168
g998
sVdata-transfer
p2169
Vandroid
p2170
sVdbi
p2171
Vperl
p2172
sVatmosphere
p2173
Vjava
p2174
sVterminate
p2175
Vmultithreading
p2176
sVdbf
p2177
NsVforceclose
p2178
Vandroid
p2179
sVredirect
p2180
NsVrestlet
p2181
Vjava
p2182
sVremoveclass
p2183
Vjquery
p2184
sVjar
p2185
Vjava
p2186
sVjstree
p2187
Vjquery
p2188
sVterminal
p2189
g396
sVentities
p2190
Vphp
p2191
sVarcgis
p2192
g1299
sVdjango-urls
p2193
Vdjango
p2194
sVhandle
p2195
NsVlistener
p2196
Vandroid
p2197
sVtableadapter
p2198
NsVeclipse-kepler
p2199
Veclipse
p2200
sVdb2
p2201
g2201
sVmemcpy
p2202
g1703
sVandroid-camera
p2203
Vandroid
p2204
sVaes
p2205
g1008
sVrebase
p2206
Vgit
p2207
sVdefault
p2208
Vandroid
p2209
sVhmvc
p2210
Vphp
p2211
sVqtp
p2212
NsVframe
p2213
Vjava
p2214
sVpacket
p2215
g820
sVdialog
p2216
Vandroid
p2217
sVjqplot
p2218
Vjquery
p2219
sVms-dos
p2220
Vwindows
p2221
sVsql-update
p2222
Vsql
p2223
sVverilog
p2224
g2224
sVemail
p2225
g161
sVqt4
p2226
g347
sVqt5
p2227
g347
sVsuperfish
p2228
Vjquery
p2229
sVjsdoc
p2230
Vjavascript
p2231
sVconfiguration
p2232
Vjava
p2233
sVcocoapods
p2234
Vios
p2235
sVtls
p2236
Vhttps
p2237
sVdoxygen
p2238
Vc++
p2239
sVvalgrind
p2240
g20
sVitertools
p2241
Vpython
p2242
sVuiactionsheet
p2243
Vios
p2244
sVetl
p2245
g2245
sVandroid-wifi
p2246
Vandroid
p2247
sVnstimer
p2248
Vobjective-c
p2249
sVevent-handling
p2250
NsVchromium
p2251
Vjavascript
p2252
sVmailto
p2253
Vhtml
p2254
sVlist-comprehension
p2255
Vpython
p2256
sVandroid-dialogfragment
p2257
Vandroid
p2258
sVfiremonkey
p2259
Vdelphi
p2260
sVsweave
p2261
g15
sVimage-recognition
p2262
Vimage-processing
p2263
sVurl-routing
p2264
Vphp
p2265
sVobjective-c++
p2266
Vobjective-c
p2267
sVc#
p2268
NsVopenvpn
p2269
Vvpn
p2270
sVtycho
p2271
Vmaven
p2272
sVjquery-templates
p2273
Vjquery
p2274
sVblackberry-eclipse-plugin
p2275
g790
sVgraphics
p2276
g2276
sVcocos2d-android
p2277
Vandroid
p2278
sVcvs
p2279
g1460
sVframeworks
p2280
Vphp
p2281
sVintranet
p2282
Vasp.net
p2283
sVlibxml2
p2284
Vxml
p2285
sVhardware
p2286
Vandroid
p2287
sVimagemap
p2288
Vhtml
p2289
sVpassbook
p2290
Vios
p2291
sVstdstring
p2292
Vc++
p2293
sVdataview
p2294
NsVdompdf
p2295
Vphp
p2296
sVrailstutorial.org
p2297
Vruby-on-rails
p2298
sVandroid
p2299
g2299
sVopenoffice-calc
p2300
Vjava
p2301
sVmailchimp
p2302
Vphp
p2303
sVinfinite
p2304
Vphp
p2305
sVphp
p2306
g2306
sVidentity
p2307
g228
sVxcode4
p2308
Vxcode
p2309
sVaudit
p2310
g228
sVcode-reuse
p2311
NsVrelative-path
p2312
g878
sVpatterns
p2313
NsVcommand
p2314
Vwpf
p2315
sVaudio
p2316
g2316
sVdrawing
p2317
NsVipad-splitview
p2318
g194
sVless
p2319
Vcss
p2320
sVxen
p2321
g2321
sVsearch-and-replace
p2322
g73
sVweb
p2323
Vjavascript
p2324
sVpath-finding
p2325
Valgorithm
p2326
sVnstextview
p2327
Vcocoa
p2328
sVspinner
p2329
Vandroid
p2330
sVlattice
p2331
g1271
sVscriptmanager
p2332
Vasp.net
p2333
sVccsprite
p2334
g194
sVprimefaces
p2335
Vjsf
p2336
sVcss3
p2337
Vcss
p2338
sVhabtm
p2339
Vruby-on-rails
p2340
sVmorphia
p2341
Vmongodb
p2342
sVcrud
p2343
Vphp
p2344
sVbit-manipulation
p2345
g1703
sVheight
p2346
Vcss
p2347
sVsamsung-mobile
p2348
Vandroid
p2349
sVdatabase-replication
p2350
Vmysql
p2351
sVlambda-functions
p2352
NsVvisualsvn
p2353
Vsvn
p2354
sVmsbuild-task
p2355
NsVdoubly-linked-list
p2356
Vc++
p2357
sVvsx
p2358
NsVgcc-warning
p2359
Vc
p2360
sVgevent
p2361
Vpython
p2362
sVflush
p2363
Vphp
p2364
sVdatabase-connection
p2365
Vmysql
p2366
sVnested-attributes
p2367
Vruby-on-rails
p2368
sVmarklogic
p2369
Vxml
p2370
sVpreload
p2371
Vjquery
p2372
sVschedule
p2373
Vjava
p2374
sVcustom-data-attribute
p2375
Vjquery
p2376
sVieee-754
p2377
g1703
sVsymlink
p2378
Vlinux
p2379
sVmaven
p2380
g2380
sVdataannotations
p2381
NsVsqlconnection
p2382
NsVsigabrt
p2383
Vios
p2384
sVstage
p2385
g298
sVhaproxy
p2386
Vload-balancing
p2387
sVtrue-type-fonts
p2388
Vcss
p2389
sVrichtext
p2390
NsVconstraints
p2391
Vsql
p2392
sVuiviewcontroller
p2393
Vios
p2394
sVpassword-protection
p2395
Vphp
p2396
sVafnetworking-2
p2397
Vios
p2398
sVqmake
p2399
g347
sVnavigationbar
p2400
Vcss
p2401
sVvirtualbox
p2402
g2402
sVflash-cs3
p2403
g298
sVjodatime
p2404
Vjava
p2405
sVflash-cs6
p2406
g298
sVpython-3.3
p2407
Vpython
p2408
sVflash-cs4
p2409
g298
sVflash-cs5
p2410
g298
sVpie-chart
p2411
Vjavascript
p2412
sVappfabric
p2413
g781
sVdynamic-sql
p2414
Vsql
p2415
sVstreamreader
p2416
NsVfunction
p2417
Vjavascript
p2418
sVnumerical-methods
p2419
g2419
sVoverlapping
p2420
Vcss
p2421
sVautomapper
p2422
NsVcount
p2423
Vmysql
p2424
sVhtmlunit
p2425
Vjava
p2426
sVpython-3.x
p2427
Vpython
p2428
sVsmooth
p2429
Vjquery
p2430
sVcocos2d-iphone
p2431
g194
sVr.java-file
p2432
Vandroid
p2433
sVfrequency
p2434
Vaudio
p2435
sVcocoa-touch
p2436
Vobjective-c
p2437
sVdistribution
p2438
g194
sVjdialog
p2439
Vjava
p2440
sVsscanf
p2441
g1703
sVtimespan
p2442
NsVint
p2443
Vjava
p2444
sVhibernate-criteria
p2445
Vhibernate
p2446
sVini
p2447
Vphp
p2448
sVxpages-extlib
p2449
NsVvector-graphics
p2450
Vjavascript
p2451
sVlookup
p2452
NsVhpc
p2453
g20
sVunit-testing
p2454
g2454
sVweb-sql
p2455
Vjavascript
p2456
sVrepeat
p2457
Vandroid
p2458
sVworker
p2459
Vmultithreading
p2460
sVaddthis
p2461
Vjavascript
p2462
sVinstall4j
p2463
Vjava
p2464
sVrich-text-editor
p2465
Vjavascript
p2466
sVxamarin
p2467
Vios
p2468
sVeof
p2469
g1703
sVios-ui-automation
p2470
Vios
p2471
sVms-project
p2472
g2472
sVuitableviewcontroller
p2473
Vios
p2474
sVrule
p2475
NsVhttp-status-code-404
p2476
Vphp
p2477
sVwin32com
p2478
Vpython
p2479
sVhttp-status-code-401
p2480
Vasp.net
p2481
sVamazon-dynamodb
p2482
Vamazon-web-services
p2483
sVhttp-status-code-403
p2484
Vphp
p2485
sVspring-3
p2486
Vspring
p2487
sVprototypejs
p2488
Vjavascript
p2489
sVinsert-update
p2490
Vmysql
p2491
sVmac-app-store
p2492
g396
sVaudiounit
p2493
Vios
p2494
sVrelationships
p2495
Vruby-on-rails
p2496
sVlgpl
p2497
NsVconst
p2498
Vc++
p2499
sVmpmovieplayercontroller
p2500
Vios
p2501
sVzxing
p2502
Vandroid
p2503
sVmatlab
p2504
g2504
sVmouseout
p2505
Vjquery
p2506
sVfacebook-likebox
p2507
NsVhtml5-canvas
p2508
Vjavascript
p2509
sVassetic
p2510
g359
sVreplication
p2511
g2511
sVm2e
p2512
Vmaven
p2513
sVtagging
p2514
Vhtml
p2515
sVunity3d
p2516
NsVjprogressbar
p2517
Vjava
p2518
sVcmd
p2519
g2221
sVupload
p2520
Vphp
p2521
sVgoogle-closure-library
p2522
Vjavascript
p2523
sVnsarray
p2524
Vobjective-c
p2525
sVatk4
p2526
Vphp
p2527
sVmp3
p2528
Vaudio
p2529
sVlong-polling
p2530
Vajax
p2531
sVchef
p2532
g2532
sVilist
p2533
NsVappsettings
p2534
NsVandroid-intent
p2535
Vandroid
p2536
sVrenderscript
p2537
Vandroid
p2538
sVdecoding
p2539
g1178
sVopenxml-sdk
p2540
NsVtextures
p2541
Vopengl
p2542
sVlinear-regression
p2543
g136
sVfacebook-android-sdk
p2544
Vandroid
p2545
sVwrapping
p2546
Vcss
p2547
sVequals
p2548
Vjava
p2549
sVpygtk
p2550
Vpython
p2551
sVprotection
p2552
Vphp
p2553
sVvisual-studio-addins
p2554
NsVplaceholder
p2555
Vjquery
p2556
sVglm
p2557
g1271
sVdebug-symbols
p2558
g270
sVbitmapimage
p2559
NsVitunes
p2560
g194
sVtemporary-files
p2561
Vjava
p2562
sVruby-on-rails-plugins
p2563
Vruby-on-rails
p2564
sVlogback
p2565
Vjava
p2566
sVplot
p2567
g136
sVfortran90
p2568
Vfortran
p2569
sVbundler
p2570
Vruby-on-rails
p2571
sVbackgroundworker
p2572
NsVfile-exists
p2573
Vphp
p2574
sVcomposer-php
p2575
Vphp
p2576
sVcpu-registers
p2577
Vassembly
p2578
sVshopping-cart
p2579
Vphp
p2580
sVblocking
p2581
Vmultithreading
p2582
sVwebmethod
p2583
Vasp.net
p2584
sVwix3.6
p2585
NsVwix3.5
p2586
NsVword
p2587
NsVangularjs-ng-repeat
p2588
Vangularjs
p2589
sVeclipse
p2590
g2590
sVjtable
p2591
Vjava
p2592
sVtransparency
p2593
g998
sVscripting
p2594
Vbash
p2595
sVwordpress-theming
p2596
Vwordpress
p2597
sVfacebook-authentication
p2598
NsVmvvmcross
p2599
g2468
sVfmdb
p2600
Vandroid
p2601
sVuac
p2602
NsVplist
p2603
Vios
p2604
sVrecovery
p2605
Vandroid
p2606
sVuifont
p2607
Vios
p2608
sViso-8859-1
p2609
g1178
sVcore-graphics
p2610
Vios
p2611
sVlan
p2612
g2612
sVlag
p2613
Vandroid
p2614
sVopenal
p2615
Vaudio
p2616
sVcalayer
p2617
Vios
p2618
sVjboss6.x
p2619
Vjava
p2620
sVcontext-free-grammar
p2621
g513
sVsparql
p2622
NsVassignment-operator
p2623
Vc++
p2624
sVorder
p2625
Vmysql
p2626
sVnamed-scope
p2627
Vruby-on-rails
p2628
sVgoogle-checkout
p2629
Vandroid
p2630
sVeigen
p2631
Vc++
p2632
sVoffice
p2633
NsVxsl-fo
p2634
g535
sVpascal
p2635
g2635
sVbuttonclick
p2636
Vandroid
p2637
sVjquery-ui-autocomplete
p2638
Vjquery
p2639
sVamazon-cloudfront
p2640
Vamazon-web-services
p2641
sVjdk1.6
p2642
Vjava
p2643
sVglassfish
p2644
Vjava
p2645
sVtypescript
p2646
Vjavascript
p2647
sVuipangesturerecognizer
p2648
Vios
p2649
sVfragment
p2650
Vandroid
p2651
sVinfinite-scroll
p2652
Vjquery
p2653
sVbreak
p2654
g2305
sVrefactoring
p2655
NsVjinja2
p2656
Vpython
p2657
sVcloudera
p2658
Vhadoop
p2659
sVleft-join
p2660
Vmysql
p2661
sVnullable
p2662
NsVthree20
p2663
g194
sVright-to-left
p2664
Vcss
p2665
sVfeeds
p2666
g1798
sVprawn
p2667
Vruby-on-rails
p2668
sVinfragistics
p2669
NsVuicolor
p2670
Vios
p2671
sVsprintf
p2672
g1703
sVsliding
p2673
Vjquery
p2674
sVwindows-vista
p2675
NsVputty
p2676
Vssh
p2677
sVsegmentation-fault
p2678
g1703
sVcollation
p2679
Vmysql
p2680
sVsoundcloud
p2681
Vjavascript
p2682
sVwcf-rest
p2683
Vwcf
p2684
sVmvp
p2685
NsVireport
p2686
g1767
sVmvc
p2687
g2687
sVtextinput
p2688
g298
sVbenchmarking
p2689
g1228
sVobservablecollection
p2690
Vwpf
p2691
sVrender
p2692
Vruby-on-rails
p2693
sVsystem
p2694
Vphp
p2695
sVpython-sphinx
p2696
Vpython
p2697
sVslidetoggle
p2698
Vjquery
p2699
sVweb-audio
p2700
Vjavascript
p2701
sVcustom-server-controls
p2702
Vasp.net
p2703
sVinflate
p2704
Vandroid
p2705
sVfitnesse
p2706
Vjava
p2707
sVdecompiling
p2708
Vjava
p2709
sVtex
p2710
g136
sVtarget
p2711
Vxcode
p2712
sVsqlclr
p2713
g228
sVebay
p2714
Vphp
p2715
sVhacking
p2716
Vsecurity
p2717
sVbinary-data
p2718
NsVweb-api
p2719
NsVuiview
p2720
Vios
p2721
sVrewrite
p2722
NsVdiscrete-mathematics
p2723
g2723
sVintentservice
p2724
Vandroid
p2725
sVangularjs
p2726
g2726
sVlatency
p2727
g820
sVdbms
p2728
Vsql
p2729
sVawtrobot
p2730
Vjava
p2731
sVyui3
p2732
Vjavascript
p2733
sVindexes
p2734
Vmysql
p2735
sVvisual-studio
p2736
NsVreportingservices-2008
p2737
NsVgoogle-analytics-api
p2738
Vgoogle-analytics
p2739
sVssl-certificate
p2740
Vssl
p2741
sVwebcam
p2742
NsVgraphics2d
p2743
Vjava
p2744
sVqt-designer
p2745
g347
sVleaflet
p2746
Vjavascript
p2747
sVjointable
p2748
Vmysql
p2749
sVwildcard
p2750
Vjava
p2751
sVheuristics
p2752
Valgorithm
p2753
sVhtml-parsing
p2754
Vhtml
p2755
sVimage-segmentation
p2756
Vimage-processing
p2757
sVogg
p2758
Vaudio
p2759
sVtoast
p2760
Vandroid
p2761
sVpalindrome
p2762
Vjava
p2763
sVcircular-reference
p2764
NsVgraph-algorithm
p2765
Valgorithm
p2766
sVimplementation
p2767
Vjava
p2768
sVgson
p2769
Vjson
p2770
sVgoogle-contacts
p2771
Vandroid
p2772
sVuicollectionviewlayout
p2773
Vios
p2774
sVspeech-to-text
p2775
Vandroid
p2776
sViptables
p2777
Vlinux
p2778
sVpushviewcontroller
p2779
Vios
p2780
sVcryptography
p2781
g2781
sVuitoolbar
p2782
Vios
p2783
sVaspxgridview
p2784
Vasp.net
p2785
sVidioms
p2786
Vc++
p2787
sVasync-await
p2788
NsVienumerable
p2789
NsVabaddressbook
p2790
Vios
p2791
sVzookeeper
p2792
Vhbase
p2793
sVshared-memory
p2794
g1703
sVanalytics
p2795
Vgoogle-analytics
p2796
sVdirectshow.net
p2797
Vc++
p2798
sVivalueconverter
p2799
Vwpf
p2800
sVopenfiledialog
p2801
NsVlapply
p2802
g1271
sVtype-inference
p2803
NsVctypes
p2804
Vpython
p2805
sVpreprocessor
p2806
Vc++
p2807
sVopenjpa
p2808
g341
sVpackages
p2809
Vjava
p2810
sVwx
p2811
Vpython
p2812
sVcoq
p2813
NsVclaims-based-identity
p2814
Vwcf
p2815
sVcocos2d-x
p2816
Vc++
p2817
sVtfs2012
p2818
NsVtfs2010
p2819
NsVreceiver
p2820
Vandroid
p2821
sVcom
p2822
NsVandroid-gallery
p2823
Vandroid
p2824
sVhorizontalscrollview
p2825
Vandroid
p2826
sVguid
p2827
NsVlatitude-longitude
p2828
Vandroid
p2829
sVcoredump
p2830
Vlinux
p2831
sVshoulda
p2832
Vruby-on-rails
p2833
sVnsfetchrequest
p2834
g1555
sVhtml5-video
p2835
g1418
sVaix
p2836
Vunix
p2837
sVgnu
p2838
g163
sVlauncher
p2839
Vandroid
p2840
sViqueryable
p2841
NsVzlib
p2842
Vc++
p2843
sVair
p2844
g298
sVformatting
p2845
NsVvoice
p2846
Vandroid
p2847
sVrails-admin
p2848
Vruby-on-rails
p2849
sVlive-wallpaper
p2850
Vandroid
p2851
sVjoomla1.5
p2852
g552
sVtext-extraction
p2853
g1607
sVserver-push
p2854
Vajax
p2855
sVhebrew
p2856
Vandroid
p2857
sVnetbeans-6.9
p2858
Vjava
p2859
sVcouchdb
p2860
Vnosql
p2861
sVgoogle-apps-script
p2862
NsVleiningen
p2863
Vclojure
p2864
sVlog4j
p2865
Vjava
p2866
sVnio
p2867
Vjava
p2868
sVnil
p2869
Vobjective-c
p2870
sVsignalr-hub
p2871
NsVnib
p2872
Vios
p2873
sVraii
p2874
Vc++
p2875
sVhang
p2876
NsVfuse
p2877
Vlinux
p2878
sVlevenshtein-distance
p2879
Valgorithm
p2880
sVandroid-fragments
p2881
Vandroid
p2882
sVapache-httpclient-4.x
p2883
Vjava
p2884
sVsystem.diagnostics
p2885
NsVdepth-first-search
p2886
Valgorithm
p2887
sVmany-to-many
p2888
Vdjango
p2889
sVcasperjs
p2890
Vjavascript
p2891
sVwebsphere-portal
p2892
NsVsolaris
p2893
g2893
sVphoto
p2894
Vandroid
p2895
sVhttp-status-code-301
p2896
NsVquotes
p2897
Vphp
p2898
sVcurrying
p2899
Vfunctional-programming
p2900
sVonload
p2901
Vjavascript
p2902
sVubuntu-11.04
p2903
Vubuntu
p2904
sVmsxml
p2905
Vxml
p2906
sVopencl
p2907
g1367
sVopencv
p2908
g1572
sVasp.net-mvc-areas
p2909
NsVdatabase-design
p2910
g2910
sVmaya
p2911
Vpython
p2912
sVfilestream
p2913
NsVmicrocontroller
p2914
g2914
sVword-wrap
p2915
Vcss
p2916
sVjekyll
p2917
g230
sVsimplemodal
p2918
Vjquery
p2919
sVscikit-learn
p2920
Vpython
p2921
sVwindows-server-2003
p2922
g140
sVsecurity
p2923
g2923
sVwindows-server-2008
p2924
g138
sVdelphi-xe2
p2925
Vdelphi
p2926
sVtitlebar
p2927
Vandroid
p2928
sVpreg-match-all
p2929
Vphp
p2930
sVnsmutabledictionary
p2931
Vobjective-c
p2932
sVjtabbedpane
p2933
Vjava
p2934
sVfacebook-php-sdk
p2935
NsVcomments
p2936
NsVplone
p2937
NsVwso2
p2938
NsVuigesturerecognizer
p2939
Vios
p2940
sVgeocoding
p2941
g600
sVpaypal-api
p2942
Vphp
p2943
sVrepository
p2944
Vgit
p2945
sVzend-db-table
p2946
Vphp
p2947
sVdelete-row
p2948
Vmysql
p2949
sVtime-series
p2950
g2950
sVsubstitution
p2951
g73
sVpost
p2952
Vphp
p2953
sVproperties
p2954
NsVrstudio
p2955
g136
sVsqlplus
p2956
Voracle
p2957
sVgoogle-maps
p2958
g600
sVasp.net-3.5
p2959
Vasp.net
p2960
sVquery-optimization
p2961
g2961
sVautohotkey
p2962
Vwindows
p2963
sVmsdeploy
p2964
NsVrendering
p2965
Vopengl
p2966
sVhaskell
p2967
g2967
sVsfml
p2968
Vc++
p2969
sVinitializer-list
p2970
Vc++
p2971
sVjdbc
p2972
g2972
sVcompression
p2973
NsVconfiguration-files
p2974
NsVredmine
p2975
Vruby-on-rails
p2976
sVoracle11g
p2977
Voracle
p2978
sVsqldatareader
p2979
NsVwav
p2980
Vaudio
p2981
sVtcpdump
p2982
Vlinux
p2983
sVwar
p2984
Vjava
p2985
sVsqlalchemy
p2986
Vpython
p2987
sVeclipse-emf
p2988
Veclipse
p2989
sVbelongs-to
p2990
Vruby-on-rails
p2991
sVcatalyst
p2992
Vperl
p2993
sVgwt2
p2994
Vgwt
p2995
sVuisearchdisplaycontroller
p2996
Vios
p2997
sVandroid-edittext
p2998
Vandroid
p2999
sVsyscall
p3000
Vlinux
p3001
sVthunderbird
p3002
g161
sVabstract
p3003
Vjava
p3004
sVfulltext
p3005
Vmysql
p3006
sVmysql-error-1064
p3007
Vmysql
p3008
sVfull-text-search
p3009
Vmysql
p3010
sVarchive
p3011
Vphp
p3012
sVyii-db
p3013
Vphp
p3014
sVormlite-servicestack
p3015
NsVdouble-quotes
p3016
Vphp
p3017
sVtruncate
p3018
Vphp
p3019
sVdotnet-httpclient
p3020
NsVnotepad
p3021
Vandroid
p3022
sVurllib2
p3023
Vpython
p3024
sVavaudiorecorder
p3025
g194
sVpushstate
p3026
Vjavascript
p3027
sVapplescript
p3028
g396
sVglobal
p3029
Vphp
p3030
sVpadrino
p3031
g230
sVrectangles
p3032
NsVscrollviewer
p3033
Vwpf
p3034
sVgoogle-fusion-tables
p3035
g600
sVvarnish
p3036
g781
sVflask
p3037
Vpython
p3038
sVgraph
p3039
g3039
sVflash
p3040
g3040
sVjvm
p3041
Vjava
p3042
sVhttp-post
p3043
Vandroid
p3044
sVandroid-testing
p3045
Vandroid
p3046
sVpredicate
p3047
NsVfunctional-testing
p3048
Vtesting
p3049
sVnsdictionary
p3050
Vobjective-c
p3051
sVglobal-asax
p3052
Vasp.net
p3053
sVanonymous
p3054
g2418
sVgui
p3055
Vjava
p3056
sVfftw
p3057
Vc++
p3058
sVhtc
p3059
Vandroid
p3060
sVhta
p3061
NsVphpunit
p3062
Vphp
p3063
sVhdfs
p3064
Vhadoop
p3065
sViphone-sdk-3.0
p3066
g194
sVrelational
p3067
Vdatabase
p3068
sVgawk
p3069
Vawk
p3070
sVapache
p3071
g3071
sVhdf5
p3072
Vpython
p3073
sVtreemap
p3074
Vjava
p3075
sVdb4o
p3076
Vjava
p3077
sVbehat
p3078
NsVxcode5
p3079
Vios
p3080
sVgrails-controller
p3081
g2135
sVapache-camel
p3082
g511
sVfilezilla
p3083
Vftp
p3084
sVgsub
p3085
g230
sVtabpanel
p3086
Vextjs
p3087
sVmongodb-csharp
p3088
Vmongodb
p3089
sVandroid-actionbar
p3090
Vandroid
p3091
sVmarket
p3092
Vandroid
p3093
sVregex
p3094
g73
sVhttpd
p3095
Vphp
p3096
sVrails-activerecord
p3097
Vruby-on-rails
p3098
sVshared-ptr
p3099
Vc++
p3100
sVgoogle-street-view
p3101
g600
sVlive
p3102
Vjquery
p3103
sVhttps
p3104
g3104
sVquartz.net
p3105
NsVruby-1.9.3
p3106
g230
sVavaudiosession
p3107
Vios
p3108
sVcoldfusion-10
p3109
NsVaforge
p3110
NsVmonotouch
p3111
g2468
sVnested-class
p3112
Vc++
p3113
sVwindows-7-x64
p3114
NsVselectonemenu
p3115
Vjsf
p3116
sVlogarithm
p3117
g1711
sVgoogle-closure-compiler
p3118
Vjavascript
p3119
sVgraphic
p3120
Vjava
p3121
sVmemory-alignment
p3122
Vc++
p3123
sVquartz-2d
p3124
Vios
p3125
sVcas
p3126
Vjava
p3127
sVcat
p3128
Vbash
p3129
sViframe
p3130
Vjavascript
p3131
sVsql-injection
p3132
Vphp
p3133
sVsubstring
p3134
g474
sVphpstorm
p3135
Vphp
p3136
sVspl
p3137
Vphp
p3138
sVcopy-constructor
p3139
Vc++
p3140
sVlxml
p3141
Vpython
p3142
sVmsmq
p3143
NsVandroid-alarms
p3144
Vandroid
p3145
sVaccess-control
p3146
Vphp
p3147
sVproduct
p3148
Vmagento
p3149
sVoutlook-2010
p3150
NsVjquery-ui-draggable
p3151
Vjquery
p3152
sVnearest-neighbor
p3153
Valgorithm
p3154
sVaop
p3155
Vjava
p3156
sVcompatibility
p3157
Vandroid
p3158
sVgoogle-cloud-sql
p3159
g97
sVhtml.dropdownlistfor
p3160
NsVinclude-path
p3161
Vphp
p3162
sVgoogle-bigquery
p3163
g97
sVcorona
p3164
NsVscala-2.8
p3165
Vscala
p3166
sVghc
p3167
Vhaskell
p3168
sVzen-cart
p3169
Vphp
p3170
sVrails-routing
p3171
Vruby-on-rails
p3172
sVneural-network
p3173
g3173
sVexcel-interop
p3174
NsVxmldocument
p3175
NsVgraphviz
p3176
NsVeclipse-indigo
p3177
Veclipse
p3178
sVevent-dispatch-thread
p3179
Vjava
p3180
sVstack-trace
p3181
Vjava
p3182
sVpackage-managers
p3183
Vandroid
p3184
sVarduino
p3185
g3185
sVuilabel
p3186
Vios
p3187
sVforms
p3188
g1781
sVyaml
p3189
g230
sVwindow
p3190
Vjavascript
p3191
sVmultiline
p3192
g73
sVsaxon
p3193
Vxslt
p3194
sVfxcop
p3195
NsVerror-logging
p3196
Vjava
p3197
sVember.js
p3198
g3198
sVerror-handling
p3199
Vphp
p3200
sVpass-by-value
p3201
g354
sVrake
p3202
g3202
sVscaling
p3203
Vandroid
p3204
sVcqrs
p3205
NsVwix3
p3206
NsVdrop
p3207
Vjquery
p3208
sVxmlpullparser
p3209
Vandroid
p3210
sVtypetraits
p3211
Vc++
p3212
sVpycharm
p3213
Vpython
p3214
sVel
p3215
Vjsp
p3216
sVjquery-animate
p3217
Vjquery
p3218
sVcairo
p3219
Vpython
p3220
sVhttpwebresponse
p3221
NsVgaussian
p3222
Vmatlab
p3223
sVhighstock
p3224
Vjavascript
p3225
sVphp-5.4
p3226
Vphp
p3227
sVphp-5.3
p3228
Vphp
p3229
sVnaming
p3230
NsVtask-parallel-library
p3231
NsVspace
p3232
Vhtml
p3233
sVelastic-beanstalk
p3234
Vamazon-web-services
p3235
sVsoftware-design
p3236
Vsoftware-engineering
p3237
sVxamarin-studio
p3238
g2468
sVfilewriter
p3239
Vjava
p3240
sVuwsgi
p3241
Vpython
p3242
sVcart
p3243
g3243
sVandroid-ui
p3244
Vandroid
p3245
sVdependencies
p3246
Vmaven
p3247
sVtransition
p3248
Vjquery
p3249
sVstring-formatting
p3250
NsVnsmanagedobject
p3251
g1555
sVlambda
p3252
NsVandroid-resources
p3253
Vandroid
p3254
sVvariables
p3255
g3030
sVsavefiledialog
p3256
NsVmessage
p3257
Vandroid
p3258
sVforwarding
p3259
Vdns
p3260
sVangular
p3261
Vjavascript
p3262
sVsize
p3263
Vandroid
p3264
sVchecked
p3265
Vjquery
p3266
sVyii
p3267
g3014
sVcarousel
p3268
Vjquery
p3269
sVcrash-dumps
p3270
g270
sVfriend
p3271
Vc++
p3272
sVminitest
p3273
g230
sVpecl
p3274
Vphp
p3275
sVpng
p3276
g998
sVthumbnails
p3277
Vphp
p3278
sVmysql-management
p3279
Vmysql
p3280
sVrobots.txt
p3281
g1570
sVgpgpu
p3282
g1367
sVapplet
p3283
Vjava
p3284
sVtitanium-mobile
p3285
g106
sVdjango-orm
p3286
Vdjango
p3287
sVamazon-s3
p3288
g2641
sVbrowser
p3289
Vjavascript
p3290
sVdependency-management
p3291
Vmaven
p3292
sVfork
p3293
g20
sVmvvm
p3294
Vwpf
p3295
sVbufferedimage
p3296
Vjava
p3297
sVgesture-recognition
p3298
Vandroid
p3299
sVresponse.redirect
p3300
Vasp.net
p3301
sVwcf
p3302
g3302
sVandengine
p3303
Vandroid
p3304
sVwatir-webdriver
p3305
g230
sVmobile-safari
p3306
Vjavascript
p3307
sVubercart
p3308
Vdrupal
p3309
sVsql-order-by
p3310
Vmysql
p3311
sVnsnotifications
p3312
Vobjective-c
p3313
sVcarriage-return
p3314
Vphp
p3315
sVscreen-scraping
p3316
Vpython
p3317
sVip-address
p3318
NsVqwebview
p3319
g347
sVupgrade
p3320
Vandroid
p3321
sVtitle
p3322
Vjquery
p3323
sVmonkeyrunner
p3324
Vandroid
p3325
sVhierarchy
p3326
Vsql
p3327
sVadobe-illustrator
p3328
g3328
sVdatatemplate
p3329
Vwpf
p3330
sVlocationmanager
p3331
Vandroid
p3332
sVboolean-logic
p3333
Vjava
p3334
sVfft
p3335
Vsignal-processing
p3336
sVjtextfield
p3337
Vjava
p3338
sVdatamapper
p3339
g230
sVandroid-bluetooth
p3340
Vandroid
p3341
sVwebapp2
p3342
g97
sVpostgis
p3343
Vpostgresql
p3344
sVitemscontrol
p3345
Vwpf
p3346
sVsonar
p3347
Vjava
p3348
sVformtastic
p3349
Vruby-on-rails
p3350
sVgoogle-geocoder
p3351
g600
sVadd-in
p3352
NsVtablesorter
p3353
Vjquery
p3354
sVgdata
p3355
NsVnslayoutconstraint
p3356
Vios
p3357
sVactionscript-3
p3358
g298
sVbetween
p3359
Vmysql
p3360
sVimport
p3361
Vpython
p3362
sVjta
p3363
Vjava
p3364
sVwebsphere
p3365
Vjava
p3366
sVpthreads
p3367
g20
sVanalyzer
p3368
Vlucene
p3369
sVarticle
p3370
g552
sVpixels
p3371
g998
sVexpression-blend
p3372
Vwpf
p3373
sVinstallation
p3374
Vpython
p3375
sVvideo-encoding
p3376
g2
sVmono
p3377
NsVindy10
p3378
Vdelphi
p3379
sVgwt
p3380
g3380
sVembedding
p3381
Vpython
p3382
sVcomet
p3383
g2855
sVinversion-of-control
p3384
NsVcodeigniter-2
p3385
g2211
sVframeset
p3386
Vhtml
p3387
sVosx-lion
p3388
g396
sVdispatch
p3389
Vscala
p3390
sVnokogiri
p3391
g230
sVexploit
p3392
Vsecurity
p3393
sVcaret
p3394
Vjavascript
p3395
sVruntime-error
p3396
Vjava
p3397
sVruby-on-rails-3.1
p3398
Vruby-on-rails
p3399
sVruby-on-rails-3.2
p3400
Vruby-on-rails
p3401
sVgridfs
p3402
Vmongodb
p3403
sVaero
p3404
NsVexternal
p3405
Vjavascript
p3406
sVcodeigniter-url
p3407
g2211
sVnsurlrequest
p3408
Vios
p3409
sVruby
p3410
g230
sVpayment-gateway
p3411
Vphp
p3412
sVlog4net-configuration
p3413
NsVkey-value-coding
p3414
Vobjective-c
p3415
sVuitouch
p3416
Vios
p3417
sVsharepoint-workflow
p3418
Vsharepoint
p3419
sVyahoo-api
p3420
g625
sVorientation
p3421
Vandroid
p3422
sVstdout
p3423
Vpython
p3424
sVdatastore
p3425
g97
sVmedia
p3426
Vandroid
p3427
sVservlets
p3428
g3428
sVmsdtc
p3429
g305
sVepoch
p3430
g635
sVcapybara
p3431
Vruby-on-rails
p3432
sVdocument
p3433
Vjavascript
p3434
sVavl-tree
p3435
Vdata-structures
p3436
sVhadoop-streaming
p3437
Vhadoop
p3438
sVmedia-queries
p3439
Vcss
p3440
sVandroid-viewpager
p3441
Vandroid
p3442
sVscrolltop
p3443
Vjquery
p3444
sVcrystal-reports
p3445
NsV8086
p3446
Vassembly
p3447
sVcore-image
p3448
Vios
p3449
sValfresco
p3450
NsVdata-mining
p3451
g3451
sVsystem.drawing
p3452
NsVbreeze
p3453
Vjavascript
p3454
sVsharepoint-2010
p3455
g964
sVcck
p3456
Vdrupal
p3457
sVprocessbuilder
p3458
Vjava
p3459
sVsqliteopenhelper
p3460
Vandroid
p3461
sVsublimetext
p3462
NsVcocos2d
p3463
g194
sVtouch
p3464
Vandroid
p3465
sVaction-filter
p3466
NsVstruct
p3467
g20
sVimagebutton
p3468
Vandroid
p3469
sVmmap
p3470
Vlinux
p3471
sVdesktop
p3472
Vjava
p3473
sVhover
p3474
Vjquery
p3475
sVandroid-lifecycle
p3476
Vandroid
p3477
sVrules
p3478
Vjava
p3479
sVswig
p3480
Vc++
p3481
sVamd
p3482
Vjavascript
p3483
sVmousemove
p3484
Vjquery
p3485
sVlwjgl
p3486
Vjava
p3487
sVappkit
p3488
Vcocoa
p3489
sVexecution
p3490
Vphp
p3491
sVdeep-copy
p3492
Vjava
p3493
sVandroid-listview
p3494
Vandroid
p3495
sVblackberry
p3496
g790
sVoutput
p3497
Vjava
p3498
sVcomputer-science
p3499
Valgorithm
p3500
sVdjango-queries
p3501
Vdjango
p3502
sVstrcmp
p3503
g163
sVcisco
p3504
g3504
sVuppercase
p3505
NsVandroid-c2dm
p3506
Vandroid
p3507
sVfgets
p3508
g1703
sVejb-3.0
p3509
Vjava
p3510
sVbigdata
p3511
g3511
sVinno-setup
p3512
NsVuser-profile
p3513
Vdjango
p3514
sVassembly
p3515
g3515
sVpylons
p3516
Vpython
p3517
sVdatabase-performance
p3518
Vmysql
p3519
sVtdd
p3520
g3520
sVontology
p3521
NsVthrow
p3522
g1641
sVmovieclip
p3523
g298
sVcrystal-reports-2010
p3524
NsVsrc
p3525
g998
sVazureservicebus
p3526
NsVstruts2
p3527
g467
sVbackup
p3528
Vmysql
p3529
sVprocessor
p3530
g1703
sVoutlook
p3531
NsVprovisioning-profile
p3532
Vios
p3533
sVsplash-screen
p3534
Vandroid
p3535
sVsuppress-warnings
p3536
Vjava
p3537
sVweight
p3538
Vandroid
p3539
sVopengl
p3540
g3540
sVarel
p3541
Vruby-on-rails
p3542
sVnpapi
p3543
Vjquery
p3544
sVmouseenter
p3545
Vjquery
p3546
sVwindows-server-2008-r2
p3547
Vasp.net
p3548
sVmultitasking
p3549
g194
sVembedded
p3550
g3550
sVasp.net-mvc-2
p3551
NsVasp.net-mvc-3
p3552
NsVasp.net-mvc-4
p3553
NsVasp.net-mvc-5
p3554
NsVdefine
p3555
g1703
sVandroid-alertdialog
p3556
Vandroid
p3557
sVcakephp-appmodel
p3558
Vphp
p3559
sVinner-classes
p3560
Vjava
p3561
sVboost-spirit-qi
p3562
Vc++
p3563
sVibatis
p3564
Vjava
p3565
sVminify
p3566
Vjavascript
p3567
sVstorage
p3568
g3568
sVringtone
p3569
Vandroid
p3570
sVpear
p3571
Vphp
p3572
sVregistry
p3573
Vwindows
p3574
sVpool
p3575
Vjava
p3576
sVbulk
p3577
Vmysql
p3578
sVandroid-progressbar
p3579
Vandroid
p3580
sVpowershell-v2.0
p3581
Vpowershell
p3582
sVxcopy
p3583
g2221
sVvalidator
p3584
Vjquery
p3585
sVdigital-certificate
p3586
Vjava
p3587
sVsemantic
p3588
Vhtml
p3589
sVgoogle-spreadsheet-api
p3590
NsVsplitting
p3591
g474
sVmp4
p3592
g2
sVweb-worker
p3593
Vjavascript
p3594
sVopenlayers
p3595
Vjavascript
p3596
sVsharepoint2013
p3597
Vsharepoint
p3598
sVandroid-mediaplayer
p3599
Vandroid
p3600
sViconv
p3601
Vphp
p3602
sVicons
p3603
Vandroid
p3604
sVandroid-cursor
p3605
Vandroid
p3606
sVwmi
p3607
NsVnodes
p3608
Vxml
p3609
sVportforwarding
p3610
Vssh
p3611
sVmpi
p3612
g20
sVsortable
p3613
Vjquery
p3614
sVdatatrigger
p3615
Vwpf
p3616
sVswiftmailer
p3617
Vphp
p3618
sVmapreduce
p3619
g3619
sVurlencode
p3620
Vphp
p3621
sVandroid-permissions
p3622
Vandroid
p3623
sVcookies
p3624
g2005
sVinstagram
p3625
g2715
sVmojarra
p3626
Vjsf
p3627
sVpivot-table
p3628
NsVreportingservices-2005
p3629
NsVcertificates
p3630
Vssl
p3631
sVnant
p3632
NsVmodify
p3633
Vjava
p3634
sVgrails-2.0
p3635
g2135
sVcaliburn.micro
p3636
Vwpf
p3637
sVpopen
p3638
Vpython
p3639
sVundefined-reference
p3640
Vc++
p3641
sVadvertising
p3642
Vandroid
p3643
sVpermutation
p3644
Valgorithm
p3645
sVinvalidate
p3646
Vandroid
p3647
sVjre
p3648
Vandroid
p3649
sVshuffle
p3650
Vjava
p3651
sVhlsl
p3652
g562
sVcustom-fields
p3653
Vwordpress
p3654
sVjoomla2.5
p3655
g552
sVhref
p3656
Vhtml
p3657
sVadd-on
p3658
g1948
sVhelper
p3659
Vruby-on-rails
p3660
sVjavascript-framework
p3661
Vjavascript
p3662
sVjcarousel
p3663
Vjquery
p3664
sVcontains
p3665
NsVvi
p3666
NsVauthorization
p3667
g28
sVquickbooks-online
p3668
NsVtemp-tables
p3669
Vsql
p3670
sVhashcode
p3671
Vjava
p3672
sVitext
p3673
Vjava
p3674
sVgit-branch
p3675
Vgit
p3676
sVmodalpopupextender
p3677
Vasp.net
p3678
sVazure-worker-roles
p3679
NsVgql
p3680
g97
sVnetbeans-7
p3681
Vjava
p3682
sVmvvm-light
p3683
g3295
sVhistory
p3684
Vjavascript
p3685
sVswfobject
p3686
Vflash
p3687
sVf#
p3688
NsVmagento
p3689
g3689
sVexclude
p3690
g73
sVdjango-models
p3691
Vdjango
p3692
sVspreadsheet
p3693
NsVoracle10g
p3694
Voracle
p3695
sVpygame
p3696
Vpython
p3697
sVshell-exec
p3698
Vphp
p3699
sVpiglatin
p3700
Vhadoop
p3701
sVopengl-es-2.0
p3702
Vandroid
p3703
sVtextview
p3704
Vandroid
p3705
sVpowerbuilder
p3706
NsVexcel-2010
p3707
NsVcoldfusion-9
p3708
NsVcoldfusion-8
p3709
NsVfirebreath
p3710
Vc++
p3711
sVgruntjs
p3712
Vjavascript
p3713
sVtext-editor
p3714
Vjavascript
p3715
sVscss
p3716
Vcss
p3717
sVapplication-settings
p3718
NsVdocumentation
p3719
Vpython
p3720
sVhsqldb
p3721
Vjava
p3722
sVinline
p3723
Vc++
p3724
sVuninstall
p3725
Vandroid
p3726
sVphotoshop
p3727
g3727
sV2d-array
p3728
Vjava
p3729
sVasp.net-4.5
p3730
Vasp.net
p3731
sVtaxonomy
p3732
Vwordpress
p3733
sVmockito
p3734
Vjava
p3735
sVasp.net-4.0
p3736
Vasp.net
p3737
sVssh-keys
p3738
Vssh
p3739
sVskinning
p3740
g298
sVios-simulator
p3741
g194
sVffi
p3742
Vhaskell
p3743
sVcustom-controls
p3744
NsVinfinite-loop
p3745
Vjava
p3746
sVaggregation-framework
p3747
Vmongodb
p3748
sVpsycopg2
p3749
Vpython
p3750
sVselenium
p3751
g3751
sVaccess-token
p3752
NsVdynamic-memory-allocation
p3753
Vc++
p3754
sVfreeze
p3755
Vjava
p3756
sVterrain
p3757
Vopengl
p3758
sVio-redirection
p3759
Vbash
p3760
sVtextwrapping
p3761
Vcss
p3762
sVfile-handling
p3763
g163
sVreferrer
p3764
Vphp
p3765
sVdecimal
p3766
NsVpreferenceactivity
p3767
Vandroid
p3768
sVcordova-2.0.0
p3769
Vandroid
p3770
sVfluent-interface
p3771
NsVsingle-sign-on
p3772
Vjava
p3773
sVtext-processing
p3774
Vpython
p3775
sVgemfile
p3776
Vruby-on-rails
p3777
sVpreg-replace
p3778
Vphp
p3779
sVpublish
p3780
Vasp.net
p3781
sVtask-queue
p3782
g97
sVjquery-effects
p3783
Vjquery
p3784
sVast
p3785
Vjava
p3786
sVtimeline
p3787
Vjavascript
p3788
sVsymbian
p3789
g347
sVbase
p3790
NsVput
p3791
Vrest
p3792
sVfluid-layout
p3793
Vcss
p3794
sVrecv
p3795
g10
sVbash
p3796
g3796
sVlaunch
p3797
Vandroid
p3798
sVdrupal
p3799
g3799
sVcaption
p3800
Vjquery
p3801
sVshellexecute
p3802
Vc++
p3803
sVassign
p3804
Vc++
p3805
sVtabitem
p3806
Vwpf
p3807
sVsingleton
p3808
Vjava
p3809
sVacts-as-taggable-on
p3810
Vruby-on-rails
p3811
sVprobability
p3812
g3812
sVencoding
p3813
g1178
sVv8
p3814
Vjavascript
p3815
sVlarge-data
p3816
Vmysql
p3817
sVfile-transfer
p3818
Vandroid
p3819
sVlucene-index
p3820
Vlucene
p3821
sVbinaryfiles
p3822
Vc++
p3823
sVweblogic
p3824
Vjava
p3825
sVexpand
p3826
g1481
sVcluster-analysis
p3827
g1271
sVzeromq
p3828
Vpython
p3829
sVscheme
p3830
g3830
sVslidedown
p3831
Vjquery
p3832
sVschema
p3833
Vxml
p3834
sVascx
p3835
Vasp.net
p3836
sVgetter
p3837
NsVbower
p3838
Vjavascript
p3839
sVmultiple-instances
p3840
Vjquery
p3841
sVtranslation
p3842
NsVtfs
p3843
NsVstd
p3844
Vc++
p3845
sVdto
p3846
NsVffmpeg
p3847
g2
sVstl
p3848
Vc++
p3849
sV.htaccess
p3850
NsVdtd
p3851
Vxml
p3852
sVgedit
p3853
Vpython
p3854
sVnull
p3855
Vjava
p3856
sVfacebook-canvas
p3857
NsVkoala
p3858
Vruby-on-rails
p3859
sVpython-2.7
p3860
Vpython
p3861
sVpython-2.6
p3862
Vpython
p3863
sVpython-2.5
p3864
Vpython
p3865
sVboxplot
p3866
g1271
sVzepto
p3867
Vjavascript
p3868
sVraspberry-pi
p3869
g3869
sVbug-tracking
p3870
NsVquote
p3871
Vphp
p3872
sVmultilingual
p3873
Vphp
p3874
sVnsoperationqueue
p3875
Vios
p3876
sValpha
p3877
Vandroid
p3878
sVpython-2.x
p3879
Vpython
p3880
sVexecutable-jar
p3881
Vjava
p3882
sVmobile
p3883
g390
sVclear
p3884
Vcss
p3885
sVnsdateformatter
p3886
Vobjective-c
p3887
sVvelocity
p3888
Vjava
p3889
sVblend
p3890
Vwpf
p3891
sVflicker
p3892
Vjquery
p3893
sVtastypie
p3894
Vdjango
p3895
sVscrollview
p3896
Vandroid
p3897
sVlanguage-features
p3898
NsVparameters
p3899
NsVgoogle-play
p3900
Vandroid
p3901
sVcontroltemplate
p3902
Vwpf
p3903
sVcircle
p3904
Vandroid
p3905
sVglut
p3906
Vopengl
p3907
sVjquery
p3908
g3908
sVhotmail
p3909
g161
sVdata-access-layer
p3910
NsVcombinations
p3911
Valgorithm
p3912
sVgrep
p3913
Vbash
p3914
sVfacebook-ios-sdk
p3915
Vios
p3916
sVegit
p3917
Veclipse
p3918
sVboost
p3919
Vc++
p3920
sVgit-rebase
p3921
Vgit
p3922
sVbusiness-logic
p3923
NsVlocale
p3924
Vjava
p3925
sVcore-audio
p3926
g2494
sVculture
p3927
NsVrtmp
p3928
Vflash
p3929
sVportrait
p3930
g194
sVqtip
p3931
Vjquery
p3932
sVkeypress
p3933
Vjquery
p3934
sVxna-4.0
p3935
NsVscalability
p3936
g1228
sVcore-location
p3937
Vios
p3938
sVknockout.js
p3939
g3939
sVboto
p3940
Vpython
p3941
sVbox2d-iphone
p3942
g194
sVprimary-key
p3943
Vmysql
p3944
sVfileinputstream
p3945
Vjava
p3946
sVbots
p3947
g380
sVruby-on-rails-4
p3948
Vruby-on-rails
p3949
sVruby-on-rails-2
p3950
Vruby-on-rails
p3951
sVruby-on-rails-3
p3952
Vruby-on-rails
p3953
sVbattery
p3954
Vandroid
p3955
sVheader
p3956
Vphp
p3957
sVlinux
p3958
g3958
sVfacebook-fql
p3959
NsVdestructor
p3960
Vc++
p3961
sVhtml-form
p3962
Vhtml
p3963
sVspecial-characters
p3964
Vphp
p3965
sVmaintenance
p3966
g228
sVwill-paginate
p3967
Vruby-on-rails
p3968
sVshortcode
p3969
Vwordpress
p3970
sVandroid-maps
p3971
Vandroid
p3972
sVbrowser-cache
p3973
g781
sVcovariance
p3974
NsVserversocket
p3975
Vjava
p3976
sVtwitter-bootstrap-3
p3977
g569
sVwakelock
p3978
Vandroid
p3979
sVimap
p3980
Vphp
p3981
sVfloating-point
p3982
g1703
sVpublish-subscribe
p3983
Vjavascript
p3984
sVresponsive-design
p3985
Vcss
p3986
sVmainframe
p3987
NsVchecksum
p3988
g1552
sVbookmarklet
p3989
Vjavascript
p3990
sVprolog
p3991
g3991
sVmalloc
p3992
g1703
sVjpa
p3993
g341
sVskype
p3994
NsVgimp
p3995
Vpython
p3996
sVautosize
p3997
NsVfedora
p3998
g3998
sVlibcurl
p3999
Vphp
p4000
sVtext-to-speech
p4001
Vandroid
p4002
sVjpa-2.0
p4003
Vjava
p4004
sVmodel-binding
p4005
NsVzope
p4006
NsVcomposition
p4007
Vc++
p4008
sVconflict
p4009
Vjquery
p4010
sVinterpolation
p4011
Vpython
p4012
sVstorekit
p4013
Vios
p4014
sVandroid-sqlite
p4015
Vandroid
p4016
sVbrowser-history
p4017
Vjavascript
p4018
sVmshtml
p4019
NsVgsp
p4020
g2135
sVsha1
p4021
g230
sVdojox.grid.datagrid
p4022
g147
sVdatabase
p4023
g4023
sVdocker
p4024
NsVrbenv
p4025
g230
sVgsl
p4026
Vc++
p4027
sVc++builder
p4028
Vc++
p4029
sVpacket-sniffers
p4030
NsVcout
p4031
Vc++
p4032
sVtinymce
p4033
Vjavascript
p4034
sVpywin32
p4035
Vpython
p4036
sVunique-constraint
p4037
Vsql
p4038
sVjdeveloper
p4039
Vjava
p4040
sVlibpcap
p4041
g163
sVormlite
p4042
Vandroid
p4043
sVshortcut
p4044
Vandroid
p4045
sVvsix
p4046
NsVreportviewer
p4047
NsVtransformation
p4048
Vxslt
p4049
sVpython-multithreading
p4050
Vpython
p4051
sVnginx
p4052
g4052
sVoverriding
p4053
Vjava
p4054
sVactivex
p4055
NsVsubmission
p4056
g1781
sVnsview
p4057
Vcocoa
p4058
sVmanifest
p4059
Vandroid
p4060
sVwordpress-plugin-dev
p4061
Vwordpress
p4062
sVwininet
p4063
Vc++
p4064
sVterminology
p4065
Vjava
p4066
sVfreebase
p4067
NsVcreation
p4068
Vjava
p4069
sVsame-origin-policy
p4070
Vjavascript
p4071
sVdocusignapi
p4072
NsVwarnings
p4073
Vphp
p4074
sVid3
p4075
g2529
sVmaven-assembly-plugin
p4076
Vmaven
p4077
sVcgi
p4078
g4078
sVrun
p4079
Vjava
p4080
sVprocessing
p4081
Vjava
p4082
sVbitmapfactory
p4083
Vandroid
p4084
sVjdbctemplate
p4085
Vspring
p4086
sVwindows-store
p4087
NsVgnome
p4088
Vlinux
p4089
sVtracing
p4090
NsVgithub-api
p4091
g1362
sVsimulation
p4092
Vjava
p4093
sVidl
p4094
Vc++
p4095
sVdatasource
p4096
NsVjsp
p4097
g4097
sVide
p4098
Veclipse
p4099
sVshiny
p4100
g1271
sVandroid-contacts
p4101
Vandroid
p4102
sVblock
p4103
g230
sVactive-directory
p4104
NsVgtkmm
p4105
Vc++
p4106
sVweb-crawler
p4107
g1169
sVperl
p4108
g4108
sVperformancecounter
p4109
NsVstatistics
p4110
g4110
sVinstance-variables
p4111
g230
sVapp-engine-ndb
p4112
g97
sVheroku
p4113
Vruby-on-rails
p4114
sVandroid-file
p4115
Vandroid
p4116
sVstatic-linking
p4117
Vc++
p4118
sVinjection
p4119
Vphp
p4120
sVrequestfactory
p4121
Vgwt
p4122
sVfacebook-sharer
p4123
NsVutc
p4124
NsVutf
p4125
g1178
sVmiddleware
p4126
Vnode.js
p4127
sVviewbag
p4128
NsVaccessibility
p4129
Vhtml
p4130
sVxslt-1.0
p4131
Vxslt
p4132
sVflowplayer
p4133
Vjavascript
p4134
sVnsuserdefaults
p4135
Vios
p4136
sVgecko
p4137
g1948
sVcross-compiling
p4138
Vlinux
p4139
sVpolygon
p4140
Vgeometry
p4141
sVfirst-responder
p4142
Vios
p4143
sVnan
p4144
Vjavascript
p4145
sVnav
p4146
Vcss
p4147
sVnat
p4148
g4148
sVload-balancing
p4149
g4149
sVpandas
p4150
Vpython
p4151
sVdraw
p4152
Vandroid
p4153
sVmongodb
p4154
g4154
sVcaching
p4155
g781
sVdrag
p4156
g3208
sVeval
p4157
Vjavascript
p4158
sVstructure
p4159
g2360
sVnsdocument
p4160
Vcocoa
p4161
sVwebdriver
p4162
Vjava
p4163
sVsvm
p4164
g4164
sVzooming
p4165
Vandroid
p4166
sVsvg
p4167
g2451
sVdjango-registration
p4168
Vdjango
p4169
sVrequired
p4170
g1418
sVyoutube
p4171
NsVdepth
p4172
Vopengl
p4173
sVcustom-component
p4174
Vandroid
p4175
sVblackberry-jde
p4176
g790
sVaccess-violation
p4177
Vc++
p4178
sVmsbuild
p4179
NsVjson.net
p4180
NsVgd
p4181
Vphp
p4182
sVgo
p4183
g97
sVuistoryboardsegue
p4184
Vios
p4185
sVinformation-retrieval
p4186
g4186
sVwizard
p4187
Vasp.net
p4188
sVtext-alignment
p4189
Vcss
p4190
sVrollback
p4191
g305
sVgamekit
p4192
Vios
p4193
sVflickr-api
p4194
NsVdrupal-theming
p4195
Vdrupal
p4196
sVtortoisegit
p4197
Vgit
p4198
sVbit-shift
p4199
g2360
sVmercurial
p4200
g1460
sVbutton
p4201
Vandroid
p4202
sVspring-jdbc
p4203
Vjava
p4204
sVhive
p4205
g4205
sVolap
p4206
g4206
sVgeospatial
p4207
Vmongodb
p4208
sVglfw
p4209
Vopengl
p4210
sVtidesdk
p4211
Vjavascript
p4212
sVpicker
p4213
Vandroid
p4214
sVzk
p4215
Vjava
p4216
sVdownload
p4217
Vphp
p4218
sVclick
p4219
Vjquery
p4220
sVphpdoc
p4221
Vphp
p4222
sVresque
p4223
Vruby-on-rails
p4224
sVcell
p4225
Vhtml
p4226
sVimporterror
p4227
Vpython
p4228
sVvolatile
p4229
Vjava
p4230
sVvb6
p4231
NsVplayn
p4232
Vjava
p4233
sVdrools
p4234
g3479
sVdrupal-7
p4235
Vdrupal
p4236
sVdrupal-6
p4237
Vdrupal
p4238
sVmatplotlib
p4239
Vpython
p4240
sVlogout
p4241
Vphp
p4242
sVaccessor
p4243
NsVz3
p4244
NsVinfopath
p4245
Vsharepoint
p4246
sVvba
p4247
NsVuikit
p4248
g194
sVvbo
p4249
Vopengl
p4250
sVproducts
p4251
Vmagento
p4252
sVautomatic-ref-counting
p4253
Vobjective-c
p4254
sVperl-module
p4255
Vperl
p4256
sVwif
p4257
g2815
sVoutlook-addin
p4258
NsVrealloc
p4259
g2360
sVnsattributedstring
p4260
Vios
p4261
sVreadfile
p4262
Vphp
p4263
sVontouchevent
p4264
Vandroid
p4265
sVboolean
p4266
g3334
sVteam-foundation-service
p4267
NsVstatic-analysis
p4268
Vjava
p4269
sVcloud
p4270
g4270
sVwix
p4271
NsVdjango-haystack
p4272
Vdjango
p4273
sVdelphi-2010
p4274
Vdelphi
p4275
sVnuget
p4276
NsVcamera
p4277
Vandroid
p4278
sVqunit
p4279
g4279
sVmod-proxy
p4280
Vapache
p4281
sVpowermock
p4282
Vjava
p4283
sVresize
p4284
Vjquery
p4285
sVemail-validation
p4286
g73
sVanonymous-types
p4287
NsVphing
p4288
Vphp
p4289
sVperformance-testing
p4290
g1228
sVinternet-explorer-11
p4291
g1379
sVinternet-explorer-10
p4292
Vjavascript
p4293
sVnetwork-protocols
p4294
g820
sVcontrol
p4295
NsVlinks
p4296
Vhtml
p4297
sVsocketexception
p4298
Vjava
p4299
sVsudo
p4300
Vlinux
p4301
sVsuds
p4302
Vpython
p4303
sVwebmatrix
p4304
NsVevent-log
p4305
NsVuibarbuttonitem
p4306
Vios
p4307
sVjoomla-extensions
p4308
g552
sVuibinder
p4309
Vgwt
p4310
sVpyqt
p4311
Vpython
p4312
sVscriptaculous
p4313
Vjavascript
p4314
sVjwplayer
p4315
Vjavascript
p4316
sVgalleria
p4317
Vjquery
p4318
sVdesktop-application
p4319
NsValertdialog
p4320
Vandroid
p4321
sVpydev
p4322
Veclipse
p4323
sVxmlns
p4324
Vxml
p4325
sVexport-to-csv
p4326
Vpython
p4327
sVvisual-studio-team-system
p4328
NsVthread-safety
p4329
Vmultithreading
p4330
sVasmx
p4331
Vjava
p4332
sVjna
p4333
Vjava
p4334
sVgpuimage
p4335
Vios
p4336
sVinterceptor
p4337
Vjava
p4338
sVrestful-authentication
p4339
Vrest
p4340
sVsubversive
p4341
Vsvn
p4342
sVphpbb3
p4343
Vphp
p4344
sVsmtpclient
p4345
NsVclient-certificates
p4346
Vssl
p4347
sVpaperclip
p4348
Vruby-on-rails
p4349
sVpixel
p4350
g998
sVfactorial
p4351
g108
sVauto
p4352
Vc++
p4353
sVnokia
p4354
g790
sVms-word
p4355
NsVsmarty
p4356
Vphp
p4357
sVqgraphicsitem
p4358
g347
sVcakephp
p4359
g3559
sVxpcom
p4360
g1948
sVstoryboard
p4361
Vios
p4362
sVmodx
p4363
NsVweak-references
p4364
Vjava
p4365
sVslide
p4366
Vjquery
p4367
sViphone-privateapi
p4368
Vios
p4369
sVtabcontrol
p4370
NsVjsp-tags
p4371
Vjsp
p4372
sVbluetooth
p4373
g4373
sVimage-processing
p4374
g4374
sVcitrix
p4375
g4375
sVmargins
p4376
Vcss
p4377
sVtransitions
p4378
Vcss
p4379
sVobjectdatasource
p4380
Vasp.net
p4381
sVios-4.2
p4382
g194
sVreboot
p4383
Vandroid
p4384
sVcritical-section
p4385
Vmultithreading
p4386
sVnsregularexpression
p4387
g73
sVnstask
p4388
Vobjective-c
p4389
sViostream
p4390
Vc++
p4391
sVwatermark
p4392
Vphp
p4393
sVhl7
p4394
NsVeventlistener
p4395
Vjavascript
p4396
sVundo
p4397
NsVqt-creator
p4398
g347
sVgeometry
p4399
g4399
sVdeprecated
p4400
Vjava
p4401
sVroute
p4402
Vphp
p4403
sVspoj
p4404
Valgorithm
p4405
sVtimer
p4406
NsVblogger
p4407
Vjavascript
p4408
sVm2eclipse
p4409
Veclipse
p4410
sVjcombobox
p4411
Vjava
p4412
sVeclipse-adt
p4413
Vandroid
p4414
sVgoogle-chrome-devtools
p4415
g2252
sVplaylist
p4416
Vjavascript
p4417
sVprivacy
p4418
NsVmkdir
p4419
Vphp
p4420
sVwrapper
p4421
Vc++
p4422
sVattach
p4423
Vandroid
p4424
sVhttp-status-codes
p4425
Vjava
p4426
sVphp-extension
p4427
Vphp
p4428
sVfinal
p4429
Vjava
p4430
sVnsnumberformatter
p4431
Vobjective-c
p4432
sVws-security
p4433
g4332
sVrsa
p4434
g1008
sVmanipulation
p4435
g474
sVrequiredfieldvalidator
p4436
Vasp.net
p4437
sVupdating
p4438
Vandroid
p4439
sVrss
p4440
g1798
sVandroid-custom-view
p4441
Vandroid
p4442
sVfscanf
p4443
g20
sVfragment-shader
p4444
Vopengl
p4445
sVvideo-processing
p4446
g2
sVtabs
p4447
Vandroid
p4448
sVunpivot
p4449
Vsql
p4450
sVborder
p4451
Vcss
p4452
sVfluent
p4453
NsVmicrophone
p4454
Vaudio
p4455
sVcascade
p4456
Vhibernate
p4457
sVinstance
p4458
Vc++
p4459
sVcocoa-bindings
p4460
Vcocoa
p4461
sVjavacv
p4462
g1572
sVmongrel
p4463
Vruby-on-rails
p4464
sVjboss5.x
p4465
Vjava
p4466
sVuiinterfaceorientation
p4467
Vios
p4468
sVawt
p4469
Vjava
p4470
sVvalue-type
p4471
NsVawk
p4472
g4472
sVoptional-parameters
p4473
NsVframe-rate
p4474
Vandroid
p4475
sVgallery
p4476
Vandroid
p4477
sVepub
p4478
Vandroid
p4479
sVurl
p4480
g1037
sVindy
p4481
Vdelphi
p4482
sVuri
p4483
Vandroid
p4484
sVspam-prevention
p4485
Vphp
p4486
sVsnapshot
p4487
Vmaven
p4488
sVclass-library
p4489
NsVloadrunner
p4490
g4490
sVeclipselink
p4491
g341
sVcss-selectors
p4492
Vcss
p4493
sVrmagick
p4494
g230
sVdotnetopenauth
p4495
g1213
sVhector
p4496
Vcassandra
p4497
sVangularjs-routing
p4498
Vangularjs
p4499
sVspring-security
p4500
Vspring
p4501
sVauto-update
p4502
Vandroid
p4503
sVubuntu-12.04
p4504
Vubuntu
p4505
sVitemrenderer
p4506
g298
sVstrpos
p4507
Vphp
p4508
sVtwilio
p4509
Vphp
p4510
sVtbb
p4511
Vc++
p4512
sVscrolling
p4513
Vjquery
p4514
sVprocesses
p4515
NsVnskeyedarchiver
p4516
Vobjective-c
p4517
sVnsbutton
p4518
Vcocoa
p4519
sVcoronasdk
p4520
NsVsha
p4521
g230
sVdatetime-format
p4522
NsVgit-svn
p4523
Vgit
p4524
sVdpi
p4525
Vandroid
p4526
sVcognos
p4527
g4527
sVopenoffice.org
p4528
g2301
sVmulti-select
p4529
Vjquery
p4530
sVpreventdefault
p4531
Vjquery
p4532
sVjavasound
p4533
Vjava
p4534
sVsetup-deployment
p4535
NsVandroid-adapter
p4536
Vandroid
p4537
sVresourcebundle
p4538
Vjava
p4539
sVlegacy
p4540
Vjava
p4541
sVafnetworking
p4542
Vios
p4543
sVreverse-engineering
p4544
Vjava
p4545
sVxerces
p4546
Vxml
p4547
sVstanford-nlp
p4548
Vnlp
p4549
sVlua
p4550
NsVstate
p4551
Vandroid
p4552
sVstata
p4553
g4553
sVmasking
p4554
Vjquery
p4555
sVflickr
p4556
NsVcomparable
p4557
Vjava
p4558
sVangularjs-directive
p4559
Vangularjs
p4560
sVfacebook-apps
p4561
NsVsharedpreferences
p4562
Vandroid
p4563
sVgroup
p4564
Vmysql
p4565
sVadmin
p4566
Vdjango
p4567
sVubuntu-10.04
p4568
Vlinux
p4569
sVandroid-notifications
p4570
Vandroid
p4571
sVdocumentation-generation
p4572
g3720
sVjersey
p4573
Vjava
p4574
sVfbml
p4575
NsVthickbox
p4576
Vjquery
p4577
sVvxworks
p4578
g2360
sVmodel-associations
p4579
Vruby-on-rails
p4580
sVversion-control
p4581
g1460
sVemail-integration
p4582
g161
sVandroid-webview
p4583
Vandroid
p4584
sVandroid-button
p4585
Vandroid
p4586
sVcultureinfo
p4587
NsVaddition
p4588
Vjava
p4589
sVpcap
p4590
g2360
sVcore-data
p4591
g1555
sVuitableviewcell
p4592
Vios
p4593
sVaggregate-functions
p4594
Vsql
p4595
sVusername
p4596
Vphp
p4597
sVxlsx
p4598
NsVpic
p4599
g2360
sVmysql-real-escape-string
p4600
Vphp
p4601
sVtweets
p4602
g1975
sVcontroller
p4603
Vruby-on-rails
p4604
sVandroid-sdcard
p4605
Vandroid
p4606
sVotp
p4607
Verlang
p4608
sVboost-graph
p4609
Vc++
p4610
sVxpages
p4611
NsVgoogle-maps-android-api-2
p4612
Vandroid
p4613
sVdvcs
p4614
g1460
sVjquery-deferred
p4615
Vjquery
p4616
sVhttp-status-code-500
p4617
Vphp
p4618
sVopenstreetmap
p4619
Vandroid
p4620
sVdotnetzip
p4621
NsVsqlbulkcopy
p4622
NsVuiimageview
p4623
Vios
p4624
sVsurface
p4625
Vwpf
p4626
sVjquery-events
p4627
Vjavascript
p4628
sVcapture
p4629
NsVqgraphicsscene
p4630
g347
sVmatcher
p4631
Vjava
p4632
sVclassnotfoundexception
p4633
Vjava
p4634
sVhttp
p4635
g4426
sVvideo-streaming
p4636
Vandroid
p4637
sVn-tier-architecture
p4638
NsVeffect
p4639
Vjquery
p4640
sVspree
p4641
Vruby-on-rails
p4642
sVpolymorphism
p4643
Vc++
p4644
sVreflection
p4645
NsVandroid-volley
p4646
Vandroid
p4647
sVfluent-nhibernate-mapping
p4648
NsVdraggable
p4649
Vjquery
p4650
sVcase-insensitive
p4651
g522
sVfacebook-comments
p4652
NsVweb-deployment
p4653
Vasp.net
p4654
sVrestore
p4655
g3529
sVlotus-notes
p4656
NsVflyway
p4657
Vjava
p4658
sVlexical-analysis
p4659
g513
sVvirtual
p4660
Vc++
p4661
sVlow-level
p4662
g20
sVexception-handling
p4663
NsVextends
p4664
Vjava
p4665
sVfacebook-like
p4666
NsVapplication-server
p4667
Vjava
p4668
sVadodb
p4669
Vphp
p4670
sVravendb
p4671
NsVitemtemplate
p4672
Vwpf
p4673
sVplsql
p4674
g4674
sVemgucv
p4675
NsVonmouseover
p4676
Vjavascript
p4677
sVintersection
p4678
Vjava
p4679
sVuislider
p4680
Vios
p4681
sVcountdowntimer
p4682
Vandroid
p4683
sVxss
p4684
Vjavascript
p4685
sVcontrollers
p4686
Vruby-on-rails
p4687
sVxquery
p4688
g2370
sVobjective-c-blocks
p4689
Vobjective-c
p4690
sVservlet-filters
p4691
Vjava
p4692
sVmonotouch.dialog
p4693
g2468
sVandroid-orientation
p4694
Vandroid
p4695
sVandroid-xml
p4696
Vandroid
p4697
sVportlet
p4698
NsVhome
p4699
Vandroid
p4700
sVborland
p4701
Vc++
p4702
sVinner-join
p4703
Vmysql
p4704
sVgoogle-sites
p4705
NsVkettle
p4706
NsVoverlap
p4707
Vcss
p4708
sVdjango-views
p4709
Vdjango
p4710
sVjcrop
p4711
Vjquery
p4712
sVbackground-color
p4713
Vcss
p4714
sVoffset
p4715
Vjquery
p4716
sVjava
p4717
g4717
sVboost-asio
p4718
Vc++
p4719
sVpaypal-subscriptions
p4720
g238
sVwindows-shell
p4721
Vwindows
p4722
sVfile-system
p4723
Vjava
p4724
sVh2
p4725
Vjava
p4726
sVnested-forms
p4727
Vruby-on-rails
p4728
sVcocoa
p4729
g4729
sVdev-c++
p4730
Vc++
p4731
sVbson
p4732
Vmongodb
p4733
sVw3c
p4734
Vhtml
p4735
sVnetworking
p4736
g820
sVembedded-linux
p4737
Vlinux
p4738
sVprojects-and-solutions
p4739
NsVhistogram
p4740
g136
sVoverflow
p4741
Vcss
p4742
sVear
p4743
Vjava
p4744
sVconverter
p4745
NsVcells
p4746
NsVhosting
p4747
g4747
sVsigned
p4748
Vc
p4749
sVlimit
p4750
Vmysql
p4751
sVvoid-pointers
p4752
g163
sVdevise
p4753
Vruby-on-rails
p4754
sVandroid-emulator
p4755
Vandroid
p4756
sVdatacontract
p4757
Vwcf
p4758
sValassetslibrary
p4759
Vios
p4760
sVmod-wsgi
p4761
Vdjango
p4762
sVinotifypropertychanged
p4763
NsVmaster-detail
p4764
Vios
p4765
sVmeteor
p4766
Vjavascript
p4767
sVxsd-validation
p4768
Vxml
p4769
sVvtable
p4770
Vc++
p4771
sVjsni
p4772
Vgwt
p4773
sVssms
p4774
g228
sVslideshow
p4775
Vjquery
p4776
sVcpu-usage
p4777
g1228
sVbuffer-overflow
p4778
g2360
sVwamp
p4779
Vphp
p4780
sVfeature-detection
p4781
g1572
sVsphinx
p4782
Vphp
p4783
sVusing
p4784
NsVantialiasing
p4785
g2389
sVblogs
p4786
Vwordpress
p4787
sVflex4.6
p4788
g298
sVpersistent
p4789
Vhaskell
p4790
sVflex4.5
p4791
g298
sVfile-type
p4792
Vphp
p4793
sVvalidation
p4794
Vjquery
p4795
sVbcp
p4796
g228
sVsimilarity
p4797
Valgorithm
p4798
sVdynamic
p4799
NsVsparse-matrix
p4800
Vpython
p4801
sVbytecode
p4802
Vjava
p4803
sVgmaps4rails
p4804
Vruby-on-rails
p4805
sVswap
p4806
Vc++
p4807
sVendianness
p4808
g20
sVnew-operator
p4809
Vc++
p4810
sVsha256
p4811
g230
sVfieldset
p4812
Vcss
p4813
sVclojurescript
p4814
Vclojure
p4815
sVvoid
p4816
g163
sVmonodevelop
p4817
NsVspring-roo
p4818
Vspring
p4819
sVsmack
p4820
g1293
sVupdates
p4821
Vandroid
p4822
sVnamespaces
p4823
g8
sVvoip
p4824
NsVknockout-mapping-plugin
p4825
Vknockout.js
p4826
sVsolution
p4827
NsVasp.net-mvc-partialview
p4828
NsVvector
p4829
Vc++
p4830
sVpartial-views
p4831
NsVvhdl
p4832
g4832
sVyacc
p4833
NsVvirtualization
p4834
g4834
sVpreferences
p4835
Vandroid
p4836
sVnumberformat
p4837
Vjava
p4838
sVadhoc
p4839
g194
sVmetadata
p4840
NsVmef
p4841
NsVquirks-mode
p4842
g1379
sVjavamail
p4843
Vjava
p4844
sVactive
p4845
Vcss
p4846
sVaxapta
p4847
NsVmex
p4848
Vmatlab
p4849
sVdry
p4850
Vruby-on-rails
p4851
sVreactive-programming
p4852
NsVindentation
p4853
Vpython
p4854
sVpack
p4855
Vphp
p4856
sVgroup-concat
p4857
Vmysql
p4858
sVxelement
p4859
NsVopengraph
p4860
NsVparameter-passing
p4861
NsVbyte
p4862
Vjava
p4863
sVlandscape
p4864
g194
sVcss-animations
p4865
g2338
sVhard-drive
p4866
Vlinux
p4867
sVado.net-entity-data-model
p4868
NsVfile-format
p4869
Vc++
p4870
sVcommon-lisp
p4871
Vlisp
p4872
sVcall
p4873
Vandroid
p4874
sVfastcgi
p4875
Vphp
p4876
sVnsscrollview
p4877
Vcocoa
p4878
sVcomposite
p4879
Vjava
p4880
sVnavigationcontroller
p4881
g194
sVlazarus
p4882
Vdelphi
p4883
sVvcard
p4884
Vandroid
p4885
sVcomputer-vision
p4886
g4886
sVsetup
p4887
NsVdoctype
p4888
Vhtml
p4889
sVjquery-mobile
p4890
Vjquery
p4891
sVroot
p4892
Vandroid
p4893
sVsocial-networking
p4894
NsVcursors
p4895
Vsql
p4896
sVosmdroid
p4897
Vandroid
p4898
sVshapefile
p4899
g15
sVsharepoint
p4900
g4900
sV.net-1.1
p4901
NsVline-breaks
p4902
Vphp
p4903
sVglobalization
p4904
NsVconfig
p4905
Vphp
p4906
sVehcache
p4907
Vjava
p4908
sVglassfish-3
p4909
Vjava
p4910
sVglassfish-4
p4911
Vjava
p4912
sVcode-behind
p4913
Vasp.net
p4914
sVethernet
p4915
g4915
sVtime-complexity
p4916
Valgorithm
p4917
sVfifo
p4918
g2360
sVkeyboard
p4919
Vandroid
p4920
sVnonblocking
p4921
g10
sVerlang
p4922
g4922
sVonclick
p4923
Vjavascript
p4924
sVsemantic-markup
p4925
Vhtml
p4926
sVdecorator
p4927
Vpython
p4928
sVaddclass
p4929
Vjquery
p4930
sVinstanceof
p4931
Vjava
p4932
sVlinear-programming
p4933
g4933
sVgrammar
p4934
g513
sVstate-machines
p4935
Vruby-on-rails
p4936
sVsubquery
p4937
Vmysql
p4938
sVorbeon
p4939
NsVmean
p4940
Vr
p4941
sVfont-size
p4942
Vcss
p4943
sVadobe
p4944
g298
sVaidl
p4945
Vandroid
p4946
sVgridbaglayout
p4947
Vjava
p4948
sVmysql-python
p4949
Vpython
p4950
sVtcplistener
p4951
NsVextract
p4952
Vphp
p4953
sVfilesystemwatcher
p4954
NsVwhitespace
p4955
Vhtml
p4956
sVgradient
p4957
Vcss
p4958
sVcontent
p4959
Vjquery
p4960
sVoscommerce
p4961
Vphp
p4962
sVgenerics
p4963
NsVjbpm
p4964
Vjava
p4965
sVresume
p4966
Vandroid
p4967
sVlogging
p4968
g3197
sVckeditor
p4969
Vjavascript
p4970
sVclient-server
p4971
Vjava
p4972
sVmessages
p4973
Vwindows
p4974
sViso
p4975
g4975
sVsignature
p4976
Vjava
p4977
sVxul
p4978
g1948
sVadvanceddatagrid
p4979
g298
sVuser
p4980
Vphp
p4981
sVcore-motion
p4982
Vios
p4983
sVhook
p4984
Vc++
p4985
sVneo4j
p4986
NsVxslt-2.0
p4987
Vxslt
p4988
sVicefaces
p4989
Vjsf
p4990
sVstruts
p4991
Vjava
p4992
sVtwisted
p4993
Vpython
p4994
sVvisual-studio-2008
p4995
NsVvisual-studio-2005
p4996
NsVnutch
p4997
g4997
sVlighttpd
p4998
Vphp
p4999
sVfile-permissions
p5000
Vphp
p5001
sVuinavigationbar
p5002
Vios
p5003
sVdistance
p5004
Vandroid
p5005
sVbiginteger
p5006
Vjava
p5007
sVkeyword
p5008
NsVstructures
p5009
g1091
sVpagespeed
p5010
g1228
sVgae-datastore
p5011
g97
sVdjango-south
p5012
Vdjango
p5013
sVflex-lexer
p5014
NsVseek
p5015
Vandroid
p5016
sVflowdocument
p5017
Vwpf
p5018
sVchess
p5019
Vjava
p5020
sVmicrosoft-metro
p5021
NsVnetworkstream
p5022
NsVpython-import
p5023
Vpython
p5024
sVuisearchbar
p5025
Vios
p5026
sVnoclassdeffounderror
p5027
Vjava
p5028
sVnewline
p5029
g3315
sVpentaho
p5030
NsViterate
p5031
Vphp
p5032
sVmany-to-one
p5033
Vhibernate
p5034
sVmstest
p5035
Vunit-testing
p5036
sVdom
p5037
Vjavascript
p5038
sVdoc
p5039
g1607
sValarm
p5040
Vandroid
p5041
sVyahoo-pipes
p5042
g1798
sVnpgsql
p5043
Vpostgresql
p5044
sVpoints
p5045
NsVheap-memory
p5046
Vjava
p5047
sVdos
p5048
g2221
sVdot
p5049
NsVsigsegv
p5050
Vc++
p5051
sVimmutability
p5052
Vjava
p5053
sVcancan
p5054
Vruby-on-rails
p5055
sVsyntax
p5056
Vphp
p5057
sVvsts2008
p5058
NsVfont-face
p5059
Vcss
p5060
sVcreate-table
p5061
Vmysql
p5062
sVmembership-provider
p5063
Vasp.net
p5064
sVvisualforce
p5065
g5065
sVcross-platform
p5066
Vc++
p5067
sVcelery
p5068
Vpython
p5069
sVldap
p5070
g5070
sVfolder
p5071
g829
sVtiles
p5072
Vjava
p5073
sVkeyboard-events
p5074
Vjavascript
p5075
sVselecteditem
p5076
Vwpf
p5077
sVstop
p5078
Vjquery
p5079
sVautolayout
p5080
Vios
p5081
sVdatetimepicker
p5082
NsVcgrect
p5083
Vios
p5084
sVpowershell-v3.0
p5085
Vpowershell
p5086
sVreload
p5087
Vjavascript
p5088
sVarchitecture
p5089
g5089
sVnsthread
p5090
Vobjective-c
p5091
sVreference
p5092
Vc++
p5093
sVtesting
p5094
g5094
sVjquery-ui-tabs
p5095
Vjquery
p5096
sVweb-applications
p5097
Vjava
p5098
sVspring-batch
p5099
Vspring
p5100
sVenthought
p5101
Vpython
p5102
sVstatic-libraries
p5103
Vc++
p5104
sVsolr4
p5105
Vsolr
p5106
sVreddit
p5107
Vpython
p5108
sVaddsubview
p5109
Vios
p5110
sVw3c-validation
p5111
Vhtml
p5112
sVteam-build
p5113
NsVloading
p5114
Vjquery
p5115
sVmodeling
p5116
g134
sVsolrj
p5117
Vsolr
p5118
sVunc
p5119
NsVxforms
p5120
NsVhighcharts
p5121
g3225
sVloader
p5122
g298
sVweb-parts
p5123
Vsharepoint
p5124
sVgoogle-glass
p5125
NsVdjango-template-tags
p5126
Vdjango
p5127
sVcodeigniter
p5128
g2211
sVpatch
p5129
g423
sVpage-lifecycle
p5130
Vasp.net
p5131
sVhaxe
p5132
Vflash
p5133
sVhtml5-audio
p5134
g1418
sVnumpy
p5135
Vpython
p5136
sVcode-formatting
p5137
Veclipse
p5138
sVwebsite
p5139
Vhtml
p5140
sVonblur
p5141
Vjavascript
p5142
sVradio-group
p5143
Vandroid
p5144
sVdismiss
p5145
Vios
p5146
sVremovechild
p5147
g298
sVmvc-mini-profiler
p5148
NsVsource-code
p5149
Vjava
p5150
sVnested-sets
p5151
Vmysql
p5152
sVandroid-contentresolver
p5153
Vandroid
p5154
sVexception
p5155
g1641
sVprivatekey
p5156
g1008
sVsetuptools
p5157
Vpython
p5158
sVipython-notebook
p5159
Vpython
p5160
sVanchor
p5161
Vhtml
p5162
sVspawn
p5163
Vnode.js
p5164
sVassociations
p5165
Vruby-on-rails
p5166
sVip
p5167
g5167
sVjoomla3.0
p5168
g552
sVsas
p5169
g5169
sVil
p5170
NsVio
p5171
Vjava
p5172
sVmouse
p5173
NsVmako
p5174
Vpython
p5175
sVuistoryboard
p5176
Vios
p5177
sVmake
p5178
NsVstring-comparison
p5179
g474
sVextjs4
p5180
Vextjs
p5181
sVextjs3
p5182
Vextjs
p5183
sVgoogle-spreadsheet
p5184
NsVxbap
p5185
Vwpf
p5186
sVradiobuttonlist
p5187
Vasp.net
p5188
sVjslint
p5189
Vjavascript
p5190
sVunicorn
p5191
Vruby-on-rails
p5192
sVremote-desktop
p5193
g5193
sVxjc
p5194
g365
sVjstl
p5195
Vjsp
p5196
sVnullreferenceexception
p5197
NsVnlog
p5198
NsVakka
p5199
Vscala
p5200
sVasihttprequest
p5201
g194
sVbandwidth
p5202
g820
sVagile
p5203
g5203
sVcharacter
p5204
g474
sVtuples
p5205
Vpython
p5206
sVsave
p5207
Vandroid
p5208
sVintuit-partner-platform
p5209
NsVstatic-members
p5210
Vc++
p5211
sVhttp-live-streaming
p5212
Vios
p5213
sVlinked-list
p5214
g163
sVbackground
p5215
Vcss
p5216
sVmomentjs
p5217
Vjavascript
p5218
sVclickable
p5219
Vandroid
p5220
sVhttpsession
p5221
Vjava
p5222
sVdaemon
p5223
Vlinux
p5224
sVdrawrect
p5225
Vios
p5226
sVform-validation
p5227
Vjquery
p5228
sVstress-testing
p5229
Vjava
p5230
sVcentos
p5231
g5231
sVautowired
p5232
Vspring
p5233
sVpom.xml
p5234
Vmaven
p5235
sVconnection-string
p5236
NsVautofill
p5237
Vjavascript
p5238
sVtabbar
p5239
g194
sVhttpresponse
p5240
Vandroid
p5241
sVspring-aop
p5242
Vspring
p5243
sVshapes
p5244
NsVbigdecimal
p5245
Vjava
p5246
sVswfupload
p5247
Vjavascript
p5248
sVmidlet
p5249
g790
sVlocalhost
p5250
Vphp
p5251
sVservicestack
p5252
NsVburn
p5253
NsVsift
p5254
g1572
sVsifr
p5255
Vjavascript
p5256
sVsuper
p5257
Vjava
p5258
sVcodedom
p5259
NsVpostgresql
p5260
g5260
sVvb6-migration
p5261
NsVazure
p5262
NsVcommit
p5263
Vgit
p5264
sVsprites
p5265
Vcss
p5266
sVsugarcrm
p5267
Vphp
p5268
sVparsing
p5269
g513
sVdoctrine
p5270
Vphp
p5271
sVjena
p5272
Vjava
p5273
sVeditor
p5274
g3715
sVhttpclient
p5275
Vjava
p5276
sVangularjs-service
p5277
Vangularjs
p5278
sVimageicon
p5279
Vjava
p5280
sVdelayed-job
p5281
Vruby-on-rails
p5282
sVpreg-match
p5283
Vphp
p5284
sVcomputational-geometry
p5285
g5285
sVedge-detection
p5286
Vimage-processing
p5287
sVdisassembling
p5288
Vassembly
p5289
sVstreaming
p5290
Vandroid
p5291
sVbounds
p5292
Vios
p5293
sVcompiler-errors
p5294
Vc++
p5295
sVdelete
p5296
Vc++
p5297
sVcustom-post-type
p5298
Vwordpress
p5299
sVfacebook-insights
p5300
NsVrecommendation-engine
p5301
Vmahout
p5302
sVsticky
p5303
Vjquery
p5304
sVfloating
p5305
Vcss
p5306
sVexcel
p5307
NsVentity-framework-6
p5308
NsVentity-framework-5
p5309
NsVentity-framework-4
p5310
NsVsybase
p5311
g5311
sVjinternalframe
p5312
Vjava
p5313
sVorchardcms-1.6
p5314
NsVmacports
p5315
g396
sVdidselectrowatindexpath
p5316
g4593
sVmouselistener
p5317
Vjava
p5318
sVgetjson
p5319
Vjquery
p5320
sVandroid-contentprovider
p5321
Vandroid
p5322
sVslf4j
p5323
Vjava
p5324
sVvertex-shader
p5325
Vopengl
p5326
sVseparation-of-concerns
p5327
NsVempty-string
p5328
Vphp
p5329
sVmanaged
p5330
NsVtwitter-bootstrap
p5331
g569
sVskip
p5332
NsVthemes
p5333
Vandroid
p5334
sVmanager
p5335
Vandroid
p5336
sVinformix
p5337
Vsql
p5338
sVskin
p5339
g298
sVprimes
p5340
Valgorithm
p5341
sVmenubar
p5342
Vcss
p5343
sVcountdown
p5344
Vjavascript
p5345
sVfoursquare
p5346
g2715
sVwix3.7
p5347
NsVsmartphone
p5348
Vandroid
p5349
sVstring
p5350
g474
sVios6.1
p5351
Vios
p5352
sVnsfetchedresultscontrolle
p5353
g1555
sVx86-64
p5354
Vassembly
p5355
sVserver-sent-events
p5356
Vjavascript
p5357
sVsubprocess
p5358
Vpython
p5359
sVms-access-2010
p5360
Vms-access
p5361
sVjqgrid
p5362
g2023
sVfreemarker
p5363
Vjava
p5364
sVfunction-pointers
p5365
Vc++
p5366
sVitem
p5367
Vandroid
p5368
sVdiv
p5369
Vcss
p5370
sVround
p5371
Vphp
p5372
sVdir
p5373
Vphp
p5374
sVfont-awesome
p5375
Vcss
p5376
sVnsfilemanager
p5377
Vobjective-c
p5378
sVerd
p5379
Vdatabase-design
p5380
sVmfmailcomposeviewcontroll
p5381
Vios
p5382
sVreporting-services
p5383
NsVssis
p5384
g5384
sVcomputer-architecture
p5385
g5385
sVerb
p5386
Vruby-on-rails
p5387
sVflexbox
p5388
Vcss
p5389
sVaptana3
p5390
Veclipse
p5391
sVxcode4.6
p5392
Vios
p5393
sVxcode4.5
p5394
Vobjective-c
p5395
sVxcode4.3
p5396
g194
sVxcode4.2
p5397
g194
sVwait
p5398
Vjava
p5399
sVshift
p5400
g197
sVmulticast
p5401
g10
sVminecraft
p5402
Vjava
p5403
sVfpdf
p5404
Vphp
p5405
sVasp.net-web-api
p5406
NsVftpwebrequest
p5407
NsVjquery-select2
p5408
Vjquery
p5409
sVlicensing
p5410
NsVc-preprocessor
p5411
g20
sVmouseevent
p5412
Vjavascript
p5413
sVrecursive-query
p5414
Vsql
p5415
sVcustom-cell
p5416
g4593
sVstylesheet
p5417
Vcss
p5418
sVdbpedia
p5419
NsVvisio
p5420
g5420
sVencode
p5421
Vphp
p5422
sVcheckout
p5423
Vmagento
p5424
sVandroid-activity
p5425
Vandroid
p5426
sVdirectx-9
p5427
Vc++
p5428
sVsharing
p5429
NsVoop
p5430
g5430
sVjlabel
p5431
Vjava
p5432
sVbluetooth-lowenergy
p5433
Vbluetooth
p5434
sVnsmanagedobjectcontext
p5435
g1555
sVurl-parameters
p5436
Vjavascript
p5437
sVtry-catch
p5438
Vjava
p5439
sVflv
p5440
Vflash
p5441
sVdjango-rest-framework
p5442
Vdjango
p5443
sVranking
p5444
Vmysql
p5445
sVagent
p5446
Vjava
p5447
sVsample
p5448
Vandroid
p5449
sVoracleforms
p5450
Voracle
p5451
sVc++11
p5452
Vc++
p5453
sVavcapturesession
p5454
Vios
p5455
sVcode-efficiency
p5456
g1228
sVsimulink
p5457
Vmatlab
p5458
sVlandscape-portrait
p5459
Vandroid
p5460
sVping
p5461
g820
sVprovisioning
p5462
g194
sVcode-first-migrations
p5463
NsVforeach
p5464
Vphp
p5465
sVtile
p5466
Vjava
p5467
sVmap
p5468
Vc++
p5469
sVdesigner
p5470
NsVliferay-6
p5471
NsVmax
p5472
Vsql
p5473
sVmembership
p5474
Vasp.net
p5475
sVclang
p5476
Vc++
p5477
sVmessaging
p5478
Vjava
p5479
sVworkflow-foundation
p5480
NsVentity-framework
p5481
NsVaudio-recording
p5482
Vandroid
p5483
sVq
p5484
Vjavascript
p5485
sVnsis
p5486
NsVswitch
p5487
Vjava
p5488
sVlookup-tables
p5489
Vc++
p5490
sVbuddypress
p5491
Vwordpress
p5492
sVgesture
p5493
Vandroid
p5494
sVdojo
p5495
g147
sVentity
p5496
NsVgoogle-earth
p5497
g600
sVimage-rotation
p5498
Vandroid
p5499
sVmemory-allocation
p5500
Vc++
p5501
sVvirtual-functions
p5502
Vc++
p5503
sVmonitor
p5504
NsVpolicy
p5505
Vjava
p5506
sVflex3
p5507
g298
sVmain
p5508
Vjava
p5509
sVflex4
p5510
g298
sVjquery-chosen
p5511
Vjquery
p5512
sVfinance
p5513
g15
sVviews
p5514
Vdrupal
p5515
sVstdvector
p5516
Vc++
p5517
sVpopover
p5518
g569
sVfile-download
p5519
Vphp
p5520
sVsafari
p5521
Vjavascript
p5522
sVnhibernate-criteria
p5523
NsVosx-mavericks
p5524
g396
sVpseudo-element
p5525
Vcss
p5526
sVdirectories
p5527
g829
sVntlm
p5528
g28
sVgerrit
p5529
Vgit
p5530
sVadmob
p5531
Vandroid
p5532
sVcode-duplication
p5533
NsVmysql-workbench
p5534
Vmysql
p5535
sVxls
p5536
NsVbinary-search
p5537
Valgorithm
p5538
sVecmascript-5
p5539
Vjavascript
p5540
sVvim-plugin
p5541
NsVgoogle-oauth
p5542
Vphp
p5543
sVconventions
p5544
Vjava
p5545
sVreportlab
p5546
Vpython
p5547
sVjsfiddle
p5548
Vjavascript
p5549
sVjackson
p5550
Vjson
p5551
sVmultiplayer
p5552
Vandroid
p5553
sVpoco
p5554
NsVnsoutlineview
p5555
Vcocoa
p5556
sVcode-first
p5557
NsVderived-class
p5558
Vc++
p5559
sVsensor
p5560
Vandroid
p5561
sVgoto
p5562
g2360
sVamazon-web-services
p5563
g5563
sVhistory.js
p5564
Vjavascript
p5565
sVajax
p5566
g5566
sVorm
p5567
Vjava
p5568
sVdatabase-administration
p5569
g5569
sVphpexcel
p5570
Vphp
p5571
sVdirectory-structure
p5572
Vphp
p5573
sVvbscript
p5574
NsVtemplate-specialization
p5575
Vc++
p5576
sVurl-redirection
p5577
NsVrtsp
p5578
Vandroid
p5579
sVpowerpoint-vba
p5580
NsVsounds
p5581
Vaudio
p5582
sVoutputcache
p5583
Vasp.net
p5584
sVvsto
p5585
NsVservlet-3.0
p5586
Vjava
p5587
sVstruts2-jquery
p5588
g467
sVwcf-binding
p5589
Vwcf
p5590
sVbroadcast
p5591
Vandroid
p5592
sVxmppframework
p5593
Vios
p5594
sVprotected
p5595
Vjava
p5596
sVzsh
p5597
g2007
sVcore-text
p5598
Vios
p5599
sV2d-games
p5600
Vjava
p5601
sVios5.1
p5602
Vios
p5603
sVmatlab-guide
p5604
Vmatlab
p5605
sVimage-manipulation
p5606
Vimage-processing
p5607
sVmechanize
p5608
Vpython
p5609
sVcassandra
p5610
g5610
sVfilereader
p5611
Vjavascript
p5612
sVbezier
p5613
NsVcordova-3
p5614
g3770
sVdouble-click
p5615
Vjavascript
p5616
sVperformance
p5617
g1228
sVmodulus
p5618
g1711
sVchannel
p5619
g97
sVwindowbuilder
p5620
Vjava
p5621
sVtrace
p5622
NsVartificial-intelligence
p5623
g5623
sVazure-web-sites
p5624
NsVc99
p5625
g2360
sVcorrelation
p5626
g4941
sVlibsvm
p5627
Vsvm
p5628
sVpair
p5629
Vc++
p5630
sVgeodjango
p5631
Vdjango
p5632
sVkendo-ui
p5633
NsVflat-file
p5634
Vssis
p5635
sVdurandal
p5636
Vknockout.js
p5637
sVwebbrowser-control
p5638
NsVjquery-hover
p5639
Vjquery
p5640
sVrating
p5641
Vphp
p5642
sVjquery-masonry
p5643
Vjquery
p5644
sVshow
p5645
Vjquery
p5646
sVandroid-menu
p5647
Vandroid
p5648
sVtridion-2011
p5649
NsVc#-2.0
p5650
NsVmac-address
p5651
g820
sVnunit
p5652
NsVmanaged-bean
p5653
Vjsf
p5654
sVget
p5655
Vphp
p5656
sVstring-concatenation
p5657
g474
sVbatch-processing
p5658
g2221
sVgeo
p5659
g1613
sVgem
p5660
g230
sVpdf-generation
p5661
g1607
sVmedian
p5662
Valgorithm
p5663
sVxpages-ssjs
p5664
NsVyield
p5665
Vpython
p5666
sVsummary
p5667
g15
sVwiki
p5668
g371
sVkernel
p5669
g5669
sVfullcalendar
p5670
Vjquery
p5671
sVrelative
p5672
Vcss
p5673
sVseam
p5674
Vjava
p5675
sVcalendar
p5676
Vjava
p5677
sVandroid-animation
p5678
Vandroid
p5679
sVlabel
p5680
NsVxtext
p5681
Veclipse
p5682
sVios-provisioning
p5683
Vios
p5684
sVfusioncharts
p5685
Vjavascript
p5686
sVuml-modeling
p5687
Vjava
p5688
sVplupload
p5689
Vjquery
p5690
sVgoogle-cloud-storage
p5691
g97
sVparent
p5692
Vjquery
p5693
sVparentheses
p5694
g73
sVmagento-1.4
p5695
Vmagento
p5696
sVmagento-1.5
p5697
Vmagento
p5698
sVmagento-1.6
p5699
Vmagento
p5700
sVmagento-1.7
p5701
Vmagento
p5702
sVaspect-ratio
p5703
Vandroid
p5704
sVphpmyadmin
p5705
Vmysql
p5706
sVgooglebot
p5707
g1570
sVfirewall
p5708
g5708
sVfine-uploader
p5709
Vjavascript
p5710
sVandroid-scrollview
p5711
Vandroid
p5712
sVgit-pull
p5713
Vgit
p5714
sVeventmachine
p5715
g230
sVopentk
p5716
NsVcancel
p5717
Vandroid
p5718
sVaccess-denied
p5719
NsVencryption
p5720
g1008
sVadfs
p5721
g2815
sV.net-2.0
p5722
NsVproduction
p5723
Vruby-on-rails
p5724
sVpsexec
p5725
g2221
sVuser-accounts
p5726
NsVvisual-web-developer
p5727
Vasp.net
p5728
sVtraversal
p5729
Vjquery
p5730
sVbmp
p5731
g998
sVembedded-resource
p5732
NsVdeclaration
p5733
Vc++
p5734
sVbayesian
p5735
g5735
sVencapsulation
p5736
Voop
p5737
sVgoogle-chrome-app
p5738
g2252
sVapi-design
p5739
g2715
sVfluent-nhibernate
p5740
NsVprofiler
p5741
Vjava
p5742
sVmargin
p5743
Vcss
p5744
sVcq5
p5745
NsVvisual-studio-express
p5746
NsVwordnet
p5747
Vnlp
p5748
sVidisposable
p5749
NsVsaml
p5750
g3773
sVgroup-by
p5751
Vsql
p5752
sVauthentication
p5753
g28
sVcode-analysis
p5754
NsVspeech
p5755
g2776
sVarguments
p5756
g2418
sVillegalstateexception
p5757
Vandroid
p5758
sVocunit
p5759
Vunit-testing
p5760
sVthird-party
p5761
NsVhtml-encode
p5762
NsVemacs24
p5763
NsVcakephp-2.0
p5764
g3559
sVcakephp-2.1
p5765
g3559
sVcakephp-2.3
p5766
g3559
sVsql-server-express
p5767
g228
sVwatin
p5768
NsVmarkup
p5769
Vhtml
p5770
sVwatir
p5771
g230
sVbottle
p5772
Vpython
p5773
sVtabwidget
p5774
Vandroid
p5775
sVjava-web-start
p5776
Vjava
p5777
sVapplicationcontext
p5778
Vspring
p5779
sVjquery-ui-datepicker
p5780
Vjquery
p5781
sVmoney
p5782
NsVjdom
p5783
Vjava
p5784
sVsitecore
p5785
NsVmarker
p5786
Vandroid
p5787
sVdisplaytag
p5788
Vjsp
p5789
sVautocad
p5790
g5790
sVsfinae
p5791
Vc++
p5792
sVgoogle-docs-api
p5793
NsVmoq
p5794
NsVone-to-many
p5795
Vhibernate
p5796
sVone-to-one
p5797
Vhibernate
p5798
sVgrid
p5799
Vwpf
p5800
sVdatabase-schema
p5801
Vdatabase-design
p5802
sVcredentials
p5803
NsVweb2py
p5804
Vpython
p5805
sVavaudioplayer
p5806
Vios
p5807
sVifstream
p5808
Vc++
p5809
sVanonymous-class
p5810
Vjava
p5811
sVunique-ptr
p5812
Vc++
p5813
sVnose
p5814
Vpython
p5815
sVnsimage
p5816
Vcocoa
p5817
sVfatal-error
p5818
Vphp
p5819
sVerase
p5820
Vc++
p5821
sVmatching
p5822
Valgorithm
p5823
sVconfirm
p5824
Vjavascript
p5825
sVkml
p5826
g600
sVinject
p5827
g230
sVandroid-imageview
p5828
Vandroid
p5829
sVspell-checking
p5830
NsVcql
p5831
Vcassandra
p5832
sVxna
p5833
NsVandroid-2.3
p5834
Vandroid
p5835
sVandroid-2.2
p5836
Vandroid
p5837
sVdetailsview
p5838
Vasp.net
p5839
sVproduction-environment
p5840
Vruby-on-rails
p5841
sVimage-gallery
p5842
Vjquery
p5843
sVfloating-accuracy
p5844
g1703
sVdatabase-partitioning
p5845
Vmysql
p5846
sVmingw32
p5847
Vc++
p5848
sVstyling
p5849
Vcss
p5850
sVdecode
p5851
Vphp
p5852
sVlaravel-3
p5853
Vphp
p5854
sVlaravel-4
p5855
g5854
sVipv6
p5856
g5856
sVcluster-computing
p5857
Vjava
p5858
sVsvn
p5859
g5859
sVshoutcast
p5860
Vandroid
p5861
sVcom-interop
p5862
NsVandroid-logcat
p5863
Vandroid
p5864
sVconditional-operator
p5865
NsVself-join
p5866
Vsql
p5867
sVgorm
p5868
g2135
sVsystem.data.sqlite
p5869
g2601
sVembed
p5870
Vhtml
p5871
sVdeadlock
p5872
Vmultithreading
p5873
sVmoles
p5874
Vunit-testing
p5875
sVnstextfield
p5876
Vcocoa
p5877
sVfile
p5878
g829
sVfacebook-javascript-sdk
p5879
NsVfill
p5880
Vandroid
p5881
sVdrivers
p5882
Vwindows
p5883
sVjpanel
p5884
Vjava
p5885
sVfield
p5886
g1781
sVprism
p5887
Vwpf
p5888
sVutf-8
p5889
g1178
sVopacity
p5890
Vcss
p5891
sVdrawimage
p5892
g797
sVwindows-authentication
p5893
Vasp.net
p5894
sVvertex
p5895
Vopengl
p5896
sVansi
p5897
g2360
sVdjango-cms
p5898
Vdjango
p5899
sVunit-of-work
p5900
NsVdropbox
p5901
NsVstr-replace
p5902
Vphp
p5903
sVconcat
p5904
Vmysql
p5905
sVassets
p5906
Vandroid
p5907
sVnetlogo
p5908
g4093
sVextjs-mvc
p5909
Vextjs
p5910
sVresolution
p5911
Vandroid
p5912
sVreverse-proxy
p5913
g5913
sVtibco
p5914
Vjava
p5915
sVduplicates
p5916
Vmysql
p5917
sVdrag-and-drop
p5918
Vjquery
p5919
sVapplication-pool
p5920
Viis
p5921
sVfixtures
p5922
Vruby-on-rails
p5923
sVchildren
p5924
Vjquery
p5925
sVsystem.reflection
p5926
NsVplesk
p5927
Vphp
p5928
sVwsh
p5929
NsVjrubyonrails
p5930
g230
sVnsbundle
p5931
Vios
p5932
sVwss
p5933
Vsharepoint
p5934
sVstderr
p5935
g3424
sVnsobject
p5936
Vobjective-c
p5937
sVgoogle-maps-api-3
p5938
g600
sVstripe-payments
p5939
Vruby-on-rails
p5940
sVbeagleboard
p5941
Vlinux
p5942
sVzero
p5943
Vphp
p5944
sVurbanairship.com
p5945
Vandroid
p5946
sVperspective
p5947
g68
sVplugins
p5948
g3544
sVpyodbc
p5949
Vpython
p5950
sVribbon
p5951
Vwpf
p5952
sVcentering
p5953
Vcss
p5954
sVbrackets
p5955
Vphp
p5956
sVflash-builder
p5957
g298
sVpublic
p5958
Vc++
p5959
sVmovement
p5960
Vjava
p5961
sVvala
p5962
g3220
sVmule
p5963
NsVfirebase
p5964
Vangularjs
p5965
sVmkannotation
p5966
Vios
p5967
sVdirectshow
p5968
g2798
sVjax-ws
p5969
Vjava
p5970
sVhtml-agility-pack
p5971
NsVeclipse-plugin
p5972
Veclipse
p5973
sVoledbconnection
p5974
NsVamazon-rds
p5975
Vamazon-web-services
p5976
sVjruby
p5977
g230
sVfactory-pattern
p5978
Vdesign-patterns
p5979
sVcalculated-columns
p5980
Vsql
p5981
sVpretty-print
p5982
Vpython
p5983
sVremember-me
p5984
g4501
sVlinear-algebra
p5985
g5985
sVcomposite-primary-key
p5986
Vmysql
p5987
sVandroid-source
p5988
Vandroid
p5989
sVinterface-builder
p5990
g194
sVdistinct
p5991
Vsql
p5992
sVmicrosoft-dynamics
p5993
NsVface-detection
p5994
g1572
sVlogcat
p5995
Vandroid
p5996
sVandroid-service
p5997
Vandroid
p5998
sVmozilla
p5999
Vjavascript
p6000
sVactionlistener
p6001
Vjava
p6002
sVjsonp
p6003
Vjquery
p6004
sVandroid-broadcast
p6005
Vandroid
p6006
sVopengl-es
p6007
g3703
sVpsql
p6008
Vpostgresql
p6009
sVjdo
p6010
g97
sVsalesforce
p6011
g6011
sVjdk
p6012
Vandroid
p6013
sVdes
p6014
g1008
sVparagraph
p6015
Vhtml
p6016
sVopenssh
p6017
Vssh
p6018
sVjdt
p6019
Veclipse
p6020
sVtail-recursion
p6021
g108
sVcompare
p6022
Vjava
p6023
sVsynchronized
p6024
Vjava
p6025
sVshare
p6026
NsVcollision
p6027
Vjava
p6028
sVminimum
p6029
g5473
sVnumbers
p6030
Vjava
p6031
sVjackrabbit
p6032
NsVcsh
p6033
g2007
sVwindows-media-player
p6034
NsVmapi
p6035
NsVmaps
p6036
Vandroid
p6037
sVweb-controls
p6038
Vasp.net
p6039
sVmutable
p6040
g5053
sVcsv
p6041
g4327
sVcss
p6042
g6042
sVconnectivity
p6043
Vandroid
p6044
sVmariadb
p6045
Vmysql
p6046
sVresponse
p6047
Vajax
p6048
sVpattern-matching
p6049
g73
sVonresume
p6050
Vandroid
p6051
sVentry
p6052
Vpython
p6053
sVscrollto
p6054
Vjquery
p6055
sVk-means
p6056
g1271
sViis-express
p6057
Vasp.net
p6058
sVfacebook
p6059
NsVnltk
p6060
Vpython
p6061
sVautoload
p6062
Vphp
p6063
sVproducer-consumer
p6064
Vmultithreading
p6065
sVapt-get
p6066
Vubuntu
p6067
sVforms-authentication
p6068
Vasp.net
p6069
sVmongodb-query
p6070
Vmongodb
p6071
sVasp.net-routing
p6072
Vasp.net
p6073
sVcombobox
p6074
NsVuitapgesturerecognizer
p6075
Vios
p6076
sVcontinuations
p6077
Vscala
p6078
sVpcm
p6079
Vaudio
p6080
sVviewstate
p6081
Vasp.net
p6082
sVplayframework
p6083
g318
sVtimestamp
p6084
Vphp
p6085
sVframelayout
p6086
Vandroid
p6087
sVcgcontext
p6088
Vios
p6089
sV2d
p6090
Vjava
p6091
sVtoken
p6092
Vphp
p6093
sVgoogle-search-api
p6094
g1570
sVwindow.open
p6095
Vjavascript
p6096
sVjmeter
p6097
g5230
sVlaunchd
p6098
g396
sVstored-procedures
p6099
g6099
sVfunctor
p6100
Vc++
p6101
sVcore-plot
p6102
Vios
p6103
sVconnect
p6104
Vnode.js
p6105
sVnewrelic
p6106
Vruby-on-rails
p6107
sVsencha
p6108
Vjavascript
p6109
sVtwitter4j
p6110
g1975
sVsqlcommand
p6111
NsVdotnetnuke
p6112
Vasp.net
p6113
sVandroid-pendingintent
p6114
Vandroid
p6115
sVforeground
p6116
Vandroid
p6117
sVcore-animation
p6118
Vios
p6119
sVsbt
p6120
Vscala
p6121
sVhashset
p6122
Vjava
p6123
sVnscalendar
p6124
g3887
sVmms
p6125
Vandroid
p6126
sVlinq-to-objects
p6127
Vlinq
p6128
sVgdal
p6129
Vpython
p6130
sVdiv-layouts
p6131
Vcss
p6132
sVyoutube-javascript-api
p6133
NsVwebforms
p6134
Vasp.net
p6135
sVwindows-runtime
p6136
NsVjogl
p6137
Vjava
p6138
sVdylib
p6139
g396
sVinternal-server-error
p6140
Vphp
p6141
sVrazor
p6142
NsVwss-3.0
p6143
Vsharepoint
p6144
sVmamp
p6145
Vphp
p6146
sVjetty
p6147
g1773
sVpaint
p6148
Vjava
p6149
sVstatement
p6150
g1249
sVjquery-validation-engine
p6151
Vjquery
p6152
sVnsjsonserialization
p6153
Vios
p6154
sVjsonarray
p6155
Vjson
p6156
sVcross-browser
p6157
Vcss
p6158
sVselector
p6159
Vjquery
p6160
sVbubble-sort
p6161
g197
sVrecording
p6162
Vaudio
p6163
sVuiapplicationdelegate
p6164
Vios
p6165
sVinteractive
p6166
Vpython
p6167
sVdebugging
p6168
g270
sVfavicon
p6169
Vhtml
p6170
sVsmart-pointers
p6171
Vc++
p6172
sVmonodroid
p6173
Vandroid
p6174
sVvisual-c++-2010
p6175
Vc++
p6176
sVencryption-symmetric
p6177
g1008
sVteechart
p6178
Vdelphi
p6179
sVjquery-datatables
p6180
Vjquery
p6181
sVopenshift
p6182
Vjava
p6183
sVfolders
p6184
g829
sVvnc
p6185
NsVlinq-to-xml
p6186
NsVcygwin
p6187
Vwindows
p6188
sVmoss
p6189
Vsharepoint
p6190
sVsharding
p6191
Vmongodb
p6192
sVqthread
p6193
g347
sVkey-value
p6194
g197
sVandroid-canvas
p6195
Vandroid
p6196
sVhttphandler
p6197
Vasp.net
p6198
sVgoogle-tv
p6199
Vandroid
p6200
sVnode.js
p6201
g6201
sVblueimp
p6202
Vjquery
p6203
sVrelation
p6204
Vdatabase
p6205
sVnetworkx
p6206
Vpython
p6207
sVfind
p6208
Vbash
p6209
sVbacktracking
p6210
g108
sVjsch
p6211
Vjava
p6212
sVbase-class
p6213
Vc++
p6214
sVdistributed
p6215
Vjava
p6216
sVbackbone-events
p6217
Vbackbone.js
p6218
sVasp.net-ajax
p6219
Vasp.net
p6220
sVemail-client
p6221
g161
sVtouchscreen
p6222
Vandroid
p6223
sVnotation
p6224
Vjava
p6225
sVsubsonic3
p6226
NsVexpress
p6227
Vnode.js
p6228
sVopensuse
p6229
Vlinux
p6230
sVandroid-loadermanager
p6231
Vandroid
p6232
sVrestart
p6233
Vandroid
p6234
sVcontinuous-integration
p6235
g62
sVandroid-tabs
p6236
Vandroid
p6237
sVmultilanguage
p6238
Vphp
p6239
sVphp-fpm
p6240
Vnginx
p6241
sVgit-push
p6242
Vgit
p6243
sVuser-interface
p6244
g6244
sVmove-semantics
p6245
Vc++
p6246
sVeclipse-juno
p6247
Veclipse
p6248
sVgithooks
p6249
Vgit
p6250
sVuibutton
p6251
Vios
p6252
sVms-access
p6253
g6253
sVpopup
p6254
Vjavascript
p6255
sVzedgraph
p6256
NsVcustom-attributes
p6257
NsVmoodle
p6258
Vphp
p6259
sVdesign-time
p6260
NsVipython
p6261
g5160
sVosx-snow-leopard
p6262
g396
sVreverse
p6263
g474
sVif-statement
p6264
g1249
sVwebrick
p6265
Vruby-on-rails
p6266
sVsilverlight-2.0
p6267
NsVpoint
p6268
Vjava
p6269
sVshutdown
p6270
Vjava
p6271
sVfuelphp
p6272
Vphp
p6273
sVbackend
p6274
Vjavascript
p6275
sVtestflight
p6276
Vios
p6277
sVsingly-linked-list
p6278
g163
sVexternalinterface
p6279
Vjavascript
p6280
sVasp.net-mvc-routing
p6281
NsVdata-binding
p6282
Vwpf
p6283
sVncurses
p6284
g2360
sVstandard-library
p6285
Vc++
p6286
sVgac
p6287
V.net
p6288
sVcomparator
p6289
Vjava
p6290
sVcss-transform
p6291
g2338
sVdeferred
p6292
Vjquery
p6293
sVblackberry-cascades
p6294
NsVclearcase
p6295
NsVaccountmanager
p6296
Vandroid
p6297
sVvisual-sourcesafe
p6298
g1460
sVfacelets
p6299
Vjsf
p6300
sVpython-imaging-library
p6301
Vpython
p6302
sVuitableview
p6303
g4593
sVjquery-accordion
p6304
Vjquery
p6305
sVhtml-entities
p6306
Vphp
p6307
sVupdatepanel
p6308
Vasp.net
p6309
sVpagemethods
p6310
Vasp.net
p6311
sVwebgl
p6312
g303
sVphonegap-plugins
p6313
g3770
sVgoogle-visualization
p6314
Vjavascript
p6315
sVgeoserver
p6316
g3596
sVews
p6317
NsVext.net
p6318
Vasp.net
p6319
sVpasswords
p6320
Vphp
p6321
sVdereference
p6322
Vc++
p6323
sVflurry
p6324
Vandroid
p6325
sVaggregate
p6326
g15
sVscreen-capture
p6327
NsVandroid-softkeyboard
p6328
Vandroid
p6329
sVtask
p6330
NsVmemoization
p6331
Vpython
p6332
sVworkflow-activity
p6333
NsVflags
p6334
NsVorganization
p6335
Vphp
p6336
sVdistutils
p6337
Vpython
p6338
sVantlr
p6339
NsVshape
p6340
Vandroid
p6341
sVatomic
p6342
Vc++
p6343
sVphpbb
p6344
Vphp
p6345
sVopenstack
p6346
g6346
sValignment
p6347
Vcss
p6348
sVcut
p6349
Vbash
p6350
sVkeyevent
p6351
Vjava
p6352
sVreturn-type
p6353
Vc++
p6354
sVrestructuredtext
p6355
g2697
sVkinect
p6356
NsVsource
p6357
Vandroid
p6358
sVrgb
p6359
Vandroid
p6360
sVexecutorservice
p6361
Vjava
p6362
sVxcodebuild
p6363
Vxcode
p6364
sVvarchar
p6365
Vmysql
p6366
sVjcomponent
p6367
Vjava
p6368
sVspring-data-neo4j
p6369
NsVuiviewanimation
p6370
Vios
p6371
sVbit
p6372
g2360
sVreusability
p6373
Vandroid
p6374
sVsql-server-2012
p6375
g228
sVsurfaceview
p6376
Vandroid
p6377
sVautorotate
p6378
Vios
p6379
sVmapkit
p6380
Vios
p6381
sVbamboo
p6382
g62
sVbranching-and-merging
p6383
Vgit
p6384
sVclass-diagram
p6385
g134
sVdllimport
p6386
NsVback
p6387
Vandroid
p6388
sVdelegation
p6389
Vobjective-c
p6390
sVsimple-form
p6391
Vruby-on-rails
p6392
sVapc
p6393
Vphp
p6394
sVimageview
p6395
Vandroid
p6396
sVsizeof
p6397
g163
sVuipagecontrol
p6398
Vios
p6399
sVnsurlconnection
p6400
Vios
p6401
sVscale
p6402
Vandroid
p6403
sVscala
p6404
g6404
sVsaas
p6405
NsVintegration
p6406
Vjava
p6407
sVrobotium
p6408
Vandroid
p6409
sVellipsis
p6410
Vcss
p6411
sVnotepad++
p6412
g73
sVexport-to-excel
p6413
NsVgit-submodules
p6414
Vgit
p6415
sVcastle-windsor
p6416
NsVfacebook-fanpage
p6417
NsVwsdl
p6418
g6418
sVreadability
p6419
NsVusb
p6420
g6420
sVhudson
p6421
Vjenkins
p6422
sVtiff
p6423
NsVframes
p6424
Vhtml
p6425
sVbindingsource
p6426
NsVfindcontrol
p6427
Vasp.net
p6428
sVhudson-plugins
p6429
g6422
sVopenerp
p6430
Vpython
p6431
sVdynamics-ax-2009
p6432
NsVforward
p6433
g6433
sVtranslate
p6434
Vandroid
p6435
sVc#-5.0
p6436
NsVnavigation-drawer
p6437
Vandroid
p6438
sVswingworker
p6439
Vjava
p6440
sVsdl
p6441
Vc++
p6442
sVsdk
p6443
g194
sVgroovy
p6444
g6444
sVgstreamer
p6445
Vpython
p6446
sVjavascript-objects
p6447
Vjavascript
p6448
sVlabview
p6449
NsVrubymotion
p6450
Vios
p6451
sVquickfix
p6452
NsVbusiness-intelligence
p6453
g6453
sVoauth-2.0
p6454
g5543
sVcurl
p6455
g4000
sVuser-experience
p6456
Vuser-interface
p6457
sVcmake
p6458
Vc++
p6459
sVigraph
p6460
g4941
sVslick2d
p6461
Vjava
p6462
sVllvm
p6463
g5477
sVillegalargumentexception
p6464
Vjava
p6465
sVvisibility
p6466
Vandroid
p6467
sVdrupal-views
p6468
Vdrupal
p6469
sVsudoku
p6470
Vjava
p6471
sVntfs
p6472
Vwindows
p6473
sVsystem-calls
p6474
g20
sVcreatefile
p6475
g1074
sVsftp
p6476
Vftp
p6477
sVnaming-conventions
p6478
NsVxstream
p6479
Vjava
p6480
sVhittest
p6481
g298
sVpattern-recognition
p6482
g6482
sVnsxmlparser
p6483
g194
sVjava-2d
p6484
Vjava
p6485
sVasp.net-identity
p6486
NsVkeep-alive
p6487
g4426
sVdatabase-migration
p6488
Vmysql
p6489
sVtree-traversal
p6490
g277
sVcss3pie
p6491
g2338
sVistream
p6492
Vc++
p6493
sVlabels
p6494
g4941
sVvlc
p6495
NsVlocal-storage
p6496
Vjavascript
p6497
sVloadlibrary
p6498
Vc++
p6499
sVversioning
p6500
V.net
p6501
sVelisp
p6502
NsVcrop
p6503
g998
sVcron
p6504
g6504
sVsmlnj
p6505
NsVinsertion
p6506
g197
sVappend
p6507
Vjquery
p6508
sVappendchild
p6509
Vjavascript
p6510
sVd2
p6511
NsVpipes
p6512
g2360
sVjboss
p6513
g6513
sVuser-controls
p6514
NsVclipboard
p6515
NsVmathjax
p6516
Vjavascript
p6517
sVcordova
p6518
g3770
sVmagento-admin
p6519
Vphp
p6520
sVbinary-search-tree
p6521
Vc++
p6522
sVtext-files
p6523
NsVxml-deserialization
p6524
NsVspacing
p6525
Vcss
p6526
sVimplicit
p6527
Vscala
p6528
sVc++-cli
p6529
Vc++
p6530
sVdoctrine2
p6531
g359
sVcomposite-key
p6532
Vhibernate
p6533
sVuicollectionview
p6534
g2774
sVxdocument
p6535
NsVnsoperation
p6536
Vios
p6537
sVtalend
p6538
Vjava
p6539
sVphone-number
p6540
Vandroid
p6541
sVprivate
p6542
g5959
sVnth-child
p6543
Vcss
p6544
sVnames
p6545
g15
sVgateway
p6546
g226
sVprogress-4gl
p6547
NsVchm
p6548
NsVpowershell-remoting
p6549
Vpowershell
p6550
sViis
p6551
g6551
sVcakephp-1.3
p6552
g3559
sVcakephp-1.2
p6553
g3559
sVsetup.py
p6554
Vpython
p6555
sVsubscription
p6556
g1526
sVaccount
p6557
Vandroid
p6558
sVopenjdk
p6559
Vjava
p6560
sVfetch
p6561
Vphp
p6562
sVunobtrusive-validation
p6563
NsVsqlite
p6564
g2601
sVparser-generator
p6565
g513
sVnative
p6566
Vandroid
p6567
sVgcc
p6568
g2360
sVfilepath
p6569
Vjava
p6570
sVboxing
p6571
NsVgcm
p6572
Vandroid
p6573
sVprestashop
p6574
Vphp
p6575
sVlamp
p6576
g6576
sVattachment
p6577
g161
sVuinavigationcontroller
p6578
Vios
p6579
sVprofile
p6580
Vasp.net
p6581
sVjquery-ui-sortable
p6582
Vjquery
p6583
sVgoogle-drive-sdk
p6584
NsVmultiplication
p6585
g2078
sVbind
p6586
Vjquery
p6587
sVbing
p6588
NsVlines
p6589
Vpython
p6590
sVgitolite
p6591
Vgit
p6592
sVmustache
p6593
Vjavascript
p6594
sVjira
p6595
g6595
sVdoctrine-1.2
p6596
g5271
sVsymbols
p6597
Vc++
p6598
sVhbase
p6599
g6599
sVgalaxy
p6600
Vandroid
p6601
sVld
p6602
g2360
sVtext-parsing
p6603
g513
sVls
p6604
Vbash
p6605
sVandroid-fragmentactivity
p6606
Vandroid
p6607
sVyeoman
p6608
g3713
sVcode-signing
p6609
Vxcode
p6610
sVdomdocument
p6611
Vphp
p6612
sVdao
p6613
Vjava
p6614
sVautorelease
p6615
Vobjective-c
p6616
sVactionbarsherlock
p6617
Vandroid
p6618
sVjsf-1.2
p6619
Vjsf
p6620
sVdbus
p6621
Vpython
p6622
sVscrollbar
p6623
Vcss
p6624
sVpolymorphic-associations
p6625
Vruby-on-rails
p6626
sVidentifier
p6627
Vc++
p6628
sVjquery-file-upload
p6629
Vjquery
p6630
sValphablending
p6631
Vopengl
p6632
sVdatabase-project
p6633
NsVstrip
p6634
Vpython
p6635
sVmsdn
p6636
NsVflex-mobile
p6637
g298
sVopenni
p6638
NsVxml-validation
p6639
Vxml
p6640
sVssas
p6641
NsVstub
p6642
Vruby-on-rails
p6643
sVspring-mvc
p6644
Vspring
p6645
sVref
p6646
NsVmath
p6647
g1711
sVsafari-extension
p6648
g5522
sVworkflow
p6649
Vsharepoint
p6650
sV.net-assembly
p6651
NsVtrigger.io
p6652
Vios
p6653
sVwcf-web-api
p6654
Vwcf
p6655
sVfirefox-addon
p6656
g1948
sVlaravel
p6657
g5854
sVinteraction
p6658
g4941
sVindent
p6659
NsVmidi
p6660
Vjava
p6661
sVnavbar
p6662
Vcss
p6663
sVsms-gateway
p6664
g226
sVcname
p6665
Vdns
p6666
sVelasticsearch
p6667
NsVzend-form
p6668
g2947
sVretain
p6669
Vobjective-c
p6670
sVmidp
p6671
g790
sVjcheckbox
p6672
Vjava
p6673
sVsencha-touch-2
p6674
NsVkeyboard-shortcuts
p6675
Veclipse
p6676
sVsmartcard
p6677
Vjava
p6678
sVandroid-view
p6679
Vandroid
p6680
sVhtml5boilerplate
p6681
g1418
sVpuppet
p6682
g6682
sVsockets
p6683
g10
sVright-click
p6684
g2121
sVepplus
p6685
NsVscanf
p6686
g163
sVibaction
p6687
Vios
p6688
sVcarrierwave
p6689
Vruby-on-rails
p6690
sVmybatis
p6691
Vjava
p6692
sVwebdeploy
p6693
NsVipv4
p6694
Vipv6
p6695
sVflume
p6696
Vhadoop
p6697
sVudp
p6698
g10
sVmemorystream
p6699
NsVdynamic-programming
p6700
g6700
sVperforce
p6701
g1460
sVcomposite-component
p6702
g3627
sVjndi
p6703
Vjava
p6704
sVstrongly-typed-dataset
p6705
NsVlinkbutton
p6706
Vasp.net
p6707
sVwhile-loop
p6708
Vphp
p6709
sVtextfield
p6710
g298
sVandroid-gridview
p6711
Vandroid
p6712
sVipad
p6713
g194
sVnetwork-programming
p6714
g10
sVpointers
p6715
g6323
sVphp-mail
p6716
Vmysql
p6717
sVcompass-css
p6718
Vcss
p6719
sVvirtual-directory
p6720
Viis
p6721
sVplaintext
p6722
Vphp
p6723
sVexcel-vba
p6724
NsVparamiko
p6725
Vpython
p6726
sVtemplate-engine
p6727
Vphp
p6728
sVmin
p6729
g5473
sVuisplitviewcontroller
p6730
g194
sVgravity
p6731
Vandroid
p6732
sVworksheet-function
p6733
NsVjaas
p6734
Vjava
p6735
sVmod-python
p6736
Vpython
p6737
sVwpfdatagrid
p6738
Vwpf
p6739
sVspecflow
p6740
Vbdd
p6741
sVoozie
p6742
Vhadoop
p6743
sVpayment
p6744
g238
sVbaseadapter
p6745
Vandroid
p6746
sVrequest
p6747
g4426
sVreachability
p6748
Vios
p6749
sVworkspace
p6750
Veclipse
p6751
sVdllexport
p6752
Vc++
p6753
sVselection
p6754
Vjavascript
p6755
sVbrute-force
p6756
Valgorithm
p6757
sVpolynomial-math
p6758
g1711
sVtext
p6759
Vjava
p6760
sVsetter
p6761
NsVserial-port
p6762
NsVxmlwriter
p6763
Vxml
p6764
sVcontrols
p6765
NsVhttp-redirect
p6766
NsVksh
p6767
g2007
sVuitabbar
p6768
Vios
p6769
sVjquery-ui-droppable
p6770
Vjquery
p6771
sVcsrf
p6772
Vsecurity
p6773
sVtiming
p6774
Vjavascript
p6775
sVnetsuite
p6776
Vphp
p6777
sVlotus-domino
p6778
NsVfixed
p6779
Vcss
p6780
sVdreamhost
p6781
Vruby-on-rails
p6782
sVexists
p6783
Vsql
p6784
sVdatalist
p6785
Vasp.net
p6786
sVsubreport
p6787
g1767
sVracket
p6788
Vscheme
p6789
sVjni
p6790
Vjava
p6791
sVuialertview
p6792
Vios
p6793
sVxcode3.2
p6794
Vxcode
p6795
sVsoapui
p6796
Vsoap
p6797
sVprogress
p6798
Vandroid
p6799
sVad-hoc-distribution
p6800
Vios
p6801
sVjquery-ui-accordion
p6802
Vjquery
p6803
sVcmd.exe
p6804
g2221
sVtranspose
p6805
g2078
sVtkinter
p6806
Vpython
p6807
sVwpftoolkit
p6808
Vwpf
p6809
sVioexception
p6810
Vjava
p6811
sVattributes
p6812
NsVssrs-reports
p6813
NsVgnu-screen
p6814
Vlinux
p6815
sVphonegap-build
p6816
g3770
sVwebsphere-mq
p6817
Vjava
p6818
sVcompile-time
p6819
Vc++
p6820
sVscientific-computing
p6821
Vpython
p6822
sVrdbms
p6823
Vdatabase
p6824
sVjson
p6825
g6825
sVhttpconnection
p6826
Vjava
p6827
sVuidatepicker
p6828
Vios
p6829
sVlistboxitem
p6830
Vwpf
p6831
sVevent-bubbling
p6832
Vjquery
p6833
sVpicturebox
p6834
NsVassert
p6835
Vc++
p6836
sVnested-loops
p6837
g2305
sVcypher
p6838
NsVfault
p6839
Vwcf
p6840
sVboost-serialization
p6841
Vc++
p6842
sVintellisense
p6843
NsVdatacontext
p6844
NsVcherrypy
p6845
Vpython
p6846
sVsquid
p6847
g6847
sVlinkedin
p6848
g2715
sVarabic
p6849
Vandroid
p6850
sVregression
p6851
g6851
sVcjk
p6852
Vpython
p6853
sVproductivity
p6854
NsVjsf-2.2
p6855
Vjsf
p6856
sVadministration
p6857
Vwindows
p6858
sVremote-server
p6859
Vphp
p6860
sVgoogle-adwords
p6861
Vphp
p6862
sVmousewheel
p6863
Vjquery
p6864
sVmyfaces
p6865
Vjsf
p6866
sVreporting
p6867
NsVcode-organization
p6868
Vc++
p6869
sVdealloc
p6870
Vobjective-c
p6871
sVjboss-arquillian
p6872
Vjava
p6873
sVsetcookie
p6874
g2005
sVcodemirror
p6875
Vjavascript
p6876
sVcenter
p6877
Vcss
p6878
sVbuilder
p6879
Vflash
p6880
sVposition
p6881
Vcss
p6882
sVparallel-processing
p6883
Vmultithreading
p6884
sVwsimport
p6885
Vjava
p6886
sVsubtraction
p6887
Vpython
p6888
sVmultiple-tables
p6889
Vmysql
p6890
sVproximity
p6891
Vandroid
p6892
sVunordered-map
p6893
Vc++
p6894
sVabap
p6895
Vsap
p6896
sVtoggleclass
p6897
Vjquery
p6898
sVxml-serialization
p6899
NsVwmi-query
p6900
NsVintrospection
p6901
Vpython
p6902
sVadt
p6903
Vandroid
p6904
sVads
p6905
Vandroid
p6906
sVpython-module
p6907
Vpython
p6908
sVadf
p6909
g4040
sVadd
p6910
Vjquery
p6911
sVadb
p6912
Vandroid
p6913
sVada
p6914
NsVado
p6915
Vdelphi
p6916
sVgmp
p6917
Vc++
p6918
sVvisual-studio-lightswitch
p6919
NsVmatch
p6920
g73
sVc#-3.0
p6921
NsVandroid-location
p6922
Vandroid
p6923
sVmessage-queue
p6924
Vjava
p6925
sVtouch-event
p6926
Vandroid
p6927
sVdeployment
p6928
Vjava
p6929
sVinsert
p6930
g3578
sVlike
p6931
NsVpayment-processing
p6932
g3412
sVmobile-phones
p6933
g390
sVboost-spirit
p6934
Vc++
p6935
sVandroid-mapview
p6936
Vandroid
p6937
sVcrawler
p6938
g1169
sVpropel
p6939
Vphp
p6940
sVmschart
p6941
NsVpolyline
p6942
g600
sVrubymine
p6943
g230
sVboost-thread
p6944
Vc++
p6945
sVpaypal-adaptive-payments
p6946
g238
sVcllocation
p6947
Vios
p6948
sVhighlighting
p6949
Vjavascript
p6950
sVstatic-variables
p6951
Vc++
p6952
sVesb
p6953
NsVfacebook-login
p6954
NsVtimertask
p6955
Vandroid
p6956
sVmode
p6957
Vandroid
p6958
sVat-command
p6959
g226
sVnoise
p6960
Vmatlab
p6961
sVbar-chart
p6962
g136
sVhost
p6963
Vandroid
p6964
sVpanel
p6965
NsVdatareader
p6966
NsVglade
p6967
g3220
sVguice
p6968
Vjava
p6969
sVpowerpoint
p6970
NsVfacebook-oauth
p6971
NsVsocks
p6972
Vproxy
p6973
sVdataset
p6974
NsVguard
p6975
Vruby-on-rails
p6976
sVrenderer
p6977
Vjava
p6978
sVrcp
p6979
Veclipse
p6980
sVandroid-spinner
p6981
Vandroid
p6982
sVglib
p6983
g2360
sVrepeater
p6984
Vasp.net
p6985
sVsequel
p6986
g230
sVpy.test
p6987
Vpython
p6988
sVantlr3
p6989
NsVantlr4
p6990
NsVoauth
p6991
g5543
sVediting
p6992
g194
sVscrollable
p6993
Vjquery
p6994
sVweb-scraping
p6995
Vpython
p6996
sVvariadic-templates
p6997
Vc++
p6998
sVlync
p6999
NsVflip
p7000
Vjquery
p7001
sVstring-parsing
p7002
g474
sVblackberry-10
p7003
NsVdatepicker
p7004
Vjquery
p7005
sVandroid-tabhost
p7006
Vandroid
p7007
sVinternals
p7008
Vwindows
p7009
sVpid
p7010
Vlinux
p7011
sVpig
p7012
g3701
sVmime-types
p7013
Vphp
p7014
sVpip
p7015
Vpython
p7016
sVupnp
p7017
NsVresharper
p7018
NsVretina-display
p7019
Vios
p7020
sVsubsonic
p7021
NsVspring-ws
p7022
Vjava
p7023
sVbundle
p7024
Vandroid
p7025
sVinputstream
p7026
Vjava
p7027
sVreadline
p7028
Vpython
p7029
sVbing-maps
p7030
NsVextjs
p7031
g7031
sVstatusbar
p7032
Vandroid
p7033
sVsharepoint-designer
p7034
Vsharepoint
p7035
sVpythonpath
p7036
Vpython
p7037
sVfloating-point-precision
p7038
g1703
sVweb-browser
p7039
NsVnsdate
p7040
g3887
sVsleep
p7041
Vmultithreading
p7042
sVnsdata
p7043
Vios
p7044
sVios4.3
p7045
g194
sVtween
p7046
g298
sVquicktime
p7047
g396
sVtostring
p7048
Vjava
p7049
sVprepared-statement
p7050
Vphp
p7051
sVopen-source
p7052
Vjava
p7053
sVdjango-tastypie
p7054
Vdjango
p7055
sVnstableview
p7056
Vcocoa
p7057
sVruntime.exec
p7058
Vjava
p7059
sVnetbeans
p7060
g7060
sVguidelines
p7061
NsVmultiple-databases
p7062
Vmysql
p7063
sVcustom-view
p7064
Vandroid
p7065
sVkivy
p7066
Vpython
p7067
sVexpressions
p7068
NsVboost-python
p7069
Vc++
p7070
sVhide
p7071
g5646
sVselected
p7072
Vjquery
p7073
sVtablelayout
p7074
Vandroid
p7075
sVblur
p7076
Vjquery
p7077
sVgyroscope
p7078
g988
sVcode-contracts
p7079
NsVnslog
p7080
Vobjective-c
p7081
sVdelegates
p7082
NsVandroid-networking
p7083
Vandroid
p7084
sVpath
p7085
Vjava
p7086
sVforward-declaration
p7087
Vc++
p7088
sVdigits
p7089
g6031
sVdistributed-computing
p7090
Vjava
p7091
sVforum
p7092
Vphp
p7093
sVoracle9i
p7094
Voracle
p7095
sVgoogle-plus
p7096
g666
sVvisible
p7097
Vjquery
p7098
sVproject-management
p7099
Vagile
p7100
sVmysqldump
p7101
Vmysql
p7102
sVprintf
p7103
g20
sVjoomla1.7
p7104
g552
sVscaffolding
p7105
Vruby-on-rails
p7106
sVswingx
p7107
Vjava
p7108
sVtail
p7109
Vbash
p7110
sVback-button
p7111
Vandroid
p7112
sVpreview
p7113
Vandroid
p7114
sVannotations
p7115
Vjava
p7116
sVvps
p7117
g7117
sVphone
p7118
Vwindows
p7119
sVreal-time
p7120
Vjava
p7121
sVvpn
p7122
g7122
sVjoin
p7123
Vmysql
p7124
sVwowza
p7125
g4637
sVml
p7126
NsVhas-many-through
p7127
Vruby-on-rails
p7128
sVrails-engines
p7129
Vruby-on-rails
p7130
sVcompiler-optimization
p7131
Vc++
p7132
sVnine-patch
p7133
Vandroid
p7134
sVmq
p7135
g6818
sVinstall
p7136
Vpython
p7137
sVeager-loading
p7138
Vruby-on-rails
p7139
sVcruisecontrol.net
p7140
NsVcaptcha
p7141
Vphp
p7142
sVavplayer
p7143
Vios
p7144
sVfile-conversion
p7145
g1607
sVscheduling
p7146
Vjava
p7147
sVxdebug
p7148
Vphp
p7149
sVlinker-error
p7150
Vc++
p7151
sVvertical-alignment
p7152
Vcss
p7153
sVvagrant
p7154
Vchef
p7155
sV.net-3.5
p7156
NsVnusoap
p7157
Vphp
p7158
sVgdata-api
p7159
NsVx509
p7160
Vssl
p7161
sVyesod
p7162
Vhaskell
p7163
sVyii-extensions
p7164
g3014
sVibm-midrange
p7165
Vdb2
p7166
sVmesh
p7167
g68
sVyql
p7168
Vjavascript
p7169
sVbootstrap
p7170
g7170
sVe-commerce
p7171
Vphp
p7172
sVenter
p7173
Vjavascript
p7174
sVfrontend
p7175
g6275
sVjpeg
p7176
g998
sVsyntax-error
p7177
Vphp
p7178
sVdijkstra
p7179
Valgorithm
p7180
sVweblogic11g
p7181
g3825
sVrestful-architecture
p7182
Vrest
p7183
sVsendkeys
p7184
NsVtextbox
p7185
NsVappstore-approval
p7186
Vios
p7187
sVime
p7188
Vandroid
p7189
sVcli
p7190
Vphp
p7191
sVemail-attachments
p7192
g161
sVfwrite
p7193
Vphp
p7194
sVfade
p7195
Vjquery
p7196
sVchromecast
p7197
NsVclr
p7198
V.net
p7199
sVjava-util-scanner
p7200
Vjava
p7201
sVindexeddb
p7202
Vjavascript
p7203
sVfonts
p7204
g2389
sVodbc
p7205
Vsql
p7206
sVexplode
p7207
Vphp
p7208
sVhql
p7209
Vhibernate
p7210
sVeach
p7211
Vjquery
p7212
sVorchardcms
p7213
NsVgprs
p7214
Vandroid
p7215
sVsigning
p7216
Vandroid
p7217
sVinterop
p7218
NsVsemantic-web
p7219
NsVhandlebars.js
p7220
Vjavascript
p7221
sVrule-engine
p7222
g3479
sVghci
p7223
Vhaskell
p7224
sVtype-erasure
p7225
Vjava
p7226
sVfree
p7227
g2360
sVgoogle-maps-api-2
p7228
Vandroid
p7229
sVrestful-url
p7230
Vrest
p7231
sVacrobat
p7232
g1607
sVscala-2.10
p7233
Vscala
p7234
sVactiverecord
p7235
Vruby-on-rails
p7236
sVopenssl
p7237
g7161
sVfilter
p7238
Vjquery
p7239
sVextjs4.2
p7240
Vextjs
p7241
sVextjs4.1
p7242
Vextjs
p7243
sVazure-mobile-services
p7244
NsVglsl
p7245
Vopengl
p7246
sVwpf-4.0
p7247
Vwpf
p7248
sVrank
p7249
Vmysql
p7250
sVwoocommerce
p7251
Vwordpress
p7252
sVjava-7
p7253
Vjava
p7254
sVjava-6
p7255
Vjava
p7256
sVjava-8
p7257
Vjava
p7258
sVandroid-theme
p7259
Vandroid
p7260
sVbatch-file
p7261
g2221
sVcstring
p7262
Vc++
p7263
sVbitcoin
p7264
Vphp
p7265
sVpercentage
p7266
Vcss
p7267
sVknockout-validation
p7268
Vknockout.js
p7269
sVoracle-sqldeveloper
p7270
Voracle
p7271
sVmulti-touch
p7272
Vandroid
p7273
sVapi-key
p7274
Vandroid
p7275
sVhttp-headers
p7276
Vphp
p7277
sVroles
p7278
Vasp.net
p7279
sVandroid-3.0
p7280
Vandroid
p7281
sVzend-framework
p7282
g2947
sVkernel-module
p7283
g860
sVpage-refresh
p7284
Vjavascript
p7285
sVrad
p7286
Vjava
p7287
sVram
p7288
g1048
sVcloudfoundry
p7289
NsVplpgsql
p7290
Vpostgresql
p7291
sVconfigure
p7292
NsVhigh-availability
p7293
Vjava
p7294
sVclient
p7295
Vjava
p7296
sVsbcl
p7297
g4872
sVxfbml
p7298
NsVqooxdoo
p7299
Vjavascript
p7300
sVglob
p7301
Vphp
p7302
sVsharekit
p7303
Vios
p7304
sVbsd
p7305
Vlinux
p7306
sVmouseleave
p7307
Vjquery
p7308
sVpaintcomponent
p7309
Vjava
p7310
sVclassloader
p7311
Vjava
p7312
sVflow
p7313
NsVjquery-ui-slider
p7314
Vjquery
p7315
sVflot
p7316
Vjquery
p7317
sVenterprise
p7318
Vios
p7319
sVscreensaver
p7320
NsVxampp
p7321
Vphp
p7322
sVrandom
p7323
g3651
sVmediawiki
p7324
g371
sVcolors
p7325
g6360
sVradio
p7326
Vjquery
p7327
sVqstring
p7328
g347
sVprettyphoto
p7329
Vjquery
p7330
sVpki
p7331
Vjava
p7332
sVoci
p7333
Voracle
p7334
sVjava-ee-6
p7335
Vjava
p7336
sVhttp-status-code-302
p7337
NsVocr
p7338
NsVelmah
p7339
Vasp.net
p7340
sVfactory-girl
p7341
Vruby-on-rails
p7342
sVwatch
p7343
g270
sVfluid
p7344
Vcss
p7345
sVc3p0
p7346
Vhibernate
p7347
sVpop3
p7348
g161
sVamazon
p7349
Vamazon-web-services
p7350
sVfadein
p7351
Vjquery
p7352
sVreport
p7353
NsVcouchbase
p7354
g2861
sVbulkinsert
p7355
g228
sVcruisecontrol
p7356
NsVclickonce
p7357
NsVisolation-level
p7358
g305
sVwpf-controls
p7359
Vwpf
p7360
sVpseudo-class
p7361
Vcss
p7362
sVjquery-plugins
p7363
Vjquery
p7364
sVdetection
p7365
g1572
sVhash
p7366
g230
sVcgaffinetransform
p7367
Vios
p7368
sVload-testing
p7369
g5230
sVactionlink
p7370
NsVurllib
p7371
Vpython
p7372
sVcompilation
p7373
Vc++
p7374
sVvisualization
p7375
g7375
sVaccess-modifiers
p7376
NsVonkeydown
p7377
Vandroid
p7378
sVhtml5
p7379
g1418
sVssrs-2008
p7380
NsVgdi+
p7381
NsVtemplate-meta-programming
p7382
Vc++
p7383
sVcredit-card
p7384
g3412
sVfacet
p7385
Vsolr
p7386
sVhttp-get
p7387
Vandroid
p7388
sVwtforms
p7389
Vpython
p7390
sVeaseljs
p7391
Vjavascript
p7392
sVmaster-pages
p7393
Vasp.net
p7394
sVchar-array
p7395
g163
sVflexslider
p7396
Vjquery
p7397
sVimage-uploading
p7398
Vphp
p7399
sVcrystal-reports-xi
p7400
NsVcontainers
p7401
Vc++
p7402
sVsprite
p7403
Vcss
p7404
sVsearch
p7405
g7405
sVcore-data-migration
p7406
g1555
sVlook-and-feel
p7407
Vjava
p7408
sVqueryover
p7409
NsVdashboard
p7410
Vjavascript
p7411
sVexchangewebservices
p7412
NsVprocedure
p7413
Vmysql
p7414
sVhas-many
p7415
Vruby-on-rails
p7416
sVpyramid
p7417
Vpython
p7418
sVslideup
p7419
Vjquery
p7420
sVpharo
p7421
NsVhttprequest
p7422
Vjava
p7423
sVcgimage
p7424
Vios
p7425
sVrecursion
p7426
g108
sVfxml
p7427
Vjava
p7428
sVcss-float
p7429
Vcss
p7430
sVenvironment-variables
p7431
Vjava
p7432
sVmoose
p7433
Vperl
p7434
sVinstrumentation
p7435
Vjava
p7436
sVnumerical
p7437
Vc++
p7438
sVwordpress-loop
p7439
Vwordpress
p7440
sVsymfony-1.4
p7441
Vphp
p7442
sVportal
p7443
NsVnormalization
p7444
Vdatabase
p7445
sVcycle
p7446
Vjquery
p7447
sVjframe
p7448
Vjava
p7449
sVfbconnect
p7450
NsVuploading
p7451
Vphp
p7452
sVandroid-support-library
p7453
Vandroid
p7454
sVtestng
p7455
Vjava
p7456
sVbugzilla
p7457
Vperl
p7458
sVremoting
p7459
V.net
p7460
sVglsurfaceview
p7461
Vandroid
p7462
sVmemory-address
p7463
g2360
sVelf
p7464
Vlinux
p7465
sVdataprovider
p7466
g298
sVcasting
p7467
NsVjailbreak
p7468
Vios
p7469
sVrecaptcha
p7470
Vphp
p7471
sVconsole-application
p7472
NsV960.gs
p7473
Vcss
p7474
sVdelphi-xe
p7475
Vdelphi
p7476
sVseekbar
p7477
Vandroid
p7478
sVzoom
p7479
Vandroid
p7480
sVgoogle-search
p7481
g1570
sVbpm
p7482
g4965
sVtexture-mapping
p7483
Vopengl
p7484
sVjunit4
p7485
Vjava
p7486
sVauto-increment
p7487
Vmysql
p7488
sVrollover
p7489
Vcss
p7490
sVdataframes
p7491
g4151
sVrhino
p7492
Vjavascript
p7493
sVwampserver
p7494
Vphp
p7495
sVlistitem
p7496
Vandroid
p7497
sVarmv7
p7498
Vios
p7499
sVandroid-4.2
p7500
Vandroid
p7501
sVandroid-4.0
p7502
Vandroid
p7503
sVicu
p7504
Vc++
p7505
sVandroid-4.4
p7506
Vandroid
p7507
sVcore
p7508
Vjava
p7509
sVquaternion
p7510
g2048
sVcors
p7511
Vjavascript
p7512
sVdelphi-xe4
p7513
Vdelphi
p7514
sVdelphi-xe5
p7515
Vdelphi
p7516
sVspring-annotations
p7517
Vspring
p7518
sVlightbox
p7519
Vjquery
p7520
sVontouchlistener
p7521
Vandroid
p7522
sVmod-perl
p7523
Vperl
p7524
sVdelphi-xe3
p7525
Vdelphi
p7526
sVruntime
p7527
Vjava
p7528
sVprimitive
p7529
Vjava
p7530
sVjavac
p7531
Vjava
p7532
sVpuzzle
p7533
Valgorithm
p7534
sVmodalviewcontroller
p7535
Vios
p7536
sV32-bit
p7537
Vc++
p7538
sVgis
p7539
g4941
sVtransform
p7540
g2338
sVgif
p7541
g998
sVtfs2008
p7542
NsVhead
p7543
Vhtml
p7544
sVwireless
p7545
g7545
sVsubclassing
p7546
Vobjective-c
p7547
sVapache-poi
p7548
Vjava
p7549
sVheap
p7550
Vjava
p7551
sVselenium2
p7552
Vselenium
p7553
sVandroid-linearlayout
p7554
Vandroid
p7555
sVfosuserbundle
p7556
g359
sVattr
p7557
Vjquery
p7558
sVjtextpane
p7559
Vjava
p7560
sVdevexpress
p7561
NsVbids
p7562
Vssis
p7563
sVfilepicker.io
p7564
NsVpaging
p7565
Vasp.net
p7566
sVautoconf
p7567
NsVtrigonometry
p7568
g1711
sVtrim
p7569
g474
sVobfuscation
p7570
Vjava
p7571
sVoutlook-2007
p7572
NsVtrie
p7573
Vdata-structures
p7574
sVdecrypt
p7575
Vjava
p7576
sVwinsock2
p7577
Vc++
p7578
sVhaml
p7579
Vruby-on-rails
p7580
sVcheck
p7581
Vphp
p7582
sV7zip
p7583
NsVwebos
p7584
Vjavascript
p7585
sVreadonly
p7586
NsVpymongo
p7587
Vmongodb
p7588
sVtoad
p7589
Voracle
p7590
sVjaxb
p7591
g365
sVwebserver
p7592
Vphp
p7593
sVbackbone-routing
p7594
Vbackbone.js
p7595
sVsql
p7596
g7596
sVbitbucket
p7597
Vgit
p7598
sVhibernate-search
p7599
Vhibernate
p7600
sViterator
p7601
Vc++
p7602
sVrails-migrations
p7603
Vruby-on-rails
p7604
sVfocus
p7605
Vjquery
p7606
sVext-gwt
p7607
Vgwt
p7608
sVgraphing
p7609
Vpython
p7610
sVdate-formatting
p7611
Vjava
p7612
sVguava
p7613
Vjava
p7614
sVimage-resizing
p7615
Vphp
p7616
sVinline-block
p7617
Vcss
p7618
sVenvironment
p7619
g3030
sVstrategy-pattern
p7620
Vdesign-patterns
p7621
sVexcel-formula
p7622
NsVnesting
p7623
Vcss
p7624
sVubuntu-11.10
p7625
Vubuntu
p7626
sVgoogle-earth-plugin
p7627
g600
sVposts
p7628
Vwordpress
p7629
sVstandards
p7630
Vc++
p7631
sVnhibernate-mapping
p7632
NsVpmd
p7633
Vjava
p7634
sVaptana
p7635
g5391
sVuiscrollview
p7636
Vios
p7637
sVpinvoke
p7638
NsVport
p7639
g10
sVcorba
p7640
Vjava
p7641
sV64bit
p7642
g7538
sVbeautifulsoup
p7643
Vpython
p7644
sVajax4jsf
p7645
Vjsf
p7646
sVwindows-server-2012
p7647
g142
sVwcf-client
p7648
Vwcf
p7649
sVduplicate-data
p7650
Vmysql
p7651
sVbrowser-detection
p7652
Vjavascript
p7653
sVtoolbar
p7654
Vwpf
p7655
sVinotify
p7656
Vlinux
p7657
sVheredoc
p7658
Vphp
p7659
sVdelimiter
p7660
Vjava
p7661
sVquickblox
p7662
Vios
p7663
sVuilocalnotification
p7664
Vios
p7665
sVstatic-methods
p7666
Vjava
p7667
sVnavigation
p7668
Vcss
p7669
sVconvolution
p7670
Vmatlab
p7671
sVpriority-queue
p7672
Vjava
p7673
sVhandler
p7674
Vandroid
p7675
sVjquery-autocomplete
p7676
Vjquery
p7677
sViphone
p7678
g194
sVmsi
p7679
NsVcriteria
p7680
Vhibernate
p7681
sVexpressionengine
p7682
Vphp
p7683
sVudpclient
p7684
NsVnettcpbinding
p7685
Vwcf
p7686
sVsoap-client
p7687
Vphp
p7688
sVfacebook-iframe
p7689
NsVdhtml
p7690
Vjavascript
p7691
sVembedded-database
p7692
Vdatabase
p7693
sVwinforms
p7694
NsVnsmutablearray
p7695
Vobjective-c
p7696
sVpickle
p7697
Vpython
p7698
sVusability
p7699
Vuser-interface
p7700
sVbouncycastle
p7701
Vjava
p7702
sVfigure
p7703
Vmatlab
p7704
sVnexus
p7705
Vmaven
p7706
sVbackslash
p7707
Vphp
p7708
sVgoogle-chrome-extension
p7709
Vjavascript
p7710
sVcounting
p7711
Vpython
p7712
sVrequirements
p7713
NsVinheritance
p7714
g4008
sVweblogic-10.x
p7715
Vjava
p7716
sVeloquent
p7717
g5854
sVtic-tac-toe
p7718
Vjava
p7719
sVxulrunner
p7720
g1948
sVapple-push-notifications
p7721
Vios
p7722
sVclone
p7723
Vjquery
p7724
sVzend-route
p7725
g2947
sVghostscript
p7726
g1607
sVdynamic-arrays
p7727
Vc++
p7728
sVliquid
p7729
g230
sVstructuremap
p7730
NsVtypeahead.js
p7731
Vjavascript
p7732
sVrecordset
p7733
NsVblackberry-webworks
p7734
g790
sVsession-state
p7735
Vasp.net
p7736
sVdefault-value
p7737
NsVvtk
p7738
Vc++
p7739
sVgtk
p7740
g3220
sVcoordinates
p7741
g1025
sVplatform
p7742
Vandroid
p7743
sVuitabbarcontroller
p7744
g194
sVpermissions
p7745
g737
sVexecute
p7746
Vphp
p7747
sVequality
p7748
NsVtridion
p7749
NsVopera
p7750
Vjavascript
p7751
sVrandom-forest
p7752
g7752
sVejabberd
p7753
g1293
sVmysql2
p7754
Vruby-on-rails
p7755
sVlistadapter
p7756
Vandroid
p7757
sVpublic-key-encryption
p7758
g1008
sVjquery-isotope
p7759
Vjquery
p7760
sVdigital-signature
p7761
g3587
sVwinjs
p7762
NsVfactory
p7763
Vjava
p7764
sVejb
p7765
Vjava
p7766
sVparallax
p7767
Vjquery
p7768
sVbarcode-scanner
p7769
Vandroid
p7770
sVuikeyboard
p7771
Vios
p7772
sVejs
p7773
Vnode.js
p7774
sVhttp-referer
p7775
Vphp
p7776
sVtheory
p7777
Valgorithm
p7778
sVvariant
p7779
Vc++
p7780
sVgit
p7781
g7781
sVmarionette
p7782
Vbackbone.js
p7783
sVmysqli
p7784
Vphp
p7785
sVdispatcher
p7786
Vwpf
p7787
sVraster
p7788
g15
sVdatabase-normalization
p7789
Vdatabase
p7790
sVsession-variables
p7791
Vphp
p7792
sVyuv
p7793
g6360
sVyui
p7794
Vjavascript
p7795
sVlockscreen
p7796
Vandroid
p7797
sVyum
p7798
Vlinux
p7799
sVswing
p7800
g7800
sVtelerik-mvc
p7801
g1749
sVview
p7802
Vandroid
p7803
sVwindows-explorer
p7804
Vwindows
p7805
sVredhat
p7806
g7806
sVironruby
p7807
NsVpseudocode
p7808
Valgorithm
p7809
sVclient-side
p7810
Vjavascript
p7811
sVmodulo
p7812
g1711
sVios5
p7813
Vios
p7814
sVios4
p7815
g194
sVios7
p7816
Vios
p7817
sVios6
p7818
Vios
p7819
sViad
p7820
Vios
p7821
sVappcelerator
p7822
g106
sVmonkeypatching
p7823
Vpython
p7824
sVsilverlight-toolkit
p7825
NsVcontactscontract
p7826
Vandroid
p7827
sVpyqt4
p7828
Vpython
p7829
sVquery-builder
p7830
g359
sVpragma
p7831
Vc++
p7832
sVctags
p7833
NsVcopy
p7834
g829
sVfindbugs
p7835
Vjava
p7836
sVrequire
p7837
Vphp
p7838
sVr
p7839
g7839
sVposix
p7840
g163
sVeclipse-plugin-dev
p7841
Veclipse
p7842
sVant
p7843
g7843
sVjquery-selectors
p7844
Vjquery
p7845
sVsharepoint-2007
p7846
Vsharepoint
p7847
sVanimation
p7848
Vandroid
p7849
sVxtragrid
p7850
NsVsurf
p7851
g1572
sVmeta-tags
p7852
Vhtml
p7853
sVinternet-explorer-9
p7854
Vjavascript
p7855
sVinternet-explorer-8
p7856
Vjavascript
p7857
sVtornado
p7858
Vpython
p7859
sVinternet-explorer-7
p7860
Vcss
p7861
sVinternet-explorer-6
p7862
Vcss
p7863
sVc#-4.0
p7864
NsVsoftware-engineering
p7865
g7865
sVwhere-clause
p7866
Vsql
p7867
sVraytracing
p7868
Vgraphics
p7869
sVdojox
p7870
g147
sVselenium-grid
p7871
Vselenium
p7872
sVkey-bindings
p7873
Vjava
p7874
sVzend-db
p7875
g2947
sVuitextfield
p7876
Vios
p7877
sVgoogle-cloud-messaging
p7878
Vandroid
p7879
sVnlp
p7880
g7880
sVnspredicate
p7881
g1555
sVpermission-denied
p7882
Vphp
p7883
sVdatagrid
p7884
Vwpf
p7885
sVmonads
p7886
Vhaskell
p7887
sVspaces
p7888
g4448
sVmarkerclusterer
p7889
g600
sVhack
p7890
Vphp
p7891
sVdll
p7892
g6499
sVmacros
p7893
NsVjsoup
p7894
Vjava
p7895
sV32bit-64bit
p7896
g7538
sVactionview
p7897
Vruby-on-rails
p7898
sVreset
p7899
Vjquery
p7900
sVquery-string
p7901
Vasp.net
p7902
sVmongoengine
p7903
Vmongodb
p7904
sVssl
p7905
g7905
sVssh
p7906
g7906
sVsse
p7907
g1423
sVnetty
p7908
Vjava
p7909
sVsanitization
p7910
Vphp
p7911
sVhttpd.conf
p7912
Vapache
p7913
sVbison
p7914
NsVrelease-management
p7915
g361
sVclosures
p7916
Vjavascript
p7917
sVconnections
p7918
Vmysql
p7919
sVcom+
p7920
V.net
p7921
sVrmi
p7922
Vjava
p7923
sVdetect
p7924
Vjavascript
p7925
sVbackbone.js
p7926
g7926
sVwindows-forms-designer
p7927
NsVquartz-graphics
p7928
g194
sVgmail-imap
p7929
g3981
sV.net-4.5
p7930
NsV.net-4.0
p7931
NsVbitset
p7932
Vc++
p7933
sVnsnumber
p7934
Vobjective-c
p7935
sVvimrc
p7936
NsVuipageviewcontroller
p7937
Vios
p7938
sVregion
p7939
NsVdatagridview
p7940
NsVgoogle-docs
p7941
NsVbroadcastreceiver
p7942
Vandroid
p7943
sVrace-condition
p7944
Vmultithreading
p7945
sVfiltering
p7946
Vjquery
p7947
sVcabal
p7948
Vhaskell
p7949
sVkey
p7950
Vphp
p7951
sVrobotics
p7952
Vc++
p7953
sVauthlogic
p7954
Vruby-on-rails
p7955
sVpop
p7956
g1684
sVsampling
p7957
g7957
sVcolorbox
p7958
Vjquery
p7959
sVassertions
p7960
Vjava
p7961
sVhomebrew
p7962
g396
sVjnlp
p7963
Vjava
p7964
sVthinking-sphinx
p7965
Vruby-on-rails
p7966
sVsql-server-2008-express
p7967
g228
sVvisual-foxpro
p7968
NsVdirection
p7969
Vandroid
p7970
sVcopy-paste
p7971
NsVapache-felix
p7972
g2020
sVmocking
p7973
Vunit-testing
p7974
sVcommon-table-expression
p7975
Vsql
p7976
sVaudio-streaming
p7977
Vandroid
p7978
sVironpython
p7979
Vpython
p7980
sVprotocols
p7981
Vobjective-c
p7982
sVcase
p7983
Vsql
p7984
sVwith-statement
p7985
Vpython
p7986
sVpca
p7987
g7987
sVpostscript
p7988
g1607
sVmount
p7989
Vlinux
p7990
sVcoldfusion
p7991
NsVmysql-connector
p7992
Vmysql
p7993
sVconfigurationmanager
p7994
NsVtelephony
p7995
Vandroid
p7996
sVjface
p7997
Vjava
p7998
sVreshape
p7999
g136
sVlocking
p8000
Vmultithreading
p8001
sVcommand-line-arguments
p8002
Vwindows
p8003
sVhtml
p8004
g8004
sVservice-broker
p8005
g228
sVevents
p8006
NsVstatus
p8007
NsVscreenshot
p8008
Vandroid
p8009
sVdynamics-crm-2011
p8010
NsVdriver
p8011
Vwindows
p8012
sVsamsung-smart-tv
p8013
Vjavascript
p8014
sVsubmenu
p8015
Vcss
p8016
sVminimize
p8017
NsVcomponents
p8018
Vjava
p8019
sVmodel
p8020
Vruby-on-rails
p8021
sVmodem
p8022
g226
sVcompact-framework
p8023
NsVclob
p8024
Voracle
p8025
sVradio-button
p8026
Vjquery
p8027
sVkill
p8028
NsVunicode
p8029
g6853
sVmongoose
p8030
Vnode.js
p8031
sVinternationalization
p8032
NsVsymbolic-math
p8033
Vmatlab
p8034
sValphabetical
p8035
g197
sVsamba
p8036
g8036
sVsql-server-ce
p8037
NsVmetaprogramming
p8038
g230
sVazure-storage-blobs
p8039
NsVapache2
p8040
Vapache
p8041
sVdecompression
p8042
NsVblob
p8043
Vmysql
p8044
sVrdlc
p8045
NsVlibreoffice
p8046
g2301
sVstyles
p8047
Vwpf
p8048
sVscheduler
p8049
Vjava
p8050
sVsilverlight
p8051
NsVargument-passing
p8052
Vc++
p8053
sVjfreechart
p8054
Vjava
p8055
sVtemplating
p8056
Vjavascript
p8057
sVsimulator
p8058
g194
sVbackground-process
p8059
Vios
p8060
sVoperating-system
p8061
g163
sVreturn-value
p8062
Vc++
p8063
sVrsync
p8064
Vlinux
p8065
sVdynamic-linking
p8066
Vc++
p8067
sVliterals
p8068
g474
sVgearman
p8069
Vphp
p8070
sVrpm
p8071
Vlinux
p8072
sVredis
p8073
g8073
sVslick
p8074
Vscala
p8075
sVlegal
p8076
NsVautomake
p8077
NsVprovider
p8078
Vandroid
p8079
sVkvm
p8080
NsVshared-hosting
p8081
Vphp
p8082
sVelementtree
p8083
Vpython
p8084
sVclass-method
p8085
Vpython
p8086
sVfirebird
p8087
Vsql
p8088
sVsqldatasource
p8089
Vasp.net
p8090
sVnsdatecomponents
p8091
g3887
sVspss
p8092
g8092
sVwebsphere-6.1
p8093
g3366
sVcuda
p8094
g1367
sVnullpointerexception
p8095
Vjava
p8096
sVknitr
p8097
g4941
sVcurses
p8098
Vpython
p8099
sVcommunication
p8100
Vjava
p8101
sVnumber-formatting
p8102
Vjava
p8103
sVliferay
p8104
NsVcode-snippets
p8105
NsVodata
p8106
Vwcf
p8107
sVmatlab-toolbox
p8108
Vmatlab
p8109
sVvb.net-2010
p8110
g676
sVnumeric
p8111
g136
sVframebuffer
p8112
Vopengl
p8113
sVactivemq
p8114
Vjms
p8115
sVioc-container
p8116
NsVwcf-data-services
p8117
g8107
sVandroid-ksoap2
p8118
Vandroid
p8119
sVentity-attribute-value
p8120
Vmysql
p8121
sVexcel-2003
p8122
NsVsqoop
p8123
Vhadoop
p8124
sVexcel-2007
p8125
NsVrvm
p8126
g230
sVasynchronous
p8127
NsVfirebug
p8128
Vjavascript
p8129
sVcoded-ui-tests
p8130
NsVfiddler
p8131
NsVclearcase-ucm
p8132
NsVamazon-sqs
p8133
Vamazon-web-services
p8134
sVgettext
p8135
Vphp
p8136
sVmatrix-multiplication
p8137
g2078
sVvirtual-memory
p8138
g163
sVwindows-xp
p8139
Vwindows
p8140
sVtype-conversion
p8141
NsVrspec-rails
p8142
Vruby-on-rails
p8143
sVhttpmodule
p8144
Vasp.net
p8145
sVjavafx-2
p8146
g7428
sVjavafx-8
p8147
g7428
sVsymbol
p8148
Vjava
p8149
sVqtablewidget
p8150
g347
sVattached-properties
p8151
Vwpf
p8152
sVnswindow
p8153
Vcocoa
p8154
sVraspbian
p8155
Vraspberry-pi
p8156
sVn-tier
p8157
NsVwifi
p8158
g8158
sVcurve
p8159
NsVvisual-c++
p8160
Vc++
p8161
sVclasscastexception
p8162
Vjava
p8163
sVdirectory
p8164
Vphp
p8165
sVcollision-detection
p8166
Vjava
p8167
sVtelerik-grid
p8168
g1749
sVbytearray
p8169
Vjava
p8170
sVlua-table
p8171
NsVx509certificate
p8172
NsVscalaz
p8173
Vscala
p8174
sVdisk
p8175
Vlinux
p8176
sVfluentvalidation
p8177
NsVinit
p8178
Vpython
p8179
sVwebgrid
p8180
NsVkeydown
p8181
Vjquery
p8182
sVical
p8183
Vphp
p8184
sVsony
p8185
Vandroid
p8186
sVdapper
p8187
NsVpush-notification
p8188
Vandroid
p8189
sVlisp
p8190
g8190
sVevaluation
p8191
Vjava
p8192
sVlist
p8193
Vpython
p8194
sVpicasa
p8195
Vandroid
p8196
sVdomain-driven-design
p8197
NsVwebdav
p8198
NsVbuilt-in
p8199
Vpython
p8200
sVjeditorpane
p8201
Vjava
p8202
sVsyslog
p8203
g3197
sVdesign
p8204
NsVshared-libraries
p8205
Vc++
p8206
sVlistbox
p8207
NsVpinterest
p8208
Vjavascript
p8209
sVsum
p8210
Vmysql
p8211
sVversion
p8212
Vjava
p8213
sVsession-timeout
p8214
g1512
sVrow
p8215
g4226
sVmemcached
p8216
Vphp
p8217
sVjsf-2
p8218
g3627
sVstandards-compliance
p8219
Vc++
p8220
sVtags
p8221
g2515
sVmediaelement.js
p8222
Vjavascript
p8223
sVweb-security
p8224
Vphp
p8225
sVmongodb-java
p8226
Vmongodb
p8227
sVhashtable
p8228
Vjava
p8229
sVswi-prolog
p8230
Vprolog
p8231
sVlinux-device-driver
p8232
g860
sVmediastore
p8233
Vandroid
p8234
sVthrift
p8235
Vjava
p8236
sVmicrodata
p8237
NsVgrails-plugin
p8238
g2135
sVanonymous-function
p8239
Vjavascript
p8240
sVrequirejs
p8241
g3483
sVviewflipper
p8242
Vandroid
p8243
sVonbeforeunload
p8244
Vjavascript
p8245
sVoptions
p8246
g8246
sVrename
p8247
g829
sVrenderpartial
p8248
Vruby-on-rails
p8249
sVtfsbuild
p8250
NsVword-vba
p8251
NsVjbutton
p8252
Vjava
p8253
sVcrystal-reports-2008
p8254
NsVgame-center
p8255
Vios
p8256
sVrazor-2
p8257
NsVdeque
p8258
Vc++
p8259
sVoperators
p8260
Vc++
p8261
sVopenframeworks
p8262
Vc++
p8263
sVdom-manipulation
p8264
Vjquery
p8265
sVssis-data-transformations
p8266
Vssis
p8267
sVgeneric-programming
p8268
Vc++
p8269
sVspeech-recognition
p8270
g2776
sVsymfony-2.3
p8271
g359
sVsymfony-2.1
p8272
g359
sVrestsharp
p8273
NsVradgrid
p8274
g1749
sVcircular-dependency
p8275
Vc++
p8276
sVlarge-files
p8277
Vjava
p8278
sVequation
p8279
g1711
sVfor-loop
p8280
g2305
sVcpu-architecture
p8281
g1228
sVavi
p8282
g2
sVdivision
p8283
g1711
sVvirtuemart
p8284
g552
sVrvalue-reference
p8285
Vc++
p8286
sVcapistrano
p8287
Vruby-on-rails
p8288
sVwebsphere-7
p8289
g3366
sVwebsphere-8
p8290
g3366
sValgebra
p8291
g8291
sVlighting
p8292
Vopengl
p8293
sVlazy-loading
p8294
Vhibernate
p8295
sVinvalidoperationexception
p8296
NsVshort
p8297
Vjava
p8298
sVandroid-dialog
p8299
Vandroid
p8300
sVfooter
p8301
Vcss
p8302
sVpostfix
p8303
g161
sVtelephonymanager
p8304
Vandroid
p8305
sVcallback
p8306
Vjavascript
p8307
sVblackberry-playbook
p8308
g790
sVhandlebars
p8309
Vjavascript
p8310
sVxmpp
p8311
g1293
sVcode-generation
p8312
NsVtypedef
p8313
Vc++
p8314
sVphantomjs
p8315
g2891
sVsvcutil.exe
p8316
Vwcf
p8317
sValter
p8318
Vmysql
p8319
sVreturn
p8320
g2418
sVresizable
p8321
Vjquery
p8322
sVmemory-management
p8323
g8323
sVshow-hide
p8324
Vjquery
p8325
sVgetelementbyid
p8326
Vjavascript
p8327
sVscipy
p8328
Vpython
p8329
sVms-office
p8330
g8330
sVgame-engine
p8331
g8331
sVamazon-ec2
p8332
g8332
sVstring-array
p8333
Vandroid
p8334
sVnservicebus
p8335
NsVrefresh
p8336
Vjavascript
p8337
sVinnodb
p8338
g8338
sVoutputstream
p8339
Vjava
p8340
sVandroid-facebook
p8341
Vandroid
p8342
sVshared-objects
p8343
g298
sVaddressbook
p8344
g194
sVgoogle-gdk
p8345
NsVexpect
p8346
NsVloops
p8347
g2305
sVauthorize.net
p8348
Vphp
p8349
sVimpersonation
p8350
NsVdirectx-11
p8351
g562
sVetag
p8352
g781
sVhibernate-mapping
p8353
Vhibernate
p8354
sVbing-maps-api
p8355
NsVsqldatatypes
p8356
Vsql
p8357
sVstrong-parameters
p8358
Vruby-on-rails
p8359
sVmodularity
p8360
Vjava
p8361
sVimacros
p8362
Vjavascript
p8363
sVmissing-data
p8364
g15
sVcomplex-numbers
p8365
Vc++
p8366
sVfeed
p8367
g1798
sVnotify
p8368
Vjava
p8369
sVservicebus
p8370
NsVxml-namespaces
p8371
Vxml
p8372
sVgpl
p8373
NsVdbunit
p8374
Vjava
p8375
sVgpg
p8376
g1008
sVrailo
p8377
NsVspock
p8378
g2135
sVstorm
p8379
Vjava
p8380
sVgpu
p8381
g1367
sVstore
p8382
Vextjs
p8383
sVgps
p8384
Vandroid
p8385
sVjquery-tools
p8386
Vjquery
p8387
sVsegue
p8388
Vios
p8389
sVoption
p8390
g1297
sVsilex
p8391
Vphp
p8392
sVmediarecorder
p8393
Vandroid
p8394
sVbbcode
p8395
Vphp
p8396
sVdouble
p8397
Vjava
p8398
sVdevice-driver
p8399
Vwindows
p8400
sVvariable-scope
p8401
Vjavascript
p8402
sVbitwise
p8403
g163
sVjasper-reports
p8404
g1767
sVscatter-plot
p8405
g4941
sVobjective-c-runtime
p8406
Vobjective-c
p8407
sVcharacter-encoding
p8408
Vphp
p8409
sVfile-get-contents
p8410
Vphp
p8411
sVwindows-phone-8
p8412
NsVtransactional
p8413
Vspring
p8414
sVwindows-phone-7
p8415
NsVquicksort
p8416
Valgorithm
p8417
sVcentos6
p8418
Vcentos
p8419
sVeasy-install
p8420
Vpython
p8421
sVjsf
p8422
g8422
sVpopulate
p8423
Vphp
p8424
sVexec
p8425
Vphp
p8426
sVdata.frame
p8427
g4941
sVsearchview
p8428
Vandroid
p8429
sVzend-form-element
p8430
g2947
sVsaxparser
p8431
Vandroid
p8432
sVsql-server-2008-r2
p8433
Vsql
p8434
sVpdfbox
p8435
Vjava
p8436
sVrunnable
p8437
Vjava
p8438
sVcrosstab
p8439
Vsql
p8440
sVmathematical-optimization
p8441
Vmatlab
p8442
sVwindows
p8443
g8443
sVandroid-video-player
p8444
Vandroid
p8445
sVwebclient
p8446
NsVmediaelement
p8447
Vwpf
p8448
sVpublic-key
p8449
g1008
sVandroid-arrayadapter
p8450
Vandroid
p8451
sVrtf
p8452
NsVcdn
p8453
Vjavascript
p8454
sVcdi
p8455
Vjava
p8456
sVcdt
p8457
Veclipse
p8458
sVarea
p8459
Vjquery
p8460
sVrtp
p8461
Vandroid
p8462
sVtypo3
p8463
NsViis-7.5
p8464
g3548
sVcheckboxlist
p8465
Vasp.net
p8466
sVtriangle
p8467
Vjava
p8468
sVinvoke
p8469
NsVpjsip
p8470
NsVhid
p8471
Vusb
p8472
sVshared
p8473
g1048
sVpython-c-api
p8474
Vpython
p8475
sVcompiler
p8476
g8476
sVactiviti
p8477
NsVactivity
p8478
Vandroid
p8479
sVfacebook-access-token
p8480
NsVequinox
p8481
g2020
sVdump
p8482
Vmysql
p8483
sVweb-services
p8484
g4332
sVandroid-tablelayout
p8485
Vandroid
p8486
sVarm
p8487
g1533
sVfullscreen
p8488
Vandroid
p8489
sVlibraries
p8490
Vc++
p8491
sVunions
p8492
g2360
sVoffline-caching
p8493
g1418
sVformatter
p8494
Vjava
p8495
sVgoogle-translate
p8496
Vjavascript
p8497
sVcorruption
p8498
Vc++
p8499
sVhexadecimal-notation
p8500
g1163
sVprofiling
p8501
g5742
sVappwidget
p8502
Vandroid
p8503
sVcode-smell
p8504
NsVconsole
p8505
NsVsolr
p8506
g8506
sVsonata-admin
p8507
g359
sVc
p8508
g8508
sVberkeley-db
p8509
Vjava
p8510
sVcontext
p8511
Vandroid
p8512
sVfile-io
p8513
Vjava
p8514
sVmultiple-columns
p8515
Vcss
p8516
sVgroups
p8517
g4981
sVhtml5-appcache
p8518
g1418
sVzurb-foundation
p8519
Vcss
p8520
sVkeytool
p8521
Vjava
p8522
sVexc-bad-access
p8523
Vobjective-c
p8524
sVswf
p8525
Vflash
p8526
sVpc
p8527
Vandroid
p8528
sVpg
p8529
Vruby-on-rails
p8530
sVpe
p8531
Vwindows
p8532
sVswt
p8533
g7998
sVresttemplate
p8534
Vspring
p8535
sVprecision
p8536
g1703
sVrspec
p8537
g6643
sVdql
p8538
g359
sVz-index
p8539
Vcss
p8540
sVgridpanel
p8541
Vextjs
p8542
sVosx-mountain-lion
p8543
g396
sVautomator
p8544
g396
sVreflection.emit
p8545
NsVproject-euler
p8546
Vpython
p8547
sVdirectoryservices
p8548
NsVscreen-size
p8549
Vandroid
p8550
sVbehavior
p8551
g3559
sVspring-webflow
p8552
Vspring
p8553
sVtreenode
p8554
NsVcode-completion
p8555
Veclipse
p8556
sVandroid-textview
p8557
Vandroid
p8558
sVcamera-calibration
p8559
g1572
sVactivesupport
p8560
Vruby-on-rails
p8561
sVria
p8562
NsVhadoop
p8563
g8563
sVcoffeescript
p8564
g8564
sVsqlite3
p8565
g2601
sVshiro
p8566
Vjava
p8567
sVfacebook-timeline
p8568
NsVx86
p8569
Vassembly
p8570
sVhidden-field
p8571
Vjquery
p8572
sVgoogle-code
p8573
Vsvn
p8574
sVtriangulation
p8575
NsVmips
p8576
Vassembly
p8577
sVbackground-image
p8578
Vcss
p8579
sVtabactivity
p8580
Vandroid
p8581
sVblackberry-simulator
p8582
g790
sVanalysis
p8583
Valgorithm
p8584
sVedge
p8585
Vgraph
p8586
sVcpan
p8587
Vperl
p8588
sVelastic-map-reduce
p8589
Vhadoop
p8590
sVjtree
p8591
Vjava
p8592
sVmarshalling
p8593
NsVeclipse-cdt
p8594
Veclipse
p8595
sVintervals
p8596
Vjavascript
p8597
sVhuffman
p8598
Vc++
p8599
sVscalatest
p8600
Vscala
p8601
sVhello-world
p8602
Vjava
p8603
sVtablet
p8604
Vandroid
p8605
sVenvdte
p8606
NsVfinder
p8607
g396
sVbuild
p8608
g286
sVlinked-server
p8609
g228
sVaggregation
p8610
Vmongodb
p8611
sVinteger
p8612
Vjava
p8613
sVjfilechooser
p8614
Vjava
p8615
sVlinqpad
p8616
NsVignore
p8617
Vsvn
p8618
sVsitemap
p8619
Vasp.net
p8620
sVouter-join
p8621
Vsql
p8622
sVmodernizr
p8623
Vjavascript
p8624
sVgoogle-api
p8625
g2772
sVtraits
p8626
Vscala
p8627
sVgoogle-play-services
p8628
Vandroid
p8629
sVnewsletter
p8630
g161
sVebean
p8631
g318
sVcommand-prompt
p8632
Vwindows
p8633
sVread-eval-print-loop
p8634
Vclojure
p8635
sVglibc
p8636
g2360
sVwkhtmltopdf
p8637
Vphp
p8638
sVkendo-grid
p8639
NsVgenetic-algorithm
p8640
g8640
sVhibernate-annotations
p8641
Vhibernate
p8642
sVxsd
p8643
g4769
sVvbulletin
p8644
Vphp
p8645
sVkeycode
p8646
Vjavascript
p8647
sVconfluence
p8648
NsVpipeline
p8649
Vpowershell
p8650
sVgrand-central-dispatch
p8651
Vios
p8652
sVbounding-box
p8653
g8167
sVsymfony1
p8654
g7442
sVsymfony2
p8655
g359
sVrange
p8656
NsVtogglebutton
p8657
Vandroid
p8658
sVphp-cli
p8659
Vmysql
p8660
sVmcrypt
p8661
Vphp
p8662
sVwebview
p8663
Vandroid
p8664
sVxmlnode
p8665
Vxml
p8666
sVpageload
p8667
Vasp.net
p8668
sVmyisam
p8669
g8669
sVhottowel
p8670
g5637
sVintentfilter
p8671
Vandroid
p8672
sVfopen
p8673
Vphp
p8674
sVellipse
p8675
Vwpf
p8676
sVrows
p8677
Vmysql
p8678
sVmvccontrib
p8679
NsVlldb
p8680
Vxcode
p8681
sVxps
p8682
Vwpf
p8683
sVtwitter
p8684
g1975
sVwindows-8.1
p8685
NsVmemory
p8686
g1048
sVisolatedstorage
p8687
NsVpaypal-sandbox
p8688
g238
sVpopupwindow
p8689
Vandroid
p8690
sVpartitioning
p8691
Vmysql
p8692
sVflash-player
p8693
Vflash
p8694
sVhighlight
p8695
Vjquery
p8696
sVshortcuts
p8697
Vwindows
p8698
sVfread
p8699
g2360
sVtomcat7
p8700
Vjava
p8701
sVtomcat6
p8702
Vjava
p8703
sVrally
p8704
Vjavascript
p8705
sVdataadapter
p8706
NsVspring-social
p8707
Vspring
p8708
sVerror-reporting
p8709
Vphp
p8710
sVlucene.net
p8711
Vlucene
p8712
sVfile-extension
p8713
Vphp
p8714
sVgoogle-calendar
p8715
Vphp
p8716
sVquartz-core
p8717
Vios
p8718
sVoutlook-vba
p8719
NsVsystem-tray
p8720
NsVuploadify
p8721
Vjquery
p8722
sVoverlay
p8723
Vandroid
p8724
sVkarma
p8725
Vangularjs
p8726
sVtextmate
p8727
NsVscroll
p8728
Vjquery
p8729
sVnasm
p8730
Vassembly
p8731
sVgoogle-api-java-client
p8732
Vandroid
p8733
sVdependency-injection
p8734
NsVggplot2
p8735
g15
sVtooltip
p8736
Vjquery
p8737
sVdialogbox
p8738
Vandroid
p8739
sVbase64
p8740
Vphp
p8741
sVlanguages
p8742
Vandroid
p8743
sVarchlinux
p8744
Vlinux
p8745
sVeclipse-rcp
p8746
Veclipse
p8747
sVinclude
p8748
Vphp
p8749
sVjunit
p8750
g8750
sVconfirmation
p8751
Vjavascript
p8752
sVsymfony-sonata
p8753
g359
sVtransactionscope
p8754
NsVstackoverflow
p8755
Vjava
p8756
sVkinect-sdk
p8757
NsVibm
p8758
Vjava
p8759
sVfadeout
p8760
Vjquery
p8761
sVrobotframework
p8762
Vpython
p8763
sVsql-server
p8764
g228
sVpolling
p8765
Vajax
p8766
sVuicollectionviewcell
p8767
g2774
sVcfc
p8768
NsVfold
p8769
Vhaskell
p8770
sVtortoisesvn
p8771
Vsvn
p8772
sVuinavigationitem
p8773
Vios
p8774
sVbdd
p8775
g8775
sVuitabbaritem
p8776
g194
sVnsnotificationcenter
p8777
Vios
p8778
sVisapi
p8779
Viis
p8780
sVwifi-direct
p8781
Vandroid
p8782
sVcx-freeze
p8783
Vpython
p8784
sVember-data
p8785
Vember.js
p8786
sVjson-encode
p8787
Vphp
p8788
sVin-app-billing
p8789
Vandroid
p8790
sVjqtouch
p8791
Vjquery
p8792
sVjquery-ui
p8793
Vjquery
p8794
sVfirefox-addon-sdk
p8795
g1948
sVgoogle-chrome
p8796
g2252
sVshader
p8797
Vopengl
p8798
sVnsstring
p8799
Vobjective-c
p8800
sVwebrequest
p8801
NsVhelpers
p8802
Vruby-on-rails
p8803
sVenterprise-library
p8804
NsVlanguage-design
p8805
Vprogramming-languages
p8806
sVapple
p8807
Vios
p8808
sVapt
p8809
Vubuntu
p8810
sVapk
p8811
Vandroid
p8812
sVapi
p8813
g2715
sVgoogle-cast
p8814
NsVapply
p8815
g4941
sVwindows-azure-storage
p8816
NsVlnk2019
p8817
Vc++
p8818
sVstream
p8819
NsVsilverlight-3.0
p8820
NsVportable-class-library
p8821
NsVweb-deployment-project
p8822
Vasp.net
p8823
sVgeneric-list
p8824
NsVred5
p8825
Vjava
p8826
sVepoll
p8827
Vlinux
p8828
sVsql-like
p8829
Vmysql
p8830
sVxaml
p8831
Vwpf
p8832
sVeditable
p8833
Vjquery
p8834
sVoverride
p8835
Vjava
p8836
sVtableview
p8837
Vios
p8838
sVenterprise-architect
p8839
g134
sVthymeleaf
p8840
g6645
sVabort
p8841
NsVeclipse-wtp
p8842
Veclipse
p8843
sVtap
p8844
Vandroid
p8845
sVtar
p8846
Vlinux
p8847
sVserial
p8848
g8848
sVapex-code
p8849
Vsalesforce
p8850
sVdwr
p8851
Vjava
p8852
sVsip
p8853
NsVsubdirectory
p8854
NsVtextblock
p8855
Vwpf
p8856
sVoracle-adf
p8857
g4040
sVadministrator
p8858
Vwindows
p8859
sVpostback
p8860
Vasp.net
p8861
sVjavascript-events
p8862
Vjavascript
p8863
sVmultiple-inheritance
p8864
Vc++
p8865
sVwindows-services
p8866
NsVauto-generate
p8867
NsVlight
p8868
Vopengl
p8869
sVfailover
p8870
g5858
sVnamed-pipes
p8871
NsVdjango-class-based-views
p8872
Vdjango
p8873
sVsubdomains
p8874
NsVfreebsd
p8875
g8875
sVcrawling
p8876
g1169
sVmouseover
p8877
Vjquery
p8878
sVinterpreter
p8879
Vpython
p8880
sVcode-review
p8881
NsVoperator-keyword
p8882
Vc++
p8883
sVspotify
p8884
Vjavascript
p8885
sVdisqus
p8886
Vjavascript
p8887
sVsqlexception
p8888
Vjava
p8889
sVglew
p8890
Vopengl
p8891
sVmultithreading
p8892
g8892
sVflex
p8893
g298
sVmultimap
p8894
Vc++
p8895
sVcrash
p8896
Vandroid
p8897
sVindexing
p8898
Vmysql
p8899
sVa-star
p8900
Valgorithm
p8901
sVfingerprint
p8902
NsVsignals-slots
p8903
g347
sVnfc
p8904
g1046
sVtrac
p8905
Vsvn
p8906
sVedit
p8907
Vphp
p8908
sV.net
p8909
g8909
sVbitwise-operators
p8910
g2360
sVnfs
p8911
g8911
sVvideoview
p8912
Vandroid
p8913
sVwinrt-xaml
p8914
NsVcascading-deletes
p8915
Vsql
p8916
sVmaven-plugin
p8917
Vmaven
p8918
sVsimpledateformat
p8919
Vjava
p8920
sVmxml
p8921
g298
sVxlrd
p8922
Vpython
p8923
sVvimscript
p8924
NsVhttpurlconnection
p8925
Vjava
p8926
sVout
p8927
NsVcategory
p8928
Vwordpress
p8929
sVfckeditor
p8930
Vjavascript
p8931
sVcommand-line
p8932
g8003
sVvcl
p8933
Vdelphi
p8934
sVfriendly-url
p8935
NsVmetaclass
p8936
Vpython
p8937
sVmoxy
p8938
g365
sVpixelsense
p8939
Vwpf
p8940
sVdictionary
p8941
Vpython
p8942
sVipod
p8943
g194
sVachartengine
p8944
Vandroid
p8945
sVimplode
p8946
Vphp
p8947
sVmulti-tenant
p8948
NsVonclicklistener
p8949
Vandroid
p8950
sVsimplexml
p8951
Vphp
p8952
sVvc6
p8953
Vc++
p8954
sVxml-schema
p8955
Vxml
p8956
sVmaven-3
p8957
Vmaven
p8958
sVmaven-2
p8959
Vjava
p8960
sVindesign
p8961
Vjavascript
p8962
sVecho
p8963
Vphp
p8964
sVcolor-picker
p8965
Vjquery
p8966
sVweka
p8967
Vjava
p8968
sVcolor-scheme
p8969
NsVmakefile
p8970
NsVpriority
p8971
Vjava
p8972
sVunhandled-exception
p8973
NsVcompiler-warnings
p8974
Vc++
p8975
sVshell
p8976
g2007
sVslider
p8977
Vjquery
p8978
sVsessionid
p8979
g1512
sVquantmod
p8980
g15
sVdelphi-2009
p8981
Vdelphi
p8982
sVadfs2.0
p8983
g2815
sVpojo
p8984
Vjava
p8985
sVdelphi-2007
p8986
Vdelphi
p8987
sVunmarshalling
p8988
g365
sVrepository-pattern
p8989
NsVsimplemembership
p8990
NsVmigration
p8991
Vruby-on-rails
p8992
sVprotocol-buffers
p8993
Vc++
p8994
sVtwitter-api
p8995
Vphp
p8996
sVclip
p8997
Vjava
p8998
sVapache-commons
p8999
Vjava
p9000
sVlinker
p9001
Vc++
p9002
sVqueryset
p9003
Vdjango
p9004
sVtypeahead
p9005
g569
sVlinked
p9006
g8194
sVangle
p9007
g1711
sVcontact
p9008
g1781
sVscons
p9009
Vpython
p9010
sVlanguage-lawyer
p9011
Vc++
p9012
sVautomated-tests
p9013
Vtesting
p9014
sVcollaboration
p9015
g1460
sVclass
p9016
g4459
sVvolume
p9017
Vandroid
p9018
sVgoogle-maps-sdk-ios
p9019
Vios
p9020
sVpipe
p9021
g20
sVgodaddy
p9022
Vphp
p9023
sVjcr
p9024
NsVef-code-first
p9025
NsVgrails-domain-class
p9026
g2135
sVweb.py
p9027
Vpython
p9028
sVpyparsing
p9029
Vpython
p9030
sVrouting
p9031
g9031
sVstrtok
p9032
g4749
sVdatarow
p9033
NsVlocal
p9034
Vjavascript
p9035
sVurlconnection
p9036
Vjava
p9037
sVcube
p9038
NsVdiacritics
p9039
Vphp
p9040
sVwords
p9041
g474
sVcustom-action
p9042
NsVdesign-patterns
p9043
g9043
sVqt
p9044
g347
sVdynamic-data
p9045
Vasp.net
p9046
sVpython-requests
p9047
Vpython
p9048
sVjava.util.concurrent
p9049
Vjava
p9050
sVqa
p9051
g9051
sVsql-management-studio
p9052
g228
sVmenuitem
p9053
Vandroid
p9054
sVstylecop
p9055
NsVsaml-2.0
p9056
g3773
sVcheckstyle
p9057
Vjava
p9058
sVx11
p9059
g167
sVgoogle-cloud-endpoints
p9060
g97
sVmodule
p9061
Vpython
p9062
sVpinchzoom
p9063
Vandroid
p9064
sVmultipart
p9065
Vjava
p9066
sVgmail
p9067
g161
sVbreakpoints
p9068
g270
sVnested-lists
p9069
Vpython
p9070
sVg++
p9071
Vc++
p9072
sVuielement
p9073
Vwpf
p9074
sVteamcity
p9075
g62
sVzend-framework2
p9076
Vphp
p9077
sVp2p
p9078
g820
sVtypeclass
p9079
Vhaskell
p9080
sVios
p9081
g9081
sVuserform
p9082
NsVlogin-control
p9083
Vasp.net
p9084
sVwebservice-client
p9085
g4332
sVdeserialization
p9086
NsVbean-validation
p9087
Vjava
p9088
sVchmod
p9089
Vphp
p9090
sVpackaging
p9091
Vpython
p9092
sVrpc
p9093
Vgwt
p9094
sVcxf
p9095
Vjava
p9096
sVsequences
p9097
Vpython
p9098
sVtable
p9099
g4226
sVgoogle-talk
p9100
g1293
sVqemu
p9101
NsVoffice365
p9102
Vsharepoint
p9103
sVcharts
p9104
g469
sVsemaphore
p9105
g163
sVporting
p9106
Vc++
p9107
sVjlist
p9108
Vjava
p9109
sVresteasy
p9110
Vjava
p9111
sVstring-matching
p9112
g73
sVpartials
p9113
Vruby-on-rails
p9114
sVvimeo
p9115
Vjquery
p9116
sVcursor
p9117
Vandroid
p9118
sVarraylist
p9119
Vjava
p9120
sVargv
p9121
g2360
sVlayer
p9122
Vios
p9123
sVdjango-modelform
p9124
Vdjango
p9125
sVfacebook-page
p9126
NsVavr
p9127
g20
sVdo-while
p9128
Vjava
p9129
sVlinq-to-entities
p9130
NsVstringtokenizer
p9131
Vjava
p9132
sVexchange-server-2010
p9133
NsVavd
p9134
Vandroid
p9135
sVprivileges
p9136
Vmysql
p9137
sVclasspath
p9138
Vjava
p9139
sVenumeration
p9140
NsVmember
p9141
Vc++
p9142
sVunity
p9143
NsVslickgrid
p9144
Vjavascript
p9145
sVautomation
p9146
NsVconnection-pooling
p9147
Vjava
p9148
sVsingle-table-inheritance
p9149
Vruby-on-rails
p9150
sVcoding-style
p9151
Vjava
p9152
sVdynamics-ax-2012
p9153
NsVjpql
p9154
g341
sVsnmp
p9155
NsVkaminari
p9156
Vruby-on-rails
p9157
sVuisegmentedcontrol
p9158
Vios
p9159
sVmfc
p9160
Vc++
p9161
sVtcp
p9162
g9162
sVdata-visualization
p9163
g9163
sVtcl
p9164
NsVjava-ee
p9165
Vjava
p9166
sVunsigned
p9167
g4749
sVwso2esb
p9168
NsVusage
p9169
g1048
sVjython
p9170
Vpython
p9171
sVbox-api
p9172
Vios
p9173
sVusing-statement
p9174
NsVmatlab-deployment
p9175
Vmatlab
p9176
sVjboss-weld
p9177
g8456
sVandroid-camera-intent
p9178
Vandroid
p9179
sVhosts
p9180
Vapache
p9181
sVandroid-listfragment
p9182
Vandroid
p9183
sVmod-rewrite
p9184
NsVsequence
p9185
Voracle
p9186
sVkde
p9187
Vlinux
p9188
sVsettext
p9189
Vandroid
p9190
sVjquery-cycle
p9191
Vjquery
p9192
sVtumblr
p9193
Vhtml
p9194
sVexport
p9195
NsVsuperclass
p9196
Vjava
p9197
sVbuildout
p9198
Vpython
p9199
sVleak
p9200
g1048
sVondraw
p9201
Vandroid
p9202
sVdynamically-generated
p9203
Vjquery
p9204
sVcross-domain
p9205
Vjavascript
p9206
sVfacebook-social-plugins
p9207
NsVphalcon
p9208
Vphp
p9209
sVartifactory
p9210
Vmaven
p9211
sVpyrocms
p9212
g2211
sVsprite-kit
p9213
Vios
p9214
sVstax
p9215
Vjava
p9216
sVdjango-celery
p9217
g5069
sVpaste
p9218
g829
sVslug
p9219
Vphp
p9220
sVshopify
p9221
g2715
sVshipping
p9222
Vmagento
p9223
sVdatagram
p9224
Vjava
p9225
sVashx
p9226
Vasp.net
p9227
sVconstructor
p9228
Vc++
p9229
sVclojure
p9230
g9230
sVowl
p9231
NsVclustered-index
p9232
g228
sVmyeclipse
p9233
Vjava
p9234
sVskydrive
p9235
NsVumbraco
p9236
Vasp.net
p9237
sVweather
p9238
g2715
sVpromise
p9239
g5485
sVregistration
p9240
Vphp
p9241
sVtransfer
p9242
g829
sVfilesize
p9243
Vphp
p9244
sVdatabase-restore
p9245
g228
sVvar
p9246
Vjavascript
p9247
sVlog4net
p9248
NsVcertificate
p9249
Vssl
p9250
sVdjango-admin
p9251
Vdjango
p9252
sVhyper-v
p9253
g9253
sVappdelegate
p9254
Vios
p9255
sVphusion-passenger
p9256
Vruby-on-rails
p9257
sVtaglib
p9258
Vjsp
p9259
sVtomcat
p9260
g9260
sVrecord
p9261
Vaudio
p9262
sVbig-o
p9263
Valgorithm
p9264
sVdjango-templates
p9265
Vdjango
p9266
sVcustomvalidator
p9267
Vasp.net
p9268
sVandroid-preferences
p9269
Vandroid
p9270
sVoffice-2007
p9271
NsVreloaddata
p9272
g4593
sVcss-transition
p9273
g2338
sVboot
p9274
Vandroid
p9275
sVmongodb-php
p9276
Vmongodb
p9277
sVbranch
p9278
Vgit
p9279
sVphp4
p9280
Vphp
p9281
sVriak
p9282
Verlang
p9283
sVmobile-application
p9284
Vandroid
p9285
sVjung
p9286
Vjava
p9287
sVasset-pipeline
p9288
Vruby-on-rails
p9289
sVunix-timestamp
p9290
Vphp
p9291
sVdebian
p9292
g9292
sVsencha-architect
p9293
Vextjs
p9294
sVsass
p9295
g6719
sVjscript
p9296
Vjavascript
p9297
sVpython-idle
p9298
Vpython
p9299
s.