(dp0
Vh.264
p1
NsVscreen-resolution
p2
Vandroid
p3
sVuserscripts
p4
Vjavascript
p5
sVprefix
p6
Vnamespaces
p7
sVtcp-ip
p8
Vsockets
p9
sVdropbox-api
p10
NsVtypeerror
p11
NsVxts
p12
Vr
p13
sVwindows-ce
p14
Vc#
p15
sVcreatejs
p16
NsVopenmpi
p17
Vmpi
p18
sVonsubmit
p19
Vjavascript
p20
sVjquery-callback
p21
NsVfilenotfoundexception
p22
Vjava
p23
sVhttp-authentication
p24
Vauthentication
p25
sVrhomobile
p26
NsVlegacy-code
p27
Vjava
p28
sVrabbitmq
p29
Vamqp
p30
sVlistview
p31
NsVcufon
p32
NsVdynamics-crm
p33
Vdynamics-crm-2011
p34
sVmsysgit
p35
NsVbittorrent
p36
NsVdbcontext
p37
Ventity-framework
p38
sVdevelopment-environment
p39
NsVsolrnet
p40
Vsolr
p41
sVwindow.location
p42
Vjavascript
p43
sVtcpclient
p44
Vc#
p45
sVwidget
p46
Vandroid
p47
sVcustom-adapter
p48
NsVviewcontroller
p49
NsVjasmine
p50
Vjavascript
p51
sVsunspot
p52
Vruby-on-rails
p53
sVfacebook-opengraph
p54
Vfacebook
p55
sVtravis-ci
p56
Vcontinuous-integration
p57
sVcurve-fitting
p58
Vmatlab
p59
sVjquery-ajax
p60
Vjavascript
p61
sVprojection
p62
V3d
p63
sVclassification
p64
NsVcontact-form
p65
Vphp
p66
sVreplace
p67
Vregex
p68
sVsubstr
p69
Vphp
p70
sVunix
p71
NsVsilverlight-5.0
p72
NsValter-table
p73
Vmysql
p74
sVfstream
p75
Vc++
p76
sVdata-warehouse
p77
Vsql
p78
sVmusic
p79
Vandroid
p80
sVdns
p81
Vphp
p82
sVtokenize
p83
Vjava
p84
sVmonomac
p85
Vmono
p86
sVjmx
p87
Vjava
p88
sVjms
p89
NsVkineticjs
p90
Vjavascript
p91
sVjmf
p92
Vjava
p93
sVdatanucleus
p94
Vjdo
p95
sVuiprogressview
p96
Vios
p97
sVspring-jms
p98
NsVdroppable
p99
Vjquery
p100
sVsmtp
p101
NsVcurrency
p102
Vphp
p103
sVfibonacci
p104
NsVsignal-processing
p105
Vaudio
p106
sVabsolute
p107
Vcss
p108
sVmotion
p109
NsVsybase-ase
p110
Vsql
p111
sVgeojson
p112
Vjavascript
p113
sVavfoundation
p114
Vios
p115
sVplayback
p116
Vaudio
p117
sVactionscript
p118
Vflash
p119
sVremote-access
p120
Vc#
p121
sVnhibernate
p122
Vc#
p123
sVwinsock
p124
NsViboutlet
p125
Vios
p126
sVabstraction
p127
Vc#
p128
sVlonglistselector
p129
Vwindows-phone-8
p130
sVsidekiq
p131
Vruby-on-rails
p132
sVdiagram
p133
Vuml
p134
sVplyr
p135
Vr
p136
sViis-7
p137
Vasp.net
p138
sViis-6
p139
Vasp.net
p140
sViis-8
p141
Viis
p142
sVtypes
p143
Vc#
p144
sVfsockopen
p145
Vphp
p146
sVdijit
p147
Vdojo
p148
sVwebfonts
p149
NsValias
p150
Vsql
p151
sVvideo-capture
p152
Vandroid
p153
sVjenkins-plugins
p154
NsVpresentmodalviewcontrolle
p155
Vios
p156
sVjquery-tabs
p157
Vjquery
p158
sVsendgrid
p159
NsVbit-fields
p160
Vc
p161
sVrestriction
p162
Vphp
p163
sVxlib
p164
NsVbootstrapper
p165
NsVhtml-table
p166
Vhtml
p167
sVforce-layout
p168
Vd3.js
p169
sVspring-data-jpa
p170
Vspring
p171
sVconcurrency
p172
Vjava
p173
sVlistactivity
p174
Vandroid
p175
sVuuid
p176
Vjava
p177
sVandroid-ndk
p178
NsVdynamic-language-runtime
p179
NsVhidden
p180
Vjquery
p181
sVautosuggest
p182
Vjquery
p183
sVslicing
p184
Vpython
p185
sVcloud-hosting
p186
Vcloud
p187
sVeffects
p188
Vjquery
p189
sVmpmovieplayer
p190
Viphone
p191
sVinterrupt
p192
Vc
p193
sVmultidimensional
p194
Varrays
p195
sVrepaint
p196
NsVselenium-ide
p197
Vselenium
p198
sVria-services
p199
NsVtimeout
p200
Vphp
p201
sVgoogle-analytics
p202
Vjavascript
p203
sVcss-position
p204
NsVphoto-gallery
p205
NsVazure-storage-tables
p206
Vazure
p207
sVmdi
p208
NsVdjango-authentication
p209
Vdjango
p210
sVfunctional-programming
p211
NsVandroid-manifest
p212
NsVmdx
p213
NsVmongoid
p214
NsVgreatest-n-per-group
p215
NsVoverwrite
p216
Vjava
p217
sVdst
p218
Vtimezone
p219
sVsms
p220
Vandroid
p221
sVsmo
p222
NsVdsl
p223
Vruby
p224
sVsml
p225
Vsmlnj
p226
sVdatacontractserializer
p227
Vc#
p228
sVado.net
p229
Vc#
p230
sVfoundation
p231
Vobjective-c
p232
sVgunicorn
p233
Vdjango
p234
sVpaypal-ipn
p235
Vpaypal
p236
sVmd5
p237
NsVxargs
p238
Vbash
p239
sVvisualvm
p240
Vjava
p241
sVatl
p242
NsVjavafx
p243
Vjava
p244
sVwindows-mobile
p245
Vc#
p246
sVmingw
p247
NsVformview
p248
Vasp.net
p249
sVcustomization
p250
NsVxib
p251
NsVsmartgwt
p252
NsVservice
p253
Vandroid
p254
sVddms
p255
Vandroid
p256
sVtsql
p257
Vsql-server
p258
sVwsdl2java
p259
Vjava
p260
sVsqlcmd
p261
Vsql-server
p262
sVmaster
p263
Vgit
p264
sVwindbg
p265
NsVcdata
p266
Vxml
p267
sVedmx
p268
NsVandroid-drawable
p269
Vandroid
p270
sVtree
p271
Vjava
p272
sVdynamics-crm-4
p273
NsVfile-upload
p274
Vphp
p275
sVhierarchical-data
p276
Vsql
p277
sVtreeview
p278
Vc#
p279
sVnopcommerce
p280
Vasp.net-mvc
p281
sVbuild-automation
p282
NsVdozer
p283
Vjava
p284
sVwebsocket
p285
NsVfilemaker
p286
Vphp
p287
sVincrement
p288
Vjavascript
p289
sVcompareto
p290
NsVblazeds
p291
Vflex
p292
sVoffice-interop
p293
NsVmkmapview
p294
Vios
p295
sVthree.js
p296
Vjavascript
p297
sVtransactions
p298
NsVobject
p299
NsVmetrics
p300
Vjava
p301
sVicloud
p302
Vios
p303
sVvarargs
p304
NsVasp.net-mvc
p305
NsVangular-ui-router
p306
NsVplayframework-1.x
p307
NsVfabricjs
p308
Vjavascript
p309
sVjson-decode
p310
NsVcaml
p311
Vsharepoint
p312
sVlanguage-agnostic
p313
Valgorithm
p314
sViphone-web
p315
Viphone
p316
sVsoundpool
p317
Vandroid
p318
sVhibernate-validator
p319
NsVautoit
p320
Vautomation
p321
sVunmanaged
p322
Vc#
p323
sVgitignore
p324
Vgit
p325
sVlayout
p326
Vandroid
p327
sVmenu
p328
Vcss
p329
sVcriteria-api
p330
Vjpa
p331
sVuser-agent
p332
NsVform-for
p333
Vruby-on-rails
p334
sVqwidget
p335
NsVwebrtc
p336
NsVqgraphicsview
p337
Vqt
p338
sVshortest-path
p339
NsVpass-by-reference
p340
NsVsendmessage
p341
Vc#
p342
sVxmlreader
p343
NsVsymfony-forms
p344
Vsymfony2
p345
sVrelease
p346
NsVrestkit-0.20
p347
Vrestkit
p348
sVjaxb2
p349
NsVresult
p350
Vphp
p351
sVdelphi
p352
Vdelphi-xe2
p353
sVstackoverflowexception
p354
NsVwikipedia
p355
NsVclass-design
p356
Vc#
p357
sVdjango-testing
p358
NsVdata.table
p359
g13
sVspring-integration
p360
NsVirb
p361
Vruby
p362
sVirc
p363
Vpython
p364
sVextend
p365
Vjavascript
p366
sVwcf-security
p367
Vwcf
p368
sVmultipartform-data
p369
NsVjquery-validate
p370
NsVmobile-website
p371
Vmobile
p372
sVconstexpr
p373
Vc++
p374
sVgnu-make
p375
Vmakefile
p376
sVbundling-and-minification
p377
Vasp.net-mvc-4
p378
sVcarbon
p379
Vosx
p380
sVrtti
p381
Vdelphi
p382
sVsd-card
p383
NsVtriggers
p384
NsVdalvik
p385
NsVadapter
p386
Vandroid
p387
sVsyntax-highlighting
p388
NsVlogic
p389
Vphp
p390
sVglobal-variables
p391
Vjavascript
p392
sVlogin
p393
Vphp
p394
sVinnerhtml
p395
NsVgxt
p396
Vgwt
p397
sVduplicate-removal
p398
Vsql
p399
sVkohana
p400
Vphp
p401
sVdiff
p402
NsVbilling
p403
NsVunion
p404
Vsql
p405
sVdicom
p406
Vc#
p407
sVextraction
p408
Vpython
p409
sVdreamweaver
p410
Vhtml
p411
sVpartial-classes
p412
Vc#
p413
sVsencha-touch
p414
Vsencha-touch-2
p415
sVautocompletetextview
p416
NsVhardware-acceleration
p417
Vandroid
p418
sVtelnet
p419
NsVprimitive-types
p420
Vjava
p421
sVlift
p422
Vscala
p423
sVweb-hosting
p424
NsVrobolectric
p425
Vandroid
p426
sVosx-leopard
p427
NsVdatatable
p428
Vc#
p429
sVboost-bind
p430
Vc++
p431
sVdecisiontrees
p432
NsVgeoip
p433
NsVtyposcript
p434
NsVjplayer
p435
Vjquery
p436
sVvisual-studio-2013
p437
NsVvisual-studio-2012
p438
Vc#
p439
sVvisual-studio-2010
p440
Vc#
p441
sVdata-structures
p442
Valgorithm
p443
sVtoolkit
p444
Vwpf
p445
sVplayer
p446
NsVognl
p447
Vstruts2
p448
sVlinechart
p449
Vcharts
p450
sVjquery-live
p451
Vjquery
p452
sVlinq-to-nhibernate
p453
NsVsplit
p454
Vstring
p455
sVmaven-release-plugin
p456
NsVtemplates
p457
NsVvectorization
p458
Vmatlab
p459
sVfilenames
p460
Vphp
p461
sVternary-operator
p462
Vphp
p463
sVwebstorm
p464
Vjavascript
p465
sVgzip
p466
NsVsettimeout
p467
NsVbing-api
p468
Vbing
p469
sVdependency-properties
p470
Vwpf
p471
sVopengl-3
p472
Vopengl
p473
sVgarbage-collection
p474
NsVms-access-2007
p475
Vms-access
p476
sVxmlhttprequest
p477
NsVms-access-2003
p478
Vms-access
p479
sVquartz-scheduler
p480
NsVfortran
p481
Vfortran90
p482
sVcollections
p483
Vjava
p484
sVnssortdescriptor
p485
NsVservicemix
p486
Vapache-camel
p487
sVbnf
p488
Vgrammar
p489
sVeasymock
p490
NsVfind-and-replace
p491
Vregex
p492
sVshadow
p493
Vcss
p494
sVunique
p495
Vmysql
p496
sVcase-sensitive
p497
Vmysql
p498
sVapp-store
p499
Vios
p500
sVmemory-leaks
p501
Vmemory-management
p502
sVui-automation
p503
Vc#
p504
sVfancybox
p505
Vjquery
p506
sVole
p507
NsVonchange
p508
Vjavascript
p509
sVxmlserializer
p510
Vc#
p511
sVfop
p512
Vxsl-fo
p513
sVmonogame
p514
Vc#
p515
sVjavax.imageio
p516
Vjava
p517
sVandroid-studio
p518
NsVsubclass
p519
Vjava
p520
sVuml
p521
Vjava
p522
sVactivemodel
p523
Vruby-on-rails
p524
sVbarcode
p525
Vandroid
p526
sVsubfolder
p527
V.htaccess
p528
sVforeign-keys
p529
Vmysql
p530
sVjoomla
p531
NsVwordpress-plugin
p532
Vwordpress
p533
sVsoa
p534
Vweb-services
p535
sVvlookup
p536
Vexcel
p537
sVmocha
p538
Vnode.js
p539
sVemgu
p540
NsVwrap
p541
Vjquery
p542
sVdirect3d
p543
Vdirectx
p544
sVfabric
p545
Vpython
p546
sVcombinatorics
p547
Valgorithm
p548
sVsupport
p549
Vandroid
p550
sVbootstrap-typeahead
p551
Vtwitter-bootstrap
p552
sVcss-box-shadow
p553
Vcss
p554
sVwidth
p555
Vcss
p556
sVrebol
p557
NsVwordpress
p558
Vphp
p559
sVrcpp
p560
g13
sVpassport
p561
NsVfpga
p562
Vvhdl
p563
sVlatex
p564
g136
sVsql-loader
p565
Voracle
p566
sVpaypal
p567
Vphp
p568
sVnotifications
p569
NsVeclipse-pdt
p570
NsVamazon-simpledb
p571
Vamazon-web-services
p572
sVarrays
p573
Vphp
p574
sVmongomapper
p575
Vmongodb
p576
sVdevices
p577
Vandroid
p578
sVaccess-vba
p579
Vms-access
p580
sVtweepy
p581
Vpython
p582
sVgoogle-maps-markers
p583
Vgoogle-maps
p584
sVpowershell
p585
NsVyoutube-api
p586
Vyoutube
p587
sVpassenger
p588
Vruby-on-rails
p589
sVviewmodel
p590
Vasp.net-mvc
p591
sVtimezone
p592
Vdatetime
p593
sVweb-frameworks
p594
Vpython
p595
sVlogical-operators
p596
Vphp
p597
sVuipickerview
p598
Vios
p599
sVkeyup
p600
Vjquery
p601
sVactor
p602
Vscala
p603
sVpacket-capture
p604
NsVjenkins
p605
Vhudson
p606
sVandroid-calendar
p607
NsVmodels
p608
Vdjango
p609
sVasterisk
p610
NsVyahoo
p611
Vphp
p612
sVobjectify
p613
Vgoogle-app-engine
p614
sVrhino-mocks
p615
NsVtablecellrenderer
p616
Vswing
p617
sVsetinterval
p618
Vjavascript
p619
sVcontacts
p620
NsVtime
p621
NsVpush
p622
NsVcodeblocks
p623
Vc++
p624
sVkendo-mobile
p625
Vkendo-ui
p626
sVosx
p627
Vcocoa
p628
sVjtextarea
p629
Vjava
p630
sVswitch-statement
p631
Vjava
p632
sVsolver
p633
Vexcel
p634
sVtablerow
p635
Vandroid
p636
sVmultiprocessing
p637
Vpython
p638
sVzebra-printers
p639
Vprinting
p640
sVedittext
p641
NsVvisual-studio-extensions
p642
NsVprediction
p643
NsVsign
p644
Vandroid
p645
sVrestkit
p646
NsVrspec2
p647
Vruby-on-rails
p648
sVdjango-queryset
p649
Vdjango
p650
sVwindows-installer
p651
NsVgoogle-plus-one
p652
Vgoogle-plus
p653
sVbadge
p654
NsVopencart
p655
NsVmergesort
p656
Valgorithm
p657
sVwindows-8
p658
Vc#
p659
sVwindows-7
p660
Vc#
p661
sVvb.net
p662
NsVqueue
p663
Vjava
p664
sVobjective-c-2.0
p665
Vobjective-c
p666
sVbreadcrumbs
p667
Vphp
p668
sVipc
p669
g193
sVipa
p670
NsVandroid-widget
p671
Vandroid
p672
sVjeditable
p673
Vjquery
p674
sVcode-access-security
p675
V.net
p676
sVbookmarks
p677
Vjavascript
p678
sVintellij-idea
p679
Vjava
p680
sVcallstack
p681
Vc++
p682
sVwicket
p683
Vjava
p684
sVhttpwebrequest
p685
Vc#
p686
sVscope
p687
Vjavascript
p688
sVcommonsware
p689
Vandroid
p690
sVstarling-framework
p691
Vactionscript-3
p692
sVlowercase
p693
Vuppercase
p694
sVassociative-array
p695
Vphp
p696
sVtitanium
p697
Vandroid
p698
sVentity-framework-4.3
p699
Ventity-framework
p700
sVentity-framework-4.1
p701
Ventity-framework
p702
sVninject
p703
NsVprinting
p704
NsVtext-mining
p705
g136
sVuse-case
p706
Vuml
p707
sVprogressdialog
p708
Vandroid
p709
sVslidingmenu
p710
NsVandroid-sensors
p711
Vandroid
p712
sVuiimagepickercontroller
p713
Vios
p714
sVmonitoring
p715
Vjava
p716
sVthreadpool
p717
Vmultithreading
p718
sVsavon
p719
Vruby
p720
sVfps
p721
Vandroid
p722
sVload-data-infile
p723
Vmysql
p724
sVxhtml
p725
Vhtml
p726
sVuser-permissions
p727
Vpermissions
p728
sVexplorer
p729
NsVblobstore
p730
NsVioctl
p731
Vlinux
p732
sVdate
p733
Vphp
p734
sVactionmailer
p735
Vruby-on-rails
p736
sVdata
p737
Vphp
p738
sVgoogle-apps
p739
Vgoogle-apps-script
p740
sVcfml
p741
Vcoldfusion
p742
sVhtml-lists
p743
NsVstdio
p744
g193
sVstdin
p745
g193
sVprototypal-inheritance
p746
Vjavascript
p747
sVsandbox
p748
Vosx
p749
sVsh
p750
Vbash
p751
sVlong-integer
p752
Vjava
p753
sVtty
p754
NsVjquery-dialog
p755
Vjquery
p756
sVwebpage
p757
Vhtml
p758
sVcloudbees
p759
NsVpower-management
p760
Vandroid
p761
sVproguard
p762
Vandroid
p763
sVaccordion
p764
NsVasp.net-membership
p765
NsVmethodology
p766
Vagile
p767
sVjit
p768
Vc#
p769
sVcache-control
p770
NsVchaining
p771
Vjquery
p772
sVstringbuilder
p773
NsVrecords
p774
Vmysql
p775
sVmacvim
p776
NsVlwuit
p777
Vjava-me
p778
sVdate-format
p779
Vjava
p780
sVretrieve
p781
Vphp
p782
sVc++
p783
g161
sVcanvas
p784
Vjavascript
p785
sVrounding
p786
Vc#
p787
sVmahout
p788
NsVinternet
p789
Vandroid
p790
sVformula
p791
NsVlink-to
p792
Vruby-on-rails
p793
sVhibernate
p794
Vjava
p795
sVmime
p796
Vemail
p797
sVpostsharp
p798
NsVcss-border-radius
p799
Vcss
p800
sVbootloader
p801
Vassembly
p802
sVuser-input
p803
NsVocaml
p804
Vfunctional-programming
p805
sVseparator
p806
NsVroutes
p807
NsVrouter
p808
NsVsaving
p809
Vandroid
p810
sVvideo.js
p811
Vjavascript
p812
sVnested
p813
Vpython
p814
sVitextsharp
p815
NsVopen
p816
Vfile
p817
sVuniqueidentifier
p818
Vsql-server
p819
sVnaudio
p820
NsVflask-sqlalchemy
p821
NsVfms
p822
Vflash
p823
sVparams
p824
Vruby-on-rails
p825
sVconstants
p826
Vphp
p827
sVbits
p828
g193
sVprogress-bar
p829
Vandroid
p830
sVaddeventlistener
p831
Vjavascript
p832
sVcrash-reports
p833
Vios
p834
sVpadding
p835
Vcss
p836
sVuiwindow
p837
Vios
p838
sVplsqldeveloper
p839
NsVflashdevelop
p840
NsVtypography
p841
Vcss
p842
sVlucene
p843
Vsolr
p844
sVfuture
p845
Vscala
p846
sVlinux-kernel
p847
NsVsax
p848
NsVc++0x
p849
Vc++
p850
sVsap
p851
NsVfacebook-graph-api
p852
Vfacebook
p853
sVsilverlight-4.0
p854
NsVuipopovercontroller
p855
NsVbackbone-views
p856
Vbackbone.js
p857
sVtcpdf
p858
NsVzoo
p859
g136
sVbackwards-compatibility
p860
Vandroid
p861
sVabsolute-path
p862
Vrelative-path
p863
sVdestroy
p864
NsVlocal-variables
p865
Vjava
p866
sVbcrypt
p867
Vphp
p868
sVbuffer
p869
g161
sVpager
p870
NsVgoogle-places-api
p871
Vgoogle-maps
p872
sVtextarea
p873
Vjavascript
p874
sVc++-cx
p875
Vwindows-runtime
p876
sVaverage
p877
Vsql
p878
sVdrive
p879
Vwindows
p880
sVtestcase
p881
NsVactionscript-2
p882
Vflash
p883
sVsalt
p884
NsVhmac
p885
Vjava
p886
sVwindow-resize
p887
Vjquery
p888
sVlotus
p889
Vlotus-notes
p890
sVsynchronous
p891
Vasynchronous
p892
sVdatetime
p893
NsVprogramming-languages
p894
Vjava
p895
sVbytebuffer
p896
NsVxml
p897
Vc#
p898
sVpython-3.2
p899
Vpython
p900
sVandroid-sdk-2.2
p901
NsVandroid-sdk-2.3
p902
NsVstreet-address
p903
Vgoogle-maps
p904
sVuiswitch
p905
NsVappharbor
p906
Vc#
p907
sVrounded-corners
p908
Vcss
p909
sVuitextview
p910
Vios
p911
sVzipfile
p912
Vpython
p913
sVandroid-styles
p914
Vandroid
p915
sVinfowindow
p916
Vgoogle-maps
p917
sVandroid-layout
p918
NsVsettings
p919
NsVissue-tracking
p920
Vbug-tracking
p921
sVtika
p922
Vjava
p923
sVwhere
p924
NsVinstallshield
p925
NsVdatatables
p926
Vjquery
p927
sVsocket.io
p928
Vnode.js
p929
sVjavabeans
p930
NsVserver-side
p931
NsVowin
p932
NsVsmooth-scrolling
p933
Vjquery
p934
sVjobs
p935
NsVconditional-statements
p936
Vphp
p937
sVscreen
p938
Vandroid
p939
sVserialization
p940
Vc#
p941
sVspark
p942
NsVkendo-asp.net-mvc
p943
Vkendo-ui
p944
sVrichfaces
p945
Vjsf
p946
sVexchange-server
p947
Vc#
p948
sVwindows-applications
p949
Vc#
p950
sVinfopath2010
p951
Vsharepoint-2010
p952
sVbufferedreader
p953
NsVmkannotationview
p954
Vios
p955
sVmodal-dialog
p956
NsVnsarraycontroller
p957
Vcocoa
p958
sVexpression
p959
Vc#
p960
sVselenium-webdriver
p961
NsVworkflow-foundation-4
p962
Vworkflow-foundation
p963
sVurl-scheme
p964
NsVsystem-verilog
p965
Vverilog
p966
sVsearch-engine
p967
Vsearch
p968
sVspring-data
p969
Vspring
p970
sVtwig
p971
Vsymfony2
p972
sVmessagebox
p973
Vc#
p974
sVaccelerometer
p975
Vandroid
p976
sVstretch
p977
NsVprototype
p978
Vjavascript
p979
sVgrid-layout
p980
Vjava
p981
sVlibgdx
p982
Vjava
p983
sVgrayscale
p984
NsVantivirus
p985
Vc#
p986
sVphotos
p987
Vfacebook
p988
sVhashtag
p989
Vjquery
p990
sVvariable-assignment
p991
Vc++
p992
sVbonjour
p993
Vios
p994
sVblowfish
p995
Vencryption
p996
sVroleprovider
p997
Vasp.net
p998
sValarmmanager
p999
Vandroid
p1000
sVparse.com
p1001
Vios
p1002
sVgoogle-closure
p1003
Vjavascript
p1004
sVlayout-inflater
p1005
NsVoledb
p1006
NsVblas
p1007
NsVzend-studio
p1008
Vphp
p1009
sVconcatenation
p1010
Vstring
p1011
sVcoordinate-systems
p1012
NsVcobol
p1013
Vmainframe
p1014
sVabstract-syntax-tree
p1015
NsVascii
p1016
Vpython
p1017
sVivy
p1018
Vant
p1019
sVsmalltalk
p1020
NsVbinary
p1021
NsVurl-encoding
p1022
Vurl
p1023
sVhostname
p1024
Vjava
p1025
sVcreateprocess
p1026
NsVsubdomain
p1027
NsVparcelable
p1028
NsVrfid
p1029
Vnfc
p1030
sVallocation
p1031
Vmemory
p1032
sVopenldap
p1033
Vldap
p1034
sVvirtual-machine
p1035
NsVextern
p1036
NsVwpf
p1037
Vc#
p1038
sVlive-streaming
p1039
NsVtracking
p1040
Vgoogle-analytics
p1041
sVundefined
p1042
Vjavascript
p1043
sVdata-modeling
p1044
Vdatabase-design
p1045
sVworklight
p1046
NsVdimension
p1047
Vssas
p1048
sVresx
p1049
NsVnosql
p1050
Vmongodb
p1051
sVrest
p1052
NsVsitecore6
p1053
Vsitecore
p1054
sVgdb
p1055
NsVjshint
p1056
NsVgdi
p1057
NsVgreasemonkey
p1058
Vjavascript
p1059
sVgenerator
p1060
Vpython
p1061
sVruby-on-rails
p1062
Vruby
p1063
sVdjango-nonrel
p1064
Vdjango
p1065
sVd3.js
p1066
Vjavascript
p1067
sVadsense
p1068
NsVstopwatch
p1069
Vc#
p1070
sVsprockets
p1071
NsVbitmapdata
p1072
NsVrubygems
p1073
Vruby
p1074
sVlibc
p1075
NsVdart
p1076
NsVgestures
p1077
Vandroid
p1078
sVtraffic
p1079
Vandroid
p1080
sVpreference
p1081
Vandroid
p1082
sVenums
p1083
Vjava
p1084
sVaspectj
p1085
NsVparent-child
p1086
NsVintel
p1087
NsVstdmap
p1088
NsVjquery-ui-dialog
p1089
NsVgrouping
p1090
Vsql
p1091
sVruntimeexception
p1092
NsVconditional
p1093
NsVregex-negation
p1094
Vregex
p1095
sVshadowbox
p1096
NsVprivate-members
p1097
NsVdimensions
p1098
Vandroid
p1099
sVexif
p1100
NsVregular-language
p1101
NsVstring-literals
p1102
NsVmanaged-c++
p1103
Vc++
p1104
sVexit
p1105
NsVddl
p1106
NsVarrow
p1107
Vcss
p1108
sVruby-2.0
p1109
NsVqtip2
p1110
Vjquery
p1111
sVisset
p1112
Vphp
p1113
sVpackage
p1114
NsVacl
p1115
Vphp
p1116
sVacs
p1117
Vazure
p1118
sVpermalinks
p1119
NsVautotools
p1120
NsVcontent-type
p1121
NsVrelativelayout
p1122
Vandroid
p1123
sVimage
p1124
Vphp
p1125
sVstringstream
p1126
Vc++
p1127
sVpivot
p1128
Vsql
p1129
sVsencha-touch-2.1
p1130
NsVmdm
p1131
NsVhex
p1132
NsVemacs
p1133
NsVuiwebview
p1134
NsVseries
p1135
Vcharts
p1136
sVspider
p1137
NsVlazy-evaluation
p1138
NsVandroid-asynctask
p1139
Vandroid
p1140
sVtaskbar
p1141
Vc#
p1142
sVuiimage
p1143
Vios
p1144
sVutf-16
p1145
NsVopenxml
p1146
Vc#
p1147
sVviewport
p1148
NsVpull
p1149
Vgit
p1150
sVwindows-phone-7.1
p1151
NsVcastle-activerecord
p1152
Vnhibernate
p1153
sVviewpagerindicator
p1154
Vandroid
p1155
sVgraph-theory
p1156
Valgorithm
p1157
sVviewdidload
p1158
NsVdelphi-7
p1159
NsVdelphi-5
p1160
NsVmigrate
p1161
NsVvirtualhost
p1162
Vapache
p1163
sVnagios
p1164
Vmonitoring
p1165
sVcryptoapi
p1166
Vcryptography
p1167
sVobjective-c
p1168
NsVquickbooks
p1169
NsVajaxcontroltoolkit
p1170
NsVsimple-html-dom
p1171
Vphp
p1172
sVspatial
p1173
g13
sVnomethoderror
p1174
Vruby-on-rails
p1175
sVopenid
p1176
NsVrichtextbox
p1177
NsVautoresize
p1178
Vios
p1179
sVrpy2
p1180
Vpython
p1181
sVwxwidgets
p1182
NsVmasm
p1183
NsVmask
p1184
NsVraphael
p1185
Vjavascript
p1186
sVcpu
p1187
Vperformance
p1188
sVstrtotime
p1189
Vphp
p1190
sVscp
p1191
Vssh
p1192
sVmessage-driven-bean
p1193
Vjms
p1194
sVdatabase-backups
p1195
Vmysql
p1196
sVwindows-mobile-6.5
p1197
NsVtk
p1198
NsVsympy
p1199
Vpython
p1200
sVbasic-authentication
p1201
Vauthentication
p1202
sVjava-me
p1203
NsVcheckin
p1204
Vfacebook
p1205
sVresults
p1206
Vphp
p1207
sVgfortran
p1208
Vfortran
p1209
sVcondition
p1210
Vif-statement
p1211
sViphone-4
p1212
NsViphone-5
p1213
NsVt4
p1214
Vc#
p1215
sVmicrosoft-sync-framework
p1216
Vc#
p1217
sVtoggle
p1218
Vjquery
p1219
sVsails.js
p1220
NsVpostmessage
p1221
Vjavascript
p1222
sVgridview
p1223
Vasp.net
p1224
sVbuild-process
p1225
NsVsync
p1226
NsVqml
p1227
NsVomniauth
p1228
Vruby-on-rails
p1229
sVschema.org
p1230
NsVlinear
p1231
NsVxor
p1232
Vencryption
p1233
sVclock
p1234
Vtime
p1235
sVinline-assembly
p1236
NsVhomescreen
p1237
NsVescaping
p1238
NsVobjectcontext
p1239
Ventity-framework
p1240
sVorg-mode
p1241
NsVsql-insert
p1242
Vsql
p1243
sVlegend
p1244
NsVsubview
p1245
Viphone
p1246
sVemulator
p1247
NsVsocial
p1248
Vfacebook
p1249
sVaction
p1250
Vjava
p1251
sVtesseract
p1252
NsVopenfire
p1253
NsVtmux
p1254
NsVvim
p1255
NsVselect
p1256
Vmysql
p1257
sVesri
p1258
NsVoracle-apex
p1259
NsVexecutable
p1260
Vjava
p1261
sVfoxpro
p1262
NsVpreloader
p1263
NsVplayframework-2.0
p1264
Vplayframework
p1265
sVplayframework-2.1
p1266
Vplayframework
p1267
sVplayframework-2.2
p1268
Vplayframework
p1269
sVrhel
p1270
NsVtestunit
p1271
NsVasyncsocket
p1272
Vsockets
p1273
sVgsm
p1274
NsVbxslider
p1275
Vjquery
p1276
sVappdomain
p1277
NsVwebkit
p1278
NsVfancybox-2
p1279
Vjquery
p1280
sVendpoint
p1281
NsVsql-azure
p1282
Vazure
p1283
sVautocomplete
p1284
Vjquery
p1285
sVazure-web-roles
p1286
Vazure
p1287
sVuiactivityviewcontroller
p1288
NsVprompt
p1289
NsVscan
p1290
Vjava
p1291
sVthread-sleep
p1292
Vjava
p1293
sVvisual-studio-debugging
p1294
Vdebugging
p1295
sVcllocationmanager
p1296
Vios
p1297
sVtapestry
p1298
Vjava
p1299
sVaxis
p1300
Vjava
p1301
sVgit-commit
p1302
NsVaxis2
p1303
NsVmachine-learning
p1304
NsVresultset
p1305
NsVmapping
p1306
Vjava
p1307
sVxilinx
p1308
NsVbioinformatics
p1309
Vpython
p1310
sVfreepascal
p1311
NsVlifecycle
p1312
NsVargparse
p1313
NsVappcelerator-mobile
p1314
Vtitanium
p1315
sVgithub
p1316
NsVparameterized
p1317
NsVdjango
p1318
NsVnvidia
p1319
NsVcheckbox
p1320
Vjquery
p1321
sVinstaller
p1322
NsVstreamwriter
p1323
Vc#
p1324
sVexit-code
p1325
Vbash
p1326
sVstackpanel
p1327
NsVdynamic-linq
p1328
NsVinternet-explorer
p1329
NsVbuffering
p1330
Vphp
p1331
sVassemblies
p1332
NsVgitlab
p1333
Vgit
p1334
sVhotkeys
p1335
NsVgradle
p1336
NsVasp.net-2.0
p1337
Vasp.net
p1338
sVwindows-phone
p1339
NsVgpu-programming
p1340
Vcuda
p1341
sVselectbox
p1342
NsVbluej
p1343
NsVoperator-precedence
p1344
NsVwindows-server
p1345
Viis
p1346
sVqr-code
p1347
Vandroid
p1348
sVreduce
p1349
NsVcrontab
p1350
Vcron
p1351
sVexpandablelistview
p1352
Vandroid
p1353
sVcontent-management-system
p1354
NsVpyinstaller
p1355
Vpython
p1356
sVdistributed-transactions
p1357
NsVscribe
p1358
NsVftp
p1359
NsVresearch
p1360
Valgorithm
p1361
sVoffline
p1362
Vhtml5
p1363
sVinitialization
p1364
NsVautofac
p1365
Vc#
p1366
sVintrinsics
p1367
NsVlocalization
p1368
Vc#
p1369
sVproxy
p1370
Vjava
p1371
sVandroid-library
p1372
Vandroid
p1373
sVdefinition
p1374
Vc++
p1375
sVwolfram-mathematica
p1376
Vplot
p1377
sVdjango-forms
p1378
NsVpositioning
p1379
Vcss
p1380
sVcastle
p1381
NsVweb-standards
p1382
Vhtml
p1383
sVoperator-overloading
p1384
NsVnewtonsoft
p1385
Vc#
p1386
sVjet
p1387
NsVfaceted-search
p1388
Vsolr
p1389
sVswipe
p1390
Vandroid
p1391
sVsublimetext2
p1392
NsVsublimetext3
p1393
NsVsilverstripe
p1394
NsVrelationship
p1395
Vruby-on-rails
p1396
sVexpression-trees
p1397
Vc#
p1398
sVfilesystems
p1399
Vlinux
p1400
sVhtml-select
p1401
NsVserializable
p1402
NsVtortoisehg
p1403
Vmercurial
p1404
sVphpmailer
p1405
Vphp
p1406
sVaac
p1407
NsVinput-validation
p1408
Vjquery
p1409
sVbho
p1410
Vinternet-explorer
p1411
sVflexigrid
p1412
Vjquery
p1413
sVmootools
p1414
Vjavascript
p1415
sVwysiwyg
p1416
NsVnsurl
p1417
Vios
p1418
sVform-submit
p1419
NsVpyserial
p1420
NsVcollapse
p1421
Vjquery
p1422
sVdrop-down-menu
p1423
Vjquery
p1424
sVpy2exe
p1425
NsVself
p1426
Vpython
p1427
sVdynamics-crm-online
p1428
NsVinternal
p1429
NsVvmware
p1430
NsValsa
p1431
Vlinux
p1432
sVx++
p1433
Vaxapta
p1434
sVsts-springsourcetoolsuite
p1435
Veclipse
p1436
sVconditional-formatting
p1437
NsVexe
p1438
Vc#
p1439
sVphonegap
p1440
NsVgsoap
p1441
Vc++
p1442
sVmicrosoft
p1443
NsVwsgi
p1444
Vpython
p1445
sVxcode
p1446
NsVbinary-tree
p1447
Valgorithm
p1448
sVsql-server-2005
p1449
Vsql
p1450
sVsession
p1451
Vphp
p1452
sVftp-client
p1453
NsVresourcedictionary
p1454
NsVhornetq
p1455
Vjms
p1456
sVblender
p1457
Vpython
p1458
sVdrupal-modules
p1459
NsVkeychain
p1460
NsVin-app-purchase
p1461
Vios
p1462
sVfileapi
p1463
NsVhtml-email
p1464
NsVscala-collections
p1465
Vscala
p1466
sVneon
p1467
NsVsynchronization
p1468
Vjava
p1469
sV.each
p1470
Vjquery
p1471
sVflexbuilder
p1472
NsVhorizontal-scrolling
p1473
NsVbitmap
p1474
NsVbanner
p1475
NsVxml-parsing
p1476
NsV3g
p1477
NsVrake-task
p1478
Vruby-on-rails
p1479
sVcrc
p1480
Vchecksum
p1481
sVgraph-databases
p1482
Vneo4j
p1483
sVmagicalrecord
p1484
NsV3d
p1485
NsVcrm
p1486
NsVset
p1487
NsViteration
p1488
Vpython
p1489
sVjade
p1490
NsVstartup
p1491
Vc#
p1492
sVipod-touch
p1493
NsVsed
p1494
NsVfileoutputstream
p1495
Vjava
p1496
sVseo
p1497
NsVcontour
p1498
NsVproject
p1499
Veclipse
p1500
sVprotobuf-net
p1501
Vc#
p1502
sVmovie
p1503
NsVitunesconnect
p1504
NsVliquibase
p1505
NsVmutex
p1506
Vmultithreading
p1507
sVscreen-orientation
p1508
NsVimagemagick
p1509
NsVxslt
p1510
NsVjapplet
p1511
Vjava
p1512
sVselectlist
p1513
Vasp.net-mvc
p1514
sVjavascript
p1515
NsVintegration-testing
p1516
NsVinterface
p1517
NsVhyperlink
p1518
Vhtml
p1519
sVglkit
p1520
Vios
p1521
sVfacebox
p1522
Vjquery
p1523
sVpdo
p1524
NsVlapack
p1525
Vblas
p1526
sVconnection
p1527
Vjava
p1528
sVpdf
p1529
NsVksoap2
p1530
Vandroid
p1531
sVload
p1532
NsVgeolocation
p1533
Vandroid
p1534
sVmarkdown
p1535
NsVdatediff
p1536
Vsql
p1537
sVweb-config
p1538
Vasp.net
p1539
sVdata-migration
p1540
Vsql-server
p1541
sVcompass-geolocation
p1542
NsVpublishing
p1543
NsVextension-methods
p1544
Vc#
p1545
sVbreadth-first-search
p1546
Valgorithm
p1547
sVangular-ui
p1548
NsVandroid-cursoradapter
p1549
NsVsystem.io
p1550
Vc#
p1551
sVkerberos
p1552
Vjava
p1553
sVmultidimensional-array
p1554
Varrays
p1555
sVoverloading
p1556
NsVqtableview
p1557
NsVfunc
p1558
Vc#
p1559
sVhandling
p1560
NsVoptimization
p1561
NsVandroid-browser
p1562
NsVdrawable
p1563
Vandroid
p1564
sVexpander
p1565
Vwpf
p1566
sVnivoslider
p1567
Vjquery
p1568
sVcalculator
p1569
NsVcode-coverage
p1570
Vunit-testing
p1571
sVbinding
p1572
Vwpf
p1573
sVforeign-key-relationship
p1574
NsVbiztalk-2010
p1575
NsVonitemclicklistener
p1576
NsVvaadin
p1577
Vjava
p1578
sVkeystore
p1579
Vjava
p1580
sVx64
p1581
Vc++
p1582
sVangular-ui-bootstrap
p1583
NsVmatlab-figure
p1584
Vmatlab
p1585
sVuniversal-image-loader
p1586
Vandroid
p1587
sVuiactivityindicatorview
p1588
NsValert
p1589
NsVcucumber
p1590
Vruby-on-rails
p1591
sVamf
p1592
Vflex
p1593
sVpassword-encryption
p1594
Vphp
p1595
sVstack
p1596
NsVdecompiler
p1597
NsVng-grid
p1598
Vangularjs
p1599
sVgoogletest
p1600
Vc++
p1601
sVgoogle-webmaster-tools
p1602
NsVuser-defined-functions
p1603
NsVmysql
p1604
Vphp
p1605
sVspring-transactions
p1606
NsVconditional-compilation
p1607
NsVsetup-project
p1608
NsVsidebar
p1609
NsVindexof
p1610
Vjavascript
p1611
sVsignals
p1612
NsVsignalr
p1613
NsVlocation
p1614
Vandroid
p1615
sVfacebook-wall
p1616
Vfacebook
p1617
sVinput
p1618
NsVgame-physics
p1619
Vphysics
p1620
sVxml-rpc
p1621
Vphp
p1622
sVformat
p1623
NsVheader-files
p1624
Vc++
p1625
sVaugmented-reality
p1626
NsVtire
p1627
NsVenumerable
p1628
NsVprojects
p1629
NsVjava-3d
p1630
NsVsorting
p1631
NsVd
p1632
NsVmarquee
p1633
Vhtml
p1634
sVscapy
p1635
NsVimagick
p1636
Vphp
p1637
sVwindows-store-apps
p1638
Vc#
p1639
sVclipping
p1640
NsVmethods
p1641
Vjava
p1642
sVspring
p1643
NsVwxpython
p1644
NsVvirtualenv
p1645
NsVnetbeans-platform
p1646
Vjava
p1647
sVlayout-manager
p1648
NsVrails-postgresql
p1649
Vruby-on-rails
p1650
sVtelerik
p1651
NsVteradata
p1652
Vsql
p1653
sVandroid-maps-v2
p1654
NsVmethod-overloading
p1655
NsVgoogle-mirror-api
p1656
NsVwget
p1657
NsVb-tree
p1658
Vdata-structures
p1659
sVrelational-database
p1660
Vdatabase
p1661
sVanti-patterns
p1662
NsVasmack
p1663
NsVjasperserver
p1664
Vjasper-reports
p1665
sVandroid-gradle
p1666
NsVmedia-player
p1667
NsVembedded-jetty
p1668
NsVpcre
p1669
NsVspan
p1670
Vhtml
p1671
sVspam
p1672
Vemail
p1673
sVjax-rs
p1674
Vjava
p1675
sVsubmit
p1676
NsVbios
p1677
Vassembly
p1678
sVfile-rename
p1679
Vphp
p1680
sVodp.net
p1681
NsVeventkit
p1682
NsVxpath
p1683
NsVlint
p1684
Vandroid
p1685
sVlinq
p1686
NsVdata-storage
p1687
Vandroid
p1688
sVatom
p1689
NsVline
p1690
Vjava
p1691
sVcin
p1692
NsVcil
p1693
NsVfile-sharing
p1694
NsVverification
p1695
NsVvisualsvn-server
p1696
Vsvn
p1697
sVpropertygrid
p1698
Vc#
p1699
sVpgadmin
p1700
NsVunsafe
p1701
Vc#
p1702
sVchar
p1703
g161
sVduration
p1704
Vtime
p1705
sVchat
p1706
Vphp
p1707
sVparsec
p1708
NsVamqp
p1709
Vrabbitmq
p1710
sVgnuplot
p1711
NsVscrape
p1712
NsVscrapy
p1713
NsVcodec
p1714
Vvideo
p1715
sVactiveresource
p1716
NsVrevision
p1717
Vsvn
p1718
sVelements
p1719
NsVmemory-mapped-files
p1720
Vc#
p1721
sVscrum
p1722
NsVslice
p1723
NsVlinq-to-sql
p1724
NsVwindows-phone-7.5
p1725
NsValgorithm
p1726
Vjava
p1727
sVoracle
p1728
NsVselenium-rc
p1729
NsVhaving
p1730
NsVpartial
p1731
NsVhashmap
p1732
Vjava
p1733
sVkernel-programming
p1734
NsVejb-3.1
p1735
Vjava
p1736
sVgoogle-drive
p1737
Vgoogle-drive-sdk
p1738
sVclean-urls
p1739
NsVcython
p1740
Vpython
p1741
sVsend
p1742
Vemail
p1743
sVjavascript-library
p1744
NsVmulticore
p1745
NsVlistviewitem
p1746
NsVgetline
p1747
Vc++
p1748
sVresources
p1749
Vandroid
p1750
sVunzip
p1751
Vzip
p1752
sVmixins
p1753
NsVpagination
p1754
Vphp
p1755
sVspring.net
p1756
NsVgtk3
p1757
NsVgtk+
p1758
NsVnuget-package
p1759
NsVcategories
p1760
Vwordpress
p1761
sVgtk#
p1762
NsVentitymanager
p1763
NsVcontenteditable
p1764
NsViscroll
p1765
Vjquery
p1766
sVrack
p1767
NsVbiztalk
p1768
Vbiztalk-2010
p1769
sVasp-classic
p1770
Vvbscript
p1771
sVsingle-page-application
p1772
Vjavascript
p1773
sVvideo
p1774
Vandroid
p1775
sVicalendar
p1776
Vphp
p1777
sVsql-server-2008
p1778
NsVindex
p1779
NsVhtml-helper
p1780
NsVgit-clone
p1781
Vgit
p1782
sVdirective
p1783
NsVsql-server-2000
p1784
NsVmultimedia
p1785
Vandroid
p1786
sVbirt
p1787
Vjava
p1788
sVbox2d
p1789
Vcocos2d-iphone
p1790
sVheatmap
p1791
NsVremote-debugging
p1792
NsVslidingdrawer
p1793
NsVsoftware-distribution
p1794
NsVwireshark
p1795
NsVwinapi
p1796
NsVoctave
p1797
NsVubuntu
p1798
NsVlex
p1799
Vyacc
p1800
sVopenmp
p1801
Vc++
p1802
sVsunspot-rails
p1803
Vsunspot
p1804
sVrdp
p1805
NsVreceive
p1806
NsVdate-range
p1807
NsVgetter-setter
p1808
Vjava
p1809
sVwcf-ria-services
p1810
NsVvoice-recognition
p1811
NsVrdf
p1812
NsVsurvey
p1813
Vphp
p1814
sVderby
p1815
Vjava
p1816
sVentity-relationship
p1817
NsVkeylistener
p1818
NsVjava-io
p1819
Vjava
p1820
sVangularjs-scope
p1821
NsVfirefox
p1822
NsVvhosts
p1823
NsVinstantiation
p1824
Vjava
p1825
sVbazaar
p1826
Vversion-control
p1827
sVzip
p1828
NsVgoogle-app-engine
p1829
NsVphysics
p1830
Vmath
p1831
sVnext
p1832
Vjquery
p1833
sVcss-sprites
p1834
NsVlcdui
p1835
Vjava-me
p1836
sVslim
p1837
NsVviewgroup
p1838
Vandroid
p1839
sVbezier-curve
p1840
Vbezier
p1841
sVscheduled-tasks
p1842
NsVjob-scheduling
p1843
Vjava
p1844
sVportability
p1845
NsVthis
p1846
NsVtwitter-oauth
p1847
Vtwitter
p1848
sVthin
p1849
NsVworksheet
p1850
NsVactiveadmin
p1851
Vruby-on-rails
p1852
sVbusiness-objects
p1853
Vc#
p1854
sVrefinerycms
p1855
NsVnative-code
p1856
Vandroid
p1857
sVprocess
p1858
Vc#
p1859
sVfile-descriptor
p1860
g161
sVjavadoc
p1861
NsVfprintf
p1862
NsVimage-scaling
p1863
Vimage
p1864
sVmalware
p1865
Vphp
p1866
sVkey-value-observing
p1867
Vobjective-c
p1868
sVfacebook-sdk-3.0
p1869
NsVnvd3.js
p1870
Vd3.js
p1871
sVdelay
p1872
NsVclient-side-validation
p1873
NsVnpm
p1874
Vnode.js
p1875
sVsession-cookies
p1876
Vcookies
p1877
sVtcsh
p1878
Vshell
p1879
sVurl-rewriting
p1880
NsVwallpaper
p1881
NsVqtwebkit
p1882
NsVout-of-memory
p1883
Vandroid
p1884
sVcounter
p1885
NsVelement
p1886
Vjquery
p1887
sVnancy
p1888
Vc#
p1889
sVosgi
p1890
Vjava
p1891
sVface-recognition
p1892
NsVjqgrid-asp.net
p1893
NsVmove
p1894
NsVjoptionpane
p1895
Vjava
p1896
sVcomma
p1897
Vphp
p1898
sVfacebook-c#-sdk
p1899
NsVofstream
p1900
Vc++
p1901
sVdirectx
p1902
Vc++
p1903
sVdispose
p1904
NsVgoogle-charts-api
p1905
Vjavascript
p1906
sVinstruments
p1907
Vios
p1908
sVhttpcontext
p1909
NsVdata-type-conversion
p1910
NsVdocx
p1911
NsVpython
p1912
Vdjango
p1913
sVsystem.reactive
p1914
Vc#
p1915
sVdock
p1916
Vosx
p1917
sVrotation
p1918
NsVtransparent
p1919
NsVpostgresql-9.1
p1920
Vpostgresql
p1921
sVpostgresql-9.2
p1922
NsVeventtrigger
p1923
NsVruby-1.9
p1924
Vruby
p1925
sVmerge
p1926
Vgit
p1927
sVoncreate
p1928
Vandroid
p1929
sVcomplexity-theory
p1930
NsVsubset
p1931
g13
sVapp-config
p1932
NsVmeta
p1933
NsVstatic
p1934
NsVcpanel
p1935
NsVknockout-2.0
p1936
Vknockout.js
p1937
sVbpel
p1938
NsVxmldocument
p1939
NsVankhsvn
p1940
Vsvn
p1941
sVmatrix
p1942
Vmatlab
p1943
sVkohana-3
p1944
NsVandroid-gcm
p1945
Vandroid
p1946
sVspecifications
p1947
NsVunderscore.js
p1948
NsVcore-bluetooth
p1949
NsVdhcp
p1950
NsVsendmail
p1951
NsVsubclipse
p1952
Vsvn
p1953
sVthrust
p1954
NsVmule-studio
p1955
Vmule
p1956
sVgit-merge
p1957
NsVlexer
p1958
NsVandroid-image
p1959
Vandroid
p1960
sVuibezierpath
p1961
Vios
p1962
sVunobtrusive-javascript
p1963
NsVstruts-1
p1964
NsVweb.xml
p1965
NsVabstract-class
p1966
NsVpyside
p1967
NsVordering
p1968
Vmysql
p1969
sVundefined-behavior
p1970
NsVsticky-footer
p1971
Vcss
p1972
sVcore-foundation
p1973
Vobjective-c
p1974
sVcontextmenu
p1975
NsVgwt-rpc
p1976
Vgwt
p1977
sVlibusb
p1978
Vusb
p1979
sVsubroutine
p1980
NsVsimd
p1981
NsVjscrollpane
p1982
NsVtimepicker
p1983
NsVviewer
p1984
NsVgrails
p1985
NsVcobertura
p1986
Vjava
p1987
sVreverse-geocoding
p1988
NsVsysadmin
p1989
NsVlike-operator
p1990
NsVselectors
p1991
Vjquery
p1992
sVasp.net
p1993
Vc#
p1994
sVlotusscript
p1995
Vlotus-notes
p1996
sVsinatra
p1997
Vruby
p1998
sVjboss7.x
p1999
Vjava
p2000
sVsoap
p2001
Vweb-services
p2002
sVpersistence
p2003
NsVimplicit-conversion
p2004
NsVobserver-pattern
p2005
NsVwso2carbon
p2006
Vwso2
p2007
sVcipher
p2008
Vjava
p2009
sVsimplecursoradapter
p2010
Vandroid
p2011
sVdevice
p2012
NsVcomparison
p2013
NsVindexoutofboundsexception
p2014
Vjava
p2015
sVanimated-gif
p2016
NsVdata-transfer
p2017
NsVdbi
p2018
NsVatmosphere
p2019
NsVterminate
p2020
NsVdbf
p2021
NsVforceclose
p2022
NsVredirect
p2023
V.htaccess
p2024
sVrestlet
p2025
Vjava
p2026
sVremoveclass
p2027
NsVjar
p2028
Vjava
p2029
sVjstree
p2030
NsVterminal
p2031
Vosx
p2032
sVentities
p2033
Vphp
p2034
sVarcgis
p2035
Vpython
p2036
sVdjango-urls
p2037
Vdjango
p2038
sVhandle
p2039
NsVlistener
p2040
Vandroid
p2041
sVtableadapter
p2042
Vc#
p2043
sVeclipse-kepler
p2044
NsVdb2
p2045
NsVmemcpy
p2046
NsVandroid-camera
p2047
Vandroid
p2048
sVaes
p2049
Vencryption
p2050
sVrebase
p2051
NsVdefault
p2052
Vandroid
p2053
sVhmvc
p2054
Vcodeigniter
p2055
sVqtp
p2056
NsVframe
p2057
Vjava
p2058
sVpacket
p2059
NsVdialog
p2060
Vandroid
p2061
sVjqplot
p2062
NsVms-dos
p2063
Vbatch-file
p2064
sVsql-update
p2065
NsVverilog
p2066
Vsystem-verilog
p2067
sVemail
p2068
Vphp
p2069
sVqt4
p2070
NsVqt5
p2071
NsVsuperfish
p2072
NsVjsdoc
p2073
Vjavascript
p2074
sVconfiguration
p2075
NsVcocoapods
p2076
NsVtls
p2077
NsVdoxygen
p2078
NsVvalgrind
p2079
g193
sVitertools
p2080
NsVuiactionsheet
p2081
NsVetl
p2082
NsVandroid-wifi
p2083
Vandroid
p2084
sVnstimer
p2085
Vobjective-c
p2086
sVevent-handling
p2087
Vc#
p2088
sVchromium
p2089
Vgoogle-chrome
p2090
sVmailto
p2091
Vhtml
p2092
sVlist-comprehension
p2093
NsVandroid-dialogfragment
p2094
Vandroid
p2095
sVfiremonkey
p2096
NsVsweave
p2097
g13
sVimage-recognition
p2098
NsVurl-routing
p2099
NsVobjective-c++
p2100
NsVc#
p2101
NsVopenvpn
p2102
NsVtycho
p2103
NsVjquery-templates
p2104
NsVblackberry-eclipse-plugin
p2105
NsVgraphics
p2106
NsVcocos2d-android
p2107
NsVcvs
p2108
Vversion-control
p2109
sVframeworks
p2110
Vphp
p2111
sVintranet
p2112
NsVlibxml2
p2113
NsVhardware
p2114
NsVimagemap
p2115
Vhtml
p2116
sVpassbook
p2117
Vios
p2118
sVstdstring
p2119
Vc++
p2120
sVdataview
p2121
NsVdompdf
p2122
NsVrailstutorial.org
p2123
NsVandroid
p2124
NsVopenoffice-calc
p2125
Vopenoffice.org
p2126
sVmailchimp
p2127
Vphp
p2128
sVinfinite
p2129
NsVphp
p2130
Vmysql
p2131
sVidentity
p2132
Vsql-server
p2133
sVxcode4
p2134
Vxcode
p2135
sVaudit
p2136
Vsql-server
p2137
sVcode-reuse
p2138
NsVrelative-path
p2139
NsVpatterns
p2140
Vc#
p2141
sVcommand
p2142
Vwpf
p2143
sVaudio
p2144
Vandroid
p2145
sVdrawing
p2146
NsVipad-splitview
p2147
Vipad
p2148
sVless
p2149
NsVxen
p2150
NsVsearch-and-replace
p2151
Vregex
p2152
sVweb
p2153
Vjavascript
p2154
sVpath-finding
p2155
NsVnstextview
p2156
NsVspinner
p2157
Vandroid
p2158
sVlattice
p2159
NsVscriptmanager
p2160
Vasp.net
p2161
sVccsprite
p2162
NsVprimefaces
p2163
NsVcss3
p2164
NsVhabtm
p2165
NsVmorphia
p2166
NsVcrud
p2167
Vphp
p2168
sVbit-manipulation
p2169
NsVheight
p2170
NsVsamsung-mobile
p2171
Vandroid
p2172
sVdatabase-replication
p2173
NsVlambda-functions
p2174
Vc#
p2175
sVvisualsvn
p2176
NsVmsbuild-task
p2177
NsVdoubly-linked-list
p2178
NsVvsx
p2179
NsVgcc-warning
p2180
NsVgevent
p2181
NsVflush
p2182
Vphp
p2183
sVnested-attributes
p2184
Vruby-on-rails
p2185
sVmarklogic
p2186
NsVpreload
p2187
Vjquery
p2188
sVschedule
p2189
NsVcustom-data-attribute
p2190
Vjquery
p2191
sVieee-754
p2192
Vfloating-point
p2193
sVsymlink
p2194
NsVmaven
p2195
NsVdataannotations
p2196
NsVsqlconnection
p2197
Vc#
p2198
sVsigabrt
p2199
Vios
p2200
sVstage
p2201
Vactionscript-3
p2202
sVhaproxy
p2203
NsVtrue-type-fonts
p2204
NsVrichtext
p2205
Vc#
p2206
sVconstraints
p2207
NsVuiviewcontroller
p2208
Vios
p2209
sVpassword-protection
p2210
Vphp
p2211
sVafnetworking-2
p2212
Vios
p2213
sVqmake
p2214
NsVnavigationbar
p2215
Vcss
p2216
sVvirtualbox
p2217
Vvirtual-machine
p2218
sVflash-cs3
p2219
NsVjodatime
p2220
Vjava
p2221
sVflash-cs6
p2222
NsVpython-3.3
p2223
Vpython
p2224
sVflash-cs4
p2225
NsVflash-cs5
p2226
Vactionscript-3
p2227
sVpie-chart
p2228
Vjavascript
p2229
sVappfabric
p2230
NsVdynamic-sql
p2231
NsVstreamreader
p2232
NsVfunction
p2233
Vjavascript
p2234
sVnumerical-methods
p2235
Vmatlab
p2236
sVoverlapping
p2237
NsVautomapper
p2238
NsVcount
p2239
Vmysql
p2240
sVhtmlunit
p2241
NsVpython-3.x
p2242
NsVsmooth
p2243
Vjquery
p2244
sVcocos2d-iphone
p2245
Viphone
p2246
sVr.java-file
p2247
NsVfrequency
p2248
Vaudio
p2249
sVcocoa-touch
p2250
NsVdistribution
p2251
NsVjdialog
p2252
Vjava
p2253
sVsscanf
p2254
NsVtimespan
p2255
Vc#
p2256
sVint
p2257
NsVhibernate-criteria
p2258
Vhibernate
p2259
sVini
p2260
NsVxpages-extlib
p2261
NsVvector-graphics
p2262
Vsvg
p2263
sVlookup
p2264
NsVhpc
p2265
Vmpi
p2266
sVunit-testing
p2267
Vc#
p2268
sVweb-sql
p2269
NsVrepeat
p2270
Vandroid
p2271
sVworker
p2272
Vmultithreading
p2273
sVaddthis
p2274
Vjavascript
p2275
sVinstall4j
p2276
Vjava
p2277
sVrich-text-editor
p2278
Vjavascript
p2279
sVxamarin
p2280
NsVeof
p2281
NsVios-ui-automation
p2282
NsVms-project
p2283
NsVuitableviewcontroller
p2284
NsVrule
p2285
NsVhttp-status-code-404
p2286
Vphp
p2287
sVwin32com
p2288
NsVhttp-status-code-401
p2289
Vasp.net
p2290
sVamazon-dynamodb
p2291
Vamazon-web-services
p2292
sVhttp-status-code-403
p2293
Vphp
p2294
sVspring-3
p2295
Vspring
p2296
sVprototypejs
p2297
Vjavascript
p2298
sVinsert-update
p2299
Vmysql
p2300
sVmac-app-store
p2301
NsVaudiounit
p2302
Vcore-audio
p2303
sVrelationships
p2304
NsVlgpl
p2305
Vlicensing
p2306
sVconst
p2307
NsVmpmovieplayercontroller
p2308
NsVzxing
p2309
Vandroid
p2310
sVmatlab
p2311
NsVmouseout
p2312
Vjquery
p2313
sVfacebook-likebox
p2314
Vfacebook
p2315
sVhtml5-canvas
p2316
Vjavascript
p2317
sVassetic
p2318
Vsymfony2
p2319
sVreplication
p2320
Vmysql
p2321
sVm2e
p2322
NsVtagging
p2323
NsVunity3d
p2324
Vc#
p2325
sVjprogressbar
p2326
NsVcmd
p2327
Vbatch-file
p2328
sVupload
p2329
Vphp
p2330
sVgoogle-closure-library
p2331
NsVnsarray
p2332
Vobjective-c
p2333
sVatk4
p2334
Vphp
p2335
sVmp3
p2336
Vaudio
p2337
sVlong-polling
p2338
Vajax
p2339
sVchef
p2340
NsVilist
p2341
NsVappsettings
p2342
NsVandroid-intent
p2343
Vandroid
p2344
sVrenderscript
p2345
Vandroid
p2346
sVdecoding
p2347
NsVopenxml-sdk
p2348
Vopenxml
p2349
sVtextures
p2350
Vopengl
p2351
sVlinear-regression
p2352
g136
sVfacebook-android-sdk
p2353
Vandroid
p2354
sVwrapping
p2355
NsVequals
p2356
Vjava
p2357
sVpygtk
p2358
NsVprotection
p2359
Vphp
p2360
sVvisual-studio-addins
p2361
NsVplaceholder
p2362
NsVglm
p2363
NsVdebug-symbols
p2364
NsVbitmapimage
p2365
Vc#
p2366
sVitunes
p2367
NsVtemporary-files
p2368
Vjava
p2369
sVruby-on-rails-plugins
p2370
Vruby-on-rails
p2371
sVlogback
p2372
Vjava
p2373
sVplot
p2374
g136
sVfortran90
p2375
NsVbundler
p2376
Vruby-on-rails
p2377
sVbackgroundworker
p2378
NsVfile-exists
p2379
Vphp
p2380
sVcomposer-php
p2381
NsVcpu-registers
p2382
NsVshopping-cart
p2383
NsVblocking
p2384
Vmultithreading
p2385
sVwebmethod
p2386
Vasp.net
p2387
sVwix3.6
p2388
Vwix
p2389
sVwix3.5
p2390
Vwix
p2391
sVword
p2392
NsVangularjs-ng-repeat
p2393
NsVeclipse
p2394
NsVjtable
p2395
NsVtransparency
p2396
NsVscripting
p2397
Vbash
p2398
sVwordpress-theming
p2399
Vwordpress
p2400
sVfacebook-authentication
p2401
NsVmvvmcross
p2402
NsVfmdb
p2403
NsVuac
p2404
NsVplist
p2405
NsVrecovery
p2406
Vandroid
p2407
sVuifont
p2408
Vios
p2409
sViso-8859-1
p2410
NsVcore-graphics
p2411
Vios
p2412
sVlan
p2413
NsVlag
p2414
NsVopenal
p2415
NsVcalayer
p2416
Vios
p2417
sVjboss6.x
p2418
Vjava
p2419
sVcontext-free-grammar
p2420
Vgrammar
p2421
sVsparql
p2422
NsVassignment-operator
p2423
NsVorder
p2424
NsVnamed-scope
p2425
Vruby-on-rails
p2426
sVgoogle-checkout
p2427
NsVeigen
p2428
Vc++
p2429
sVoffice
p2430
NsVxsl-fo
p2431
NsVpascal
p2432
NsVbuttonclick
p2433
Vandroid
p2434
sVjquery-ui-autocomplete
p2435
Vjquery
p2436
sVamazon-cloudfront
p2437
NsVjdk1.6
p2438
Vjava
p2439
sVglassfish
p2440
NsVtypescript
p2441
Vjavascript
p2442
sVuipangesturerecognizer
p2443
NsVfragment
p2444
Vandroid
p2445
sVinfinite-scroll
p2446
NsVbreak
p2447
NsVrefactoring
p2448
NsVjinja2
p2449
Vpython
p2450
sVcloudera
p2451
NsVleft-join
p2452
Vmysql
p2453
sVnullable
p2454
Vc#
p2455
sVthree20
p2456
Viphone
p2457
sVright-to-left
p2458
Vcss
p2459
sVfeeds
p2460
Vrss
p2461
sVprawn
p2462
NsVinfragistics
p2463
Vc#
p2464
sVuicolor
p2465
NsVsprintf
p2466
NsVsliding
p2467
Vjquery
p2468
sVwindows-vista
p2469
NsVputty
p2470
Vssh
p2471
sVsegmentation-fault
p2472
NsVcollation
p2473
NsVsoundcloud
p2474
Vjavascript
p2475
sVwcf-rest
p2476
NsVmvp
p2477
NsVjslint
p2478
NsVmvc
p2479
NsVtextinput
p2480
Vflex
p2481
sVbenchmarking
p2482
NsVobservablecollection
p2483
NsVrender
p2484
Vruby-on-rails
p2485
sVsystem
p2486
Vphp
p2487
sVpython-sphinx
p2488
NsVslidetoggle
p2489
NsVweb-audio
p2490
Vjavascript
p2491
sVcustom-server-controls
p2492
NsVinflate
p2493
Vandroid
p2494
sVfitnesse
p2495
NsVdecompiling
p2496
NsVtex
p2497
Vlatex
p2498
sVtarget
p2499
NsVsqlclr
p2500
Vsql-server
p2501
sVebay
p2502
NsVhacking
p2503
NsVbinary-data
p2504
NsVweb-api
p2505
NsVuiview
p2506
Vios
p2507
sVrewrite
p2508
NsVdiscrete-mathematics
p2509
Vmath
p2510
sVintentservice
p2511
NsVangularjs
p2512
Vjavascript
p2513
sVlatency
p2514
NsVdbms
p2515
NsVawtrobot
p2516
Vjava
p2517
sVyui3
p2518
NsVindexes
p2519
Vmysql
p2520
sVvisual-studio
p2521
Vc#
p2522
sVreportingservices-2008
p2523
NsVgoogle-analytics-api
p2524
NsVssl-certificate
p2525
NsVwebcam
p2526
NsVgraphics2d
p2527
NsVqt-designer
p2528
NsVleaflet
p2529
NsVjointable
p2530
Vmysql
p2531
sVwildcard
p2532
NsVheuristics
p2533
Valgorithm
p2534
sVhtml-parsing
p2535
Vhtml
p2536
sVimage-segmentation
p2537
NsVogg
p2538
Vaudio
p2539
sVtoast
p2540
NsVpalindrome
p2541
Vjava
p2542
sVcircular-reference
p2543
NsVgraph-algorithm
p2544
Valgorithm
p2545
sVimplementation
p2546
NsVgson
p2547
NsVgoogle-contacts
p2548
NsVuicollectionviewlayout
p2549
NsVspeech-to-text
p2550
Vspeech-recognition
p2551
sViptables
p2552
NsVpushviewcontroller
p2553
Vios
p2554
sVcryptography
p2555
NsVuitoolbar
p2556
NsVaspxgridview
p2557
NsVidioms
p2558
NsVasync-await
p2559
NsVienumerable
p2560
NsVabaddressbook
p2561
NsVzookeeper
p2562
Vhbase
p2563
sVshared-memory
p2564
NsVanalytics
p2565
NsVdirectshow.net
p2566
Vdirectshow
p2567
sVivalueconverter
p2568
Vwpf
p2569
sVopenfiledialog
p2570
NsVlapply
p2571
NsVtype-inference
p2572
Vgenerics
p2573
sVctypes
p2574
NsVpreprocessor
p2575
NsVopenjpa
p2576
NsVpackages
p2577
Vjava
p2578
sVwx
p2579
NsVcoq
p2580
Vtheorem-proving
p2581
sVclaims-based-identity
p2582
Vwif
p2583
sVcocos2d-x
p2584
Vc++
p2585
sVtfs2012
p2586
NsVtfs2010
p2587
NsVreceiver
p2588
NsVcom
p2589
Vc#
p2590
sVandroid-gallery
p2591
NsVhorizontalscrollview
p2592
Vandroid
p2593
sVguid
p2594
Vc#
p2595
sVlatitude-longitude
p2596
Vandroid
p2597
sVcoredump
p2598
NsVshoulda
p2599
NsVnsfetchrequest
p2600
Vcore-data
p2601
sVhtml5-video
p2602
NsVaix
p2603
NsVgnu
p2604
g161
sVlauncher
p2605
NsViqueryable
p2606
NsVzlib
p2607
NsVair
p2608
NsVformatting
p2609
Vc#
p2610
sVvoice
p2611
NsVrails-admin
p2612
NsVlive-wallpaper
p2613
Vandroid
p2614
sVjoomla1.5
p2615
Vjoomla
p2616
sVtext-extraction
p2617
NsVserver-push
p2618
NsVhebrew
p2619
Vandroid
p2620
sVnetbeans-6.9
p2621
Vjava
p2622
sVcouchdb
p2623
Vnosql
p2624
sVgoogle-apps-script
p2625
Vgoogle-spreadsheet
p2626
sVleiningen
p2627
NsVlog4j
p2628
NsVnio
p2629
NsVnil
p2630
NsVsignalr-hub
p2631
NsVnib
p2632
NsVraii
p2633
Vc++
p2634
sVhang
p2635
Vc#
p2636
sVfuse
p2637
Vlinux
p2638
sVlevenshtein-distance
p2639
Valgorithm
p2640
sVandroid-fragments
p2641
NsVapache-httpclient-4.x
p2642
Vjava
p2643
sVsystem.diagnostics
p2644
Vc#
p2645
sVdepth-first-search
p2646
NsVmany-to-many
p2647
NsVcasperjs
p2648
NsVwebsphere-portal
p2649
Vportlet
p2650
sVsolaris
p2651
NsVphoto
p2652
NsVhttp-status-code-301
p2653
V.htaccess
p2654
sVquotes
p2655
NsVcurrying
p2656
Vfunctional-programming
p2657
sVonload
p2658
Vjavascript
p2659
sVubuntu-11.04
p2660
NsVmsxml
p2661
NsVopencl
p2662
Vgpgpu
p2663
sVopencv
p2664
Vc++
p2665
sVasp.net-mvc-areas
p2666
Vasp.net-mvc
p2667
sVdatabase-design
p2668
NsVmaya
p2669
NsVfilestream
p2670
NsVmicrocontroller
p2671
NsVword-wrap
p2672
NsVjekyll
p2673
NsVsimplemodal
p2674
NsVscikit-learn
p2675
Vpython
p2676
sVwindows-server-2003
p2677
Viis-6
p2678
sVsecurity
p2679
Vphp
p2680
sVwindows-server-2008
p2681
Viis-7
p2682
sVdelphi-xe2
p2683
NsVtitlebar
p2684
Vandroid
p2685
sVpreg-match-all
p2686
Vphp
p2687
sVnsmutabledictionary
p2688
Vobjective-c
p2689
sVjtabbedpane
p2690
Vjava
p2691
sVfacebook-php-sdk
p2692
Vfacebook
p2693
sVcomments
p2694
NsVplone
p2695
NsVwso2
p2696
Vwso2esb
p2697
sVuigesturerecognizer
p2698
Vios
p2699
sVgeocoding
p2700
NsVpaypal-api
p2701
Vphp
p2702
sVrepository
p2703
NsVzend-db-table
p2704
NsVdelete-row
p2705
Vmysql
p2706
sVtime-series
p2707
NsVsubstitution
p2708
Vregex
p2709
sVpost
p2710
NsVproperties
p2711
NsVrstudio
p2712
g136
sVsqlplus
p2713
NsVgoogle-maps
p2714
Vjavascript
p2715
sVasp.net-3.5
p2716
Vasp.net
p2717
sVquery-optimization
p2718
Vmysql
p2719
sVautohotkey
p2720
Vwindows
p2721
sVmsdeploy
p2722
Vmsbuild
p2723
sVrendering
p2724
Vopengl
p2725
sVhaskell
p2726
NsVsfml
p2727
NsVinitializer-list
p2728
NsVjdbc
p2729
NsVcompression
p2730
NsVconfiguration-files
p2731
NsVredmine
p2732
Vruby-on-rails
p2733
sVoracle11g
p2734
NsVsqldatareader
p2735
Vc#
p2736
sVwav
p2737
NsVtcpdump
p2738
Vlinux
p2739
sVwar
p2740
Vjava
p2741
sVsqlalchemy
p2742
NsVeclipse-emf
p2743
NsVbelongs-to
p2744
NsVcatalyst
p2745
Vperl
p2746
sVgwt2
p2747
NsVuisearchdisplaycontroller
p2748
NsVandroid-edittext
p2749
NsVsyscall
p2750
NsVthunderbird
p2751
Vemail
p2752
sVabstract
p2753
NsVfulltext
p2754
Vmysql
p2755
sVmysql-error-1064
p2756
NsVfull-text-search
p2757
NsVarchive
p2758
NsVyii-db
p2759
NsVormlite-servicestack
p2760
Vservicestack
p2761
sVdouble-quotes
p2762
Vphp
p2763
sVtruncate
p2764
NsVdotnet-httpclient
p2765
Vc#
p2766
sVnotepad
p2767
NsVurllib2
p2768
NsVavaudiorecorder
p2769
NsVpushstate
p2770
Vjavascript
p2771
sVapplescript
p2772
Vosx
p2773
sVglobal
p2774
Vvariables
p2775
sVpadrino
p2776
NsVrectangles
p2777
Vc#
p2778
sVscrollviewer
p2779
Vwpf
p2780
sVgoogle-fusion-tables
p2781
Vgoogle-maps
p2782
sVvarnish
p2783
Vcaching
p2784
sVflask
p2785
Vpython
p2786
sVgraph
p2787
Valgorithm
p2788
sVflash
p2789
Vactionscript-3
p2790
sVjvm
p2791
NsVhttp-post
p2792
Vandroid
p2793
sVandroid-testing
p2794
Vandroid
p2795
sVpredicate
p2796
NsVfunctional-testing
p2797
Vtesting
p2798
sVnsdictionary
p2799
NsVglobal-asax
p2800
NsVanonymous
p2801
Vfunction
p2802
sVgui
p2803
Vjava
p2804
sVfftw
p2805
Vc++
p2806
sVhtc
p2807
NsVhta
p2808
NsVphpunit
p2809
NsVhdfs
p2810
Vhadoop
p2811
sViphone-sdk-3.0
p2812
Viphone
p2813
sVrelational
p2814
Vdatabase
p2815
sVgawk
p2816
NsVapache
p2817
Vphp
p2818
sVhdf5
p2819
Vpython
p2820
sVtreemap
p2821
Vjava
p2822
sVdb4o
p2823
Vjava
p2824
sVbehat
p2825
Vmink
p2826
sVxcode5
p2827
NsVgrails-controller
p2828
Vgrails
p2829
sVapache-camel
p2830
NsVfilezilla
p2831
NsVgsub
p2832
NsVtabpanel
p2833
NsVmongodb-csharp
p2834
NsVandroid-actionbar
p2835
Vandroid
p2836
sVmarket
p2837
NsVregex
p2838
Vphp
p2839
sVhttpd
p2840
NsVrails-activerecord
p2841
Vruby-on-rails
p2842
sVshared-ptr
p2843
NsVgoogle-street-view
p2844
Vgoogle-maps
p2845
sVlive
p2846
Vjquery
p2847
sVhttps
p2848
NsVquartz.net
p2849
Vc#
p2850
sVruby-1.9.3
p2851
Vruby
p2852
sVavaudiosession
p2853
Vios
p2854
sVcoldfusion-10
p2855
NsVaforge
p2856
NsVmonotouch
p2857
Vios
p2858
sVnested-class
p2859
NsVwindows-7-x64
p2860
NsVselectonemenu
p2861
Vjsf
p2862
sVlogarithm
p2863
Vmath
p2864
sVgoogle-closure-compiler
p2865
NsVgraphic
p2866
NsVmemory-alignment
p2867
NsVquartz-2d
p2868
Vios
p2869
sVcas
p2870
NsVcat
p2871
NsViframe
p2872
NsVsql-injection
p2873
Vphp
p2874
sVsubstring
p2875
Vstring
p2876
sVabort
p2877
Vc#
p2878
sVspl
p2879
Vphp
p2880
sVcopy-constructor
p2881
NsVlxml
p2882
Vpython
p2883
sVmsmq
p2884
Vc#
p2885
sVandroid-alarms
p2886
Vandroid
p2887
sVaccess-control
p2888
Vphp
p2889
sVproduct
p2890
Vmagento
p2891
sVoutlook-2010
p2892
NsVjquery-ui-draggable
p2893
Vjquery
p2894
sVnearest-neighbor
p2895
NsVaop
p2896
NsVcompatibility
p2897
Vandroid
p2898
sVgoogle-cloud-sql
p2899
NsVhtml.dropdownlistfor
p2900
Vasp.net-mvc
p2901
sVinclude-path
p2902
Vphp
p2903
sVgoogle-bigquery
p2904
Vgoogle-app-engine
p2905
sVcorona
p2906
Vlua
p2907
sVscala-2.8
p2908
Vscala
p2909
sVghc
p2910
Vhaskell
p2911
sVzen-cart
p2912
NsVrails-routing
p2913
NsVneural-network
p2914
NsVexcel-interop
p2915
Vc#
p2916
sVdatabase-connection
p2917
Vmysql
p2918
sVgraphviz
p2919
Vdot
p2920
sVeclipse-indigo
p2921
NsVevent-dispatch-thread
p2922
NsVstack-trace
p2923
Vjava
p2924
sVpackage-managers
p2925
NsVarduino
p2926
NsVuilabel
p2927
Vios
p2928
sVforms
p2929
NsVyaml
p2930
Vruby
p2931
sVwindow
p2932
NsVmultiline
p2933
NsVsaxon
p2934
Vxslt
p2935
sVfxcop
p2936
Vc#
p2937
sVerror-logging
p2938
Vlogging
p2939
sVember.js
p2940
NsVerror-handling
p2941
NsVpass-by-value
p2942
NsVrake
p2943
NsVscaling
p2944
NsVcqrs
p2945
Vdomain-driven-design
p2946
sVwix3
p2947
NsVdrop
p2948
Vdrag
p2949
sVxmlpullparser
p2950
NsVtypetraits
p2951
Vc++
p2952
sVpycharm
p2953
Vpython
p2954
sVel
p2955
Vjsp
p2956
sVjquery-animate
p2957
Vjquery
p2958
sVcairo
p2959
NsVhttpwebresponse
p2960
Vhttpwebrequest
p2961
sVgaussian
p2962
Vmatlab
p2963
sVhighstock
p2964
Vhighcharts
p2965
sVphp-5.4
p2966
NsVphp-5.3
p2967
NsVnaming
p2968
Vnaming-conventions
p2969
sVtask-parallel-library
p2970
Vc#
p2971
sVspace
p2972
NsVelastic-beanstalk
p2973
NsVsoftware-design
p2974
Vsoftware-engineering
p2975
sVxamarin-studio
p2976
NsVfilewriter
p2977
NsVuwsgi
p2978
Vpython
p2979
sVcart
p2980
NsVandroid-ui
p2981
Vandroid
p2982
sVdependencies
p2983
Vmaven
p2984
sVtransition
p2985
Vjquery
p2986
sVstring-formatting
p2987
NsVnsmanagedobject
p2988
NsVlambda
p2989
Vc#
p2990
sVandroid-resources
p2991
Vandroid
p2992
sVvariables
p2993
Vphp
p2994
sVsavefiledialog
p2995
Vc#
p2996
sVmessage
p2997
NsVforwarding
p2998
Vdns
p2999
sVangular
p3000
NsVsize
p3001
Vandroid
p3002
sVchecked
p3003
NsVyii
p3004
NsVcarousel
p3005
Vjquery
p3006
sVcrash-dumps
p3007
NsVfriend
p3008
Vc++
p3009
sVminitest
p3010
NsVpecl
p3011
Vphp
p3012
sVpng
p3013
Vimage
p3014
sVthumbnails
p3015
NsVmysql-management
p3016
Vmysql
p3017
sVrobots.txt
p3018
NsVgpgpu
p3019
Vcuda
p3020
sVapplet
p3021
Vjava
p3022
sVtitanium-mobile
p3023
NsVdjango-orm
p3024
NsVamazon-s3
p3025
Vamazon-web-services
p3026
sVbrowser
p3027
NsVdependency-management
p3028
NsVfork
p3029
g193
sVmvvm
p3030
Vwpf
p3031
sVbufferedimage
p3032
NsVgesture-recognition
p3033
Vandroid
p3034
sVresponse.redirect
p3035
NsVwcf
p3036
Vc#
p3037
sVandengine
p3038
Vandroid
p3039
sVwatir-webdriver
p3040
NsVmobile-safari
p3041
NsVubercart
p3042
Vdrupal
p3043
sVsql-order-by
p3044
Vmysql
p3045
sVnsnotifications
p3046
NsVcarriage-return
p3047
Vnewline
p3048
sVscreen-scraping
p3049
Vpython
p3050
sVip-address
p3051
Vc#
p3052
sVqwebview
p3053
NsVupgrade
p3054
Vandroid
p3055
sVtitle
p3056
NsVmonkeyrunner
p3057
NsVhierarchy
p3058
NsVadobe-illustrator
p3059
Vsvg
p3060
sVdatatemplate
p3061
NsVlocationmanager
p3062
NsVboolean-logic
p3063
Vboolean
p3064
sVfft
p3065
NsVjtextfield
p3066
NsVdatamapper
p3067
Vruby
p3068
sVandroid-bluetooth
p3069
NsVwebapp2
p3070
Vgoogle-app-engine
p3071
sVpostgis
p3072
NsVitemscontrol
p3073
Vwpf
p3074
sVsonar
p3075
Vjava
p3076
sVformtastic
p3077
Vruby-on-rails
p3078
sVgoogle-geocoder
p3079
Vgoogle-maps
p3080
sVadd-in
p3081
Vc#
p3082
sVtablesorter
p3083
Vjquery
p3084
sVgdata
p3085
NsVnslayoutconstraint
p3086
NsVactionscript-3
p3087
Vflash
p3088
sVbetween
p3089
NsVimport
p3090
Vpython
p3091
sVjta
p3092
NsVwebsphere
p3093
NsVpthreads
p3094
g193
sVanalyzer
p3095
NsVarticle
p3096
Vjoomla
p3097
sVpixels
p3098
NsVexpression-blend
p3099
Vwpf
p3100
sVinstallation
p3101
NsVvideo-encoding
p3102
Vffmpeg
p3103
sVmono
p3104
NsVindy10
p3105
Vdelphi
p3106
sVgwt
p3107
Vjava
p3108
sVembedding
p3109
NsVcomet
p3110
Vajax
p3111
sVinversion-of-control
p3112
Vdependency-injection
p3113
sVcodeigniter-2
p3114
NsVframeset
p3115
Vhtml
p3116
sVosx-lion
p3117
Vosx
p3118
sVdispatch
p3119
Vscala
p3120
sVnokogiri
p3121
NsVexploit
p3122
Vsecurity
p3123
sVcaret
p3124
NsVruntime-error
p3125
NsVruby-on-rails-3.1
p3126
NsVruby-on-rails-3.2
p3127
NsVgridfs
p3128
Vmongodb
p3129
sVaero
p3130
Vc#
p3131
sVexternal
p3132
NsVcodeigniter-url
p3133
NsVnsurlrequest
p3134
NsVruby
p3135
NsVpayment-gateway
p3136
NsVlog4net-configuration
p3137
NsVkey-value-coding
p3138
NsVuitouch
p3139
Vios
p3140
sVsharepoint-workflow
p3141
Vsharepoint
p3142
sVyahoo-api
p3143
NsVorientation
p3144
NsVstdout
p3145
NsVdatastore
p3146
Vgoogle-app-engine
p3147
sVmedia
p3148
Vandroid
p3149
sVservlets
p3150
NsVmsdtc
p3151
NsVepoch
p3152
Vtime
p3153
sVcapybara
p3154
NsVdocument
p3155
Vjavascript
p3156
sVavl-tree
p3157
NsVhadoop-streaming
p3158
Vhadoop
p3159
sVmedia-queries
p3160
Vcss
p3161
sVandroid-viewpager
p3162
Vandroid
p3163
sVscrolltop
p3164
NsVcrystal-reports
p3165
Vc#
p3166
sV8086
p3167
Vassembly
p3168
sVcore-image
p3169
Vios
p3170
sValfresco
p3171
NsVdata-mining
p3172
Vmachine-learning
p3173
sVsystem.drawing
p3174
Vc#
p3175
sVbreeze
p3176
NsVsharepoint-2010
p3177
Vsharepoint
p3178
sVcck
p3179
NsVprocessbuilder
p3180
NsVsqliteopenhelper
p3181
Vandroid
p3182
sVsublimetext
p3183
Vsublimetext2
p3184
sVcocos2d
p3185
NsVtouch
p3186
Vandroid
p3187
sVaction-filter
p3188
Vasp.net-mvc
p3189
sVstruct
p3190
g193
sVimagebutton
p3191
Vandroid
p3192
sVmmap
p3193
Vlinux
p3194
sVdesktop
p3195
Vjava
p3196
sVhover
p3197
Vjquery
p3198
sVandroid-lifecycle
p3199
NsVrules
p3200
NsVswig
p3201
Vc++
p3202
sVamd
p3203
Vrequirejs
p3204
sVmousemove
p3205
NsVlwjgl
p3206
Vjava
p3207
sVappkit
p3208
NsVexecution
p3209
Vphp
p3210
sVdeep-copy
p3211
Vjava
p3212
sVandroid-listview
p3213
Vandroid
p3214
sVblackberry
p3215
Vjava-me
p3216
sVoutput
p3217
Vjava
p3218
sVcomputer-science
p3219
Valgorithm
p3220
sVdjango-queries
p3221
Vdjango
p3222
sVstrcmp
p3223
g161
sVcisco
p3224
NsVuppercase
p3225
Vlowercase
p3226
sVandroid-c2dm
p3227
Vandroid
p3228
sVfgets
p3229
NsVejb-3.0
p3230
Vjava
p3231
sVbigdata
p3232
Vhadoop
p3233
sVinno-setup
p3234
NsVuser-profile
p3235
Vdjango
p3236
sVassembly
p3237
Vx86
p3238
sVpylons
p3239
NsVdatabase-performance
p3240
Vmysql
p3241
sVtdd
p3242
NsVontology
p3243
Vowl
p3244
sVthrow
p3245
NsVmovieclip
p3246
Vactionscript-3
p3247
sVcrystal-reports-2010
p3248
Vcrystal-reports
p3249
sVsrc
p3250
NsVazureservicebus
p3251
NsVstruts2
p3252
NsVbackup
p3253
Vmysql
p3254
sVprocessor
p3255
NsVoutlook
p3256
Vc#
p3257
sVprovisioning-profile
p3258
Vios
p3259
sVsplash-screen
p3260
NsVsuppress-warnings
p3261
Vjava
p3262
sVweight
p3263
Vandroid
p3264
sVopengl
p3265
NsVarel
p3266
Vruby-on-rails
p3267
sVnpapi
p3268
Vplugins
p3269
sVmouseenter
p3270
Vjquery
p3271
sVwindows-server-2008-r2
p3272
Viis-7.5
p3273
sVmultitasking
p3274
Viphone
p3275
sVembedded
p3276
g161
sVasp.net-mvc-2
p3277
NsVasp.net-mvc-3
p3278
NsVasp.net-mvc-4
p3279
Vasp.net-mvc
p3280
sVasp.net-mvc-5
p3281
Vasp.net-mvc
p3282
sVdefine
p3283
NsVandroid-alertdialog
p3284
Vandroid
p3285
sVcakephp-appmodel
p3286
Vcakephp
p3287
sVinner-classes
p3288
Vjava
p3289
sVboost-spirit-qi
p3290
Vc++
p3291
sVibatis
p3292
Vjava
p3293
sVminify
p3294
NsVstorage
p3295
Vandroid
p3296
sVringtone
p3297
NsVpear
p3298
NsVregistry
p3299
NsVpool
p3300
Vjava
p3301
sVbulk
p3302
NsVandroid-progressbar
p3303
Vandroid
p3304
sVpowershell-v2.0
p3305
Vpowershell
p3306
sVxcopy
p3307
Vbatch-file
p3308
sVvalidator
p3309
Vjquery
p3310
sVdigital-certificate
p3311
Vdigital-signature
p3312
sVsemantic
p3313
Vhtml
p3314
sVgoogle-spreadsheet-api
p3315
Vgoogle-spreadsheet
p3316
sVsplitting
p3317
Vstring
p3318
sVmp4
p3319
Vvideo
p3320
sVweb-worker
p3321
Vjavascript
p3322
sVopenlayers
p3323
NsVsharepoint2013
p3324
NsVandroid-mediaplayer
p3325
NsViconv
p3326
NsVicons
p3327
NsVandroid-cursor
p3328
Vandroid
p3329
sVwmi
p3330
Vc#
p3331
sVnodes
p3332
Vxml
p3333
sVportforwarding
p3334
NsVmpi
p3335
g193
sVsortable
p3336
Vjquery
p3337
sVdatatrigger
p3338
Vwpf
p3339
sVswiftmailer
p3340
NsVmapreduce
p3341
Vhadoop
p3342
sVurlencode
p3343
Vphp
p3344
sVandroid-permissions
p3345
Vandroid
p3346
sVcookies
p3347
NsVinstagram
p3348
Vapi
p3349
sVmojarra
p3350
Vjsf-2
p3351
sVpivot-table
p3352
NsVreportingservices-2005
p3353
Vreporting-services
p3354
sVcertificates
p3355
NsVnant
p3356
NsVmodify
p3357
NsVgrails-2.0
p3358
Vgrails
p3359
sVcaliburn.micro
p3360
Vwpf
p3361
sVpopen
p3362
NsVundefined-reference
p3363
Vc++
p3364
sVadvertising
p3365
Vandroid
p3366
sVpermutation
p3367
Valgorithm
p3368
sVinvalidate
p3369
NsVjre
p3370
Vandroid
p3371
sVshuffle
p3372
NsVhlsl
p3373
NsVcustom-fields
p3374
Vwordpress
p3375
sVjoomla2.5
p3376
Vjoomla
p3377
sVhref
p3378
Vhtml
p3379
sVadd-on
p3380
Vfirefox
p3381
sVhelper
p3382
NsVjavascript-framework
p3383
Vjavascript
p3384
sVjcarousel
p3385
Vjquery
p3386
sVcontains
p3387
NsVvi
p3388
NsVauthorization
p3389
NsVquickbooks-online
p3390
Vintuit-partner-platform
p3391
sVtemp-tables
p3392
Vsql
p3393
sVhashcode
p3394
NsVitext
p3395
Vjava
p3396
sVgit-branch
p3397
NsVmodalpopupextender
p3398
NsVazure-worker-roles
p3399
NsVgql
p3400
NsVnetbeans-7
p3401
Vjava
p3402
sVmvvm-light
p3403
Vmvvm
p3404
sVhistory
p3405
NsVswfobject
p3406
NsVf#
p3407
NsVmagento
p3408
NsVexclude
p3409
Vregex
p3410
sVdjango-models
p3411
NsVspreadsheet
p3412
NsVoracle10g
p3413
Voracle
p3414
sVpygame
p3415
Vpython
p3416
sVshell-exec
p3417
NsVpiglatin
p3418
Vpig
p3419
sVopengl-es-2.0
p3420
NsVtextview
p3421
NsVpowerbuilder
p3422
NsVexcel-2010
p3423
Vexcel
p3424
sVcoldfusion-9
p3425
NsVcoldfusion-8
p3426
NsVfirebreath
p3427
Vc++
p3428
sVgruntjs
p3429
Vjavascript
p3430
sVtext-editor
p3431
Veditor
p3432
sVscss
p3433
Vcss
p3434
sVapplication-settings
p3435
NsVdocumentation
p3436
Vpython
p3437
sVhsqldb
p3438
Vjava
p3439
sVinline
p3440
Vc++
p3441
sVuninstall
p3442
NsVphotoshop
p3443
Vcss
p3444
sV2d-array
p3445
NsVasp.net-4.5
p3446
Vasp.net
p3447
sVtaxonomy
p3448
Vwordpress
p3449
sVmockito
p3450
Vjava
p3451
sVasp.net-4.0
p3452
Vasp.net
p3453
sVssh-keys
p3454
Vssh
p3455
sVskinning
p3456
NsVios-simulator
p3457
NsVffi
p3458
NsVcustom-controls
p3459
Vc#
p3460
sVinfinite-loop
p3461
NsVaggregation-framework
p3462
NsVpsycopg2
p3463
NsVselenium
p3464
NsVaccess-token
p3465
NsVdynamic-memory-allocation
p3466
Vc++
p3467
sVfreeze
p3468
NsVterrain
p3469
NsVio-redirection
p3470
Vbash
p3471
sVtextwrapping
p3472
Vcss
p3473
sVfile-handling
p3474
g161
sVreferrer
p3475
NsVdecimal
p3476
NsVpreferenceactivity
p3477
NsVcordova-2.0.0
p3478
NsVfluent-interface
p3479
NsVsingle-sign-on
p3480
Vjava
p3481
sVtext-processing
p3482
NsVgemfile
p3483
Vruby-on-rails
p3484
sVpreg-replace
p3485
Vphp
p3486
sVpublish
p3487
NsVtask-queue
p3488
Vgoogle-app-engine
p3489
sVjquery-effects
p3490
NsVast
p3491
Vjava
p3492
sVtimeline
p3493
Vjavascript
p3494
sVsymbian
p3495
Vqt
p3496
sVbase
p3497
Vc#
p3498
sVput
p3499
Vrest
p3500
sVfluid-layout
p3501
Vcss
p3502
sVrecv
p3503
NsVbash
p3504
Vshell
p3505
sVlaunch
p3506
NsVdrupal
p3507
Vphp
p3508
sVcaption
p3509
Vjquery
p3510
sVshellexecute
p3511
Vc++
p3512
sVassign
p3513
NsVtabitem
p3514
Vwpf
p3515
sVsingleton
p3516
Vjava
p3517
sVacts-as-taggable-on
p3518
NsVprobability
p3519
Vrandom
p3520
sVencoding
p3521
Vutf-8
p3522
sVv8
p3523
Vjavascript
p3524
sVlarge-data
p3525
NsVfile-transfer
p3526
Vandroid
p3527
sVlucene-index
p3528
Vlucene
p3529
sVbinaryfiles
p3530
Vc++
p3531
sVweblogic
p3532
Vjava
p3533
sVexpand
p3534
NsVcluster-analysis
p3535
NsVzeromq
p3536
NsVscheme
p3537
NsVslidedown
p3538
Vjquery
p3539
sVschema
p3540
NsVascx
p3541
Vasp.net
p3542
sVgetter
p3543
Vsetter
p3544
sVbower
p3545
NsVmultiple-instances
p3546
NsVtranslation
p3547
NsVtfs
p3548
Vtfs2010
p3549
sVstd
p3550
NsVdto
p3551
NsVffmpeg
p3552
Vvideo
p3553
sVstl
p3554
NsV.htaccess
p3555
NsVdtd
p3556
NsVgedit
p3557
Vpython
p3558
sVnull
p3559
Vjava
p3560
sVfacebook-canvas
p3561
NsVkoala
p3562
NsVpython-2.7
p3563
Vpython
p3564
sVpython-2.6
p3565
Vpython
p3566
sVpython-2.5
p3567
Vpython
p3568
sVboxplot
p3569
NsVzepto
p3570
NsVraspberry-pi
p3571
NsVbug-tracking
p3572
Vissue-tracking
p3573
sVquote
p3574
Vphp
p3575
sVmultilingual
p3576
Vphp
p3577
sVnsoperationqueue
p3578
Vios
p3579
sValpha
p3580
NsVpython-2.x
p3581
Vpython
p3582
sVexecutable-jar
p3583
Vjava
p3584
sVmobile
p3585
NsVclear
p3586
NsVnsdateformatter
p3587
Vnsdate
p3588
sVvelocity
p3589
Vjava
p3590
sVblend
p3591
Vwpf
p3592
sVflicker
p3593
NsVtastypie
p3594
NsVscrollview
p3595
NsVlanguage-features
p3596
Vc#
p3597
sVparameters
p3598
NsVgoogle-play
p3599
Vandroid
p3600
sVcontroltemplate
p3601
NsVcircle
p3602
NsVglut
p3603
Vopengl
p3604
sVjquery
p3605
Vjavascript
p3606
sVhotmail
p3607
NsVdata-access-layer
p3608
NsVcombinations
p3609
Valgorithm
p3610
sVgrep
p3611
Vbash
p3612
sVfacebook-ios-sdk
p3613
NsVegit
p3614
Veclipse
p3615
sVboost
p3616
Vc++
p3617
sVgit-rebase
p3618
NsVbusiness-logic
p3619
NsVlocale
p3620
Vjava
p3621
sVcore-audio
p3622
Vios
p3623
sVculture
p3624
Vc#
p3625
sVrtmp
p3626
NsVportrait
p3627
NsVqtip
p3628
Vjquery
p3629
sVkeypress
p3630
Vjquery
p3631
sVxna-4.0
p3632
Vc#
p3633
sVscalability
p3634
Vperformance
p3635
sVcore-location
p3636
NsVknockout.js
p3637
NsVboto
p3638
NsVbox2d-iphone
p3639
Vcocos2d-iphone
p3640
sVprimary-key
p3641
NsVfileinputstream
p3642
Vjava
p3643
sVbots
p3644
NsVruby-on-rails-4
p3645
NsVruby-on-rails-2
p3646
NsVruby-on-rails-3
p3647
NsVbattery
p3648
Vandroid
p3649
sVheader
p3650
NsVlinux
p3651
NsVfacebook-fql
p3652
Vfacebook
p3653
sVdestructor
p3654
Vc++
p3655
sVhtml-form
p3656
Vhtml
p3657
sVspecial-characters
p3658
Vphp
p3659
sVmaintenance
p3660
Vsql-server
p3661
sVwill-paginate
p3662
Vruby-on-rails
p3663
sVshortcode
p3664
Vwordpress
p3665
sVandroid-maps
p3666
NsVbrowser-cache
p3667
Vcaching
p3668
sVcovariance
p3669
Vc#
p3670
sVserversocket
p3671
NsVtwitter-bootstrap-3
p3672
NsVwakelock
p3673
Vandroid
p3674
sVimap
p3675
NsVfloating-point
p3676
NsVpublish-subscribe
p3677
NsVresponsive-design
p3678
NsVmainframe
p3679
NsVchecksum
p3680
Vjava
p3681
sVbookmarklet
p3682
Vjavascript
p3683
sVprolog
p3684
Vlist
p3685
sVmalloc
p3686
NsVjpa
p3687
Vjava
p3688
sVskype
p3689
NsVgimp
p3690
NsVautosize
p3691
NsVfedora
p3692
NsVlibcurl
p3693
NsVtext-to-speech
p3694
Vandroid
p3695
sVjpa-2.0
p3696
Vjava
p3697
sVmodel-binding
p3698
Vasp.net-mvc
p3699
sVzope
p3700
Vplone
p3701
sVcomposition
p3702
Vinheritance
p3703
sVconflict
p3704
NsVinterpolation
p3705
Vpython
p3706
sVstorekit
p3707
NsVandroid-sqlite
p3708
Vandroid
p3709
sVbrowser-history
p3710
Vjavascript
p3711
sVmshtml
p3712
NsVgsp
p3713
NsVsha1
p3714
Vhash
p3715
sVdojox.grid.datagrid
p3716
Vdojo
p3717
sVdatabase
p3718
NsVdocker
p3719
NsVrbenv
p3720
Vruby
p3721
sVgsl
p3722
NsVc++builder
p3723
Vc++
p3724
sVpacket-sniffers
p3725
NsVcout
p3726
NsVtinymce
p3727
Vjavascript
p3728
sVpywin32
p3729
NsVunique-constraint
p3730
Vsql
p3731
sVjdeveloper
p3732
Vjava
p3733
sVlibpcap
p3734
g161
sVormlite
p3735
NsVshortcut
p3736
Vandroid
p3737
sVvsix
p3738
Vvisual-studio-2010
p3739
sVreportviewer
p3740
NsVtransformation
p3741
Vxslt
p3742
sVpython-multithreading
p3743
Vpython
p3744
sVnginx
p3745
NsVoverriding
p3746
Vjava
p3747
sVactivex
p3748
Vc#
p3749
sVsubmission
p3750
Vforms
p3751
sVnsview
p3752
NsVmanifest
p3753
NsVwordpress-plugin-dev
p3754
Vwordpress
p3755
sVwininet
p3756
NsVterminology
p3757
Vjava
p3758
sVfreebase
p3759
Vmql
p3760
sVcreation
p3761
Vjava
p3762
sVsame-origin-policy
p3763
NsVdocusignapi
p3764
NsVwarnings
p3765
NsVid3
p3766
NsVmaven-assembly-plugin
p3767
NsVcgi
p3768
Vperl
p3769
sVrun
p3770
Vjava
p3771
sVprocessing
p3772
Vjava
p3773
sVbitmapfactory
p3774
Vandroid
p3775
sVjdbctemplate
p3776
NsVwindows-store
p3777
NsVgnome
p3778
NsVtracing
p3779
Vc#
p3780
sVgithub-api
p3781
Vgithub
p3782
sVsimulation
p3783
NsVidl
p3784
NsVdatasource
p3785
NsVjsp
p3786
NsVide
p3787
NsVshiny
p3788
NsVandroid-contacts
p3789
Vandroid
p3790
sVblock
p3791
NsVactive-directory
p3792
Vc#
p3793
sVgtkmm
p3794
NsVweb-crawler
p3795
NsVperl
p3796
NsVperformancecounter
p3797
Vc#
p3798
sVstatistics
p3799
NsVinstance-variables
p3800
NsVapp-engine-ndb
p3801
Vgoogle-app-engine
p3802
sVheroku
p3803
NsVandroid-file
p3804
Vandroid
p3805
sVstatic-linking
p3806
Vc++
p3807
sVinjection
p3808
NsVrequestfactory
p3809
NsVfacebook-sharer
p3810
Vfacebook
p3811
sVutc
p3812
Vdatetime
p3813
sVutf
p3814
NsVmiddleware
p3815
NsVviewbag
p3816
NsVaccessibility
p3817
Vhtml
p3818
sVxslt-1.0
p3819
NsVflowplayer
p3820
Vjavascript
p3821
sVnsuserdefaults
p3822
NsVgecko
p3823
NsVcross-compiling
p3824
NsVpolygon
p3825
NsVfirst-responder
p3826
NsVnan
p3827
NsVnav
p3828
NsVnat
p3829
NsVload-balancing
p3830
Vasp.net
p3831
sVpandas
p3832
NsVdraw
p3833
NsVmongodb
p3834
NsVcaching
p3835
Vphp
p3836
sVdrag
p3837
NsVeval
p3838
Vjavascript
p3839
sVstructure
p3840
NsVnsdocument
p3841
Vcocoa
p3842
sVwebdriver
p3843
Vjava
p3844
sVsvm
p3845
NsVzooming
p3846
NsVsvg
p3847
NsVdjango-registration
p3848
Vdjango
p3849
sVrequired
p3850
Vhtml5
p3851
sVyoutube
p3852
NsVdepth
p3853
Vopengl
p3854
sVcustom-component
p3855
NsVblackberry-jde
p3856
NsVaccess-violation
p3857
Vc++
p3858
sVmsbuild
p3859
NsVjson.net
p3860
NsVgd
p3861
Vphp
p3862
sVgo
p3863
Vgoogle-app-engine
p3864
sVuistoryboardsegue
p3865
NsVinformation-retrieval
p3866
NsVwizard
p3867
Vasp.net
p3868
sVtext-alignment
p3869
NsVrollback
p3870
NsVgamekit
p3871
NsVflickr-api
p3872
Vflickr
p3873
sVdrupal-theming
p3874
Vdrupal
p3875
sVtortoisegit
p3876
NsVbit-shift
p3877
NsVmercurial
p3878
NsVbutton
p3879
NsVspring-jdbc
p3880
NsVhive
p3881
NsVolap
p3882
NsVgeospatial
p3883
NsVglfw
p3884
NsVtidesdk
p3885
Vjavascript
p3886
sVpicker
p3887
NsVzk
p3888
NsVdownload
p3889
Vphp
p3890
sVclick
p3891
Vjquery
p3892
sVphpdoc
p3893
NsVresque
p3894
Vruby-on-rails
p3895
sVcell
p3896
NsVimporterror
p3897
NsVvolatile
p3898
NsVvb6
p3899
Vc#
p3900
sVplayn
p3901
NsVdrools
p3902
Vjava
p3903
sVdrupal-7
p3904
NsVdrupal-6
p3905
NsVmatplotlib
p3906
Vpython
p3907
sVlogout
p3908
Vphp
p3909
sVaccessor
p3910
NsVz3
p3911
NsVinfopath
p3912
Vsharepoint
p3913
sVvba
p3914
NsVuikit
p3915
NsVvbo
p3916
NsVproducts
p3917
Vmagento
p3918
sVautomatic-ref-counting
p3919
Vobjective-c
p3920
sVperl-module
p3921
NsVwif
p3922
NsVoutlook-addin
p3923
Vc#
p3924
sVrealloc
p3925
NsVnsattributedstring
p3926
Vios
p3927
sVreadfile
p3928
Vphp
p3929
sVontouchevent
p3930
NsVboolean
p3931
NsVteam-foundation-service
p3932
Vtfs
p3933
sVstatic-analysis
p3934
NsVcloud
p3935
Vazure
p3936
sVwix
p3937
NsVdjango-haystack
p3938
NsVdelphi-2010
p3939
Vdelphi
p3940
sVnuget
p3941
Vnuget-package
p3942
sVcamera
p3943
Vandroid
p3944
sVqunit
p3945
NsVmod-proxy
p3946
NsVpowermock
p3947
NsVresize
p3948
Vjquery
p3949
sVemail-validation
p3950
Vregex
p3951
sVanonymous-types
p3952
NsVphing
p3953
NsVperformance-testing
p3954
Vperformance
p3955
sVinternet-explorer-11
p3956
Vinternet-explorer
p3957
sVinternet-explorer-10
p3958
Vjavascript
p3959
sVnetwork-protocols
p3960
Vnetworking
p3961
sVcontrol
p3962
NsVlinks
p3963
Vhtml
p3964
sVsocketexception
p3965
NsVsudo
p3966
Vlinux
p3967
sVsuds
p3968
Vpython
p3969
sVwebmatrix
p3970
NsVevent-log
p3971
NsVuibarbuttonitem
p3972
NsVjoomla-extensions
p3973
Vjoomla
p3974
sVuibinder
p3975
Vgwt
p3976
sVpyqt
p3977
Vpython
p3978
sVscriptaculous
p3979
Vjavascript
p3980
sVjwplayer
p3981
Vjavascript
p3982
sVgalleria
p3983
NsVdesktop-application
p3984
NsValertdialog
p3985
Vandroid
p3986
sVpydev
p3987
Veclipse
p3988
sVxmlns
p3989
Vxml
p3990
sVexport-to-csv
p3991
Vcsv
p3992
sVvisual-studio-team-system
p3993
NsVthread-safety
p3994
NsVasmx
p3995
Vweb-services
p3996
sVjna
p3997
NsVgpuimage
p3998
NsVinterceptor
p3999
Vjava
p4000
sVrestful-authentication
p4001
NsVsubversive
p4002
Vsvn
p4003
sVphpbb3
p4004
NsVsmtpclient
p4005
Vc#
p4006
sVclient-certificates
p4007
Vssl
p4008
sVpaperclip
p4009
NsVpixel
p4010
Vimage
p4011
sVfactorial
p4012
Vrecursion
p4013
sVauto
p4014
Vc++
p4015
sVnokia
p4016
NsVms-word
p4017
NsVsmarty
p4018
Vphp
p4019
sVqgraphicsitem
p4020
NsVcakephp
p4021
Vphp
p4022
sVxpcom
p4023
NsVstoryboard
p4024
Vios
p4025
sVmodx
p4026
Vmodx-revolution
p4027
sVweak-references
p4028
NsVslide
p4029
Vjquery
p4030
sViphone-privateapi
p4031
Vios
p4032
sVtabcontrol
p4033
Vc#
p4034
sVjsp-tags
p4035
NsVbluetooth
p4036
Vandroid
p4037
sVimage-processing
p4038
Vopencv
p4039
sVcitrix
p4040
Vxenapp
p4041
sVmargins
p4042
NsVtransitions
p4043
Vcss
p4044
sVobjectdatasource
p4045
Vasp.net
p4046
sVios-4.2
p4047
Viphone
p4048
sVreboot
p4049
Vandroid
p4050
sVcritical-section
p4051
NsVnsregularexpression
p4052
NsVnstask
p4053
Vobjective-c
p4054
sViostream
p4055
Vc++
p4056
sVwatermark
p4057
NsVhl7
p4058
NsVeventlistener
p4059
Vjavascript
p4060
sVundo
p4061
NsVqt-creator
p4062
Vqt
p4063
sVgeometry
p4064
NsVdeprecated
p4065
NsVroute
p4066
Vphp
p4067
sVspoj
p4068
Valgorithm
p4069
sVtimer
p4070
Vc#
p4071
sVblogger
p4072
NsVm2eclipse
p4073
Veclipse
p4074
sVjcombobox
p4075
NsVeclipse-adt
p4076
NsVgoogle-chrome-devtools
p4077
Vgoogle-chrome
p4078
sVplaylist
p4079
NsVprivacy
p4080
NsVmkdir
p4081
Vphp
p4082
sVwrapper
p4083
NsVattach
p4084
Vandroid
p4085
sVhttp-status-codes
p4086
Vhttp
p4087
sVphp-extension
p4088
Vphp
p4089
sVfinal
p4090
NsVnsnumberformatter
p4091
Vobjective-c
p4092
sVws-security
p4093
Vweb-services
p4094
sVrsa
p4095
NsVmanipulation
p4096
NsVrequiredfieldvalidator
p4097
Vasp.net
p4098
sVupdating
p4099
Vandroid
p4100
sVrss
p4101
NsVandroid-custom-view
p4102
NsVfscanf
p4103
g193
sVfragment-shader
p4104
NsVvideo-processing
p4105
Vvideo
p4106
sVtabs
p4107
NsVunpivot
p4108
NsVborder
p4109
Vcss
p4110
sVfluent
p4111
Vnhibernate
p4112
sVmicrophone
p4113
NsVcascade
p4114
NsVinstance
p4115
Vclass
p4116
sVcocoa-bindings
p4117
Vcocoa
p4118
sVjavacv
p4119
NsVmongrel
p4120
NsVjboss5.x
p4121
Vjava
p4122
sVuiinterfaceorientation
p4123
Vios
p4124
sVawt
p4125
NsVvalue-type
p4126
Vc#
p4127
sVawk
p4128
NsVoptional-parameters
p4129
NsVframe-rate
p4130
NsVgallery
p4131
Vandroid
p4132
sVepub
p4133
NsVurl
p4134
NsVindy
p4135
Vdelphi
p4136
sVuri
p4137
Vandroid
p4138
sVspam-prevention
p4139
NsVsnapshot
p4140
NsVclass-library
p4141
NsVloadrunner
p4142
Vperformance-testing
p4143
sVeclipselink
p4144
Vjpa
p4145
sVcss-selectors
p4146
Vcss
p4147
sVrmagick
p4148
NsVdotnetopenauth
p4149
Vopenid
p4150
sVhector
p4151
Vcassandra
p4152
sVangularjs-routing
p4153
NsVspring-security
p4154
Vspring
p4155
sVauto-update
p4156
Vandroid
p4157
sVubuntu-12.04
p4158
Vubuntu
p4159
sVitemrenderer
p4160
NsVstrpos
p4161
NsVtwilio
p4162
Vphp
p4163
sVtbb
p4164
NsVscrolling
p4165
NsVprocesses
p4166
NsVnskeyedarchiver
p4167
NsVnsbutton
p4168
Vcocoa
p4169
sVcoronasdk
p4170
NsVsha
p4171
Vhash
p4172
sVdatetime-format
p4173
Vdatetime
p4174
sVgit-svn
p4175
Vgit
p4176
sVdpi
p4177
Vandroid
p4178
sVcognos
p4179
Vcognos-8
p4180
sVopenoffice.org
p4181
Vjava
p4182
sVmulti-select
p4183
NsVpreventdefault
p4184
NsVjavasound
p4185
Vjava
p4186
sVsetup-deployment
p4187
NsVandroid-adapter
p4188
Vandroid
p4189
sVresourcebundle
p4190
Vjava
p4191
sVlegacy
p4192
Vjava
p4193
sVafnetworking
p4194
Vios
p4195
sVreverse-engineering
p4196
Vjava
p4197
sVxerces
p4198
Vxml
p4199
sVstanford-nlp
p4200
Vnlp
p4201
sVlua
p4202
Vcorona
p4203
sVstate
p4204
NsVstata
p4205
g136
sVmasking
p4206
NsVflickr
p4207
Vflickr-api
p4208
sVcomparable
p4209
NsVangularjs-directive
p4210
Vangularjs
p4211
sVfacebook-apps
p4212
Vfacebook
p4213
sVsharedpreferences
p4214
Vandroid
p4215
sVgroup
p4216
NsVadmin
p4217
NsVubuntu-10.04
p4218
Vlinux
p4219
sVandroid-notifications
p4220
NsVdocumentation-generation
p4221
NsVjersey
p4222
Vjava
p4223
sVfbml
p4224
NsVthickbox
p4225
NsVvxworks
p4226
NsVmodel-associations
p4227
NsVversion-control
p4228
Vgit
p4229
sVemail-integration
p4230
NsVandroid-webview
p4231
NsVandroid-button
p4232
NsVcultureinfo
p4233
NsVaddition
p4234
Vjava
p4235
sVpcap
p4236
NsVcore-data
p4237
NsVuitableviewcell
p4238
Vuitableview
p4239
sVaggregate-functions
p4240
NsVusername
p4241
Vphp
p4242
sVxlsx
p4243
Vexcel
p4244
sVpic
p4245
NsVmysql-real-escape-string
p4246
Vphp
p4247
sVtweets
p4248
Vtwitter
p4249
sVcontroller
p4250
Vruby-on-rails
p4251
sVandroid-sdcard
p4252
Vandroid
p4253
sVotp
p4254
NsVboost-graph
p4255
Vc++
p4256
sVxpages
p4257
Vxpages-extlib
p4258
sVgoogle-maps-android-api-2
p4259
NsVdvcs
p4260
Vmercurial
p4261
sVjquery-deferred
p4262
NsVhttp-status-code-500
p4263
NsVopenstreetmap
p4264
NsVdotnetzip
p4265
NsVsqlbulkcopy
p4266
Vc#
p4267
sVuiimageview
p4268
NsVsurface
p4269
Vwpf
p4270
sVjquery-events
p4271
NsVcapture
p4272
Vc#
p4273
sVqgraphicsscene
p4274
Vqt
p4275
sVmatcher
p4276
Vjava
p4277
sVclassnotfoundexception
p4278
Vjava
p4279
sVhttp
p4280
Vjava
p4281
sVvideo-streaming
p4282
NsVn-tier-architecture
p4283
Vc#
p4284
sVeffect
p4285
NsVspree
p4286
NsVpolymorphism
p4287
NsVreflection
p4288
Vc#
p4289
sVandroid-volley
p4290
NsVfluent-nhibernate-mapping
p4291
Vfluent-nhibernate
p4292
sVdraggable
p4293
Vjquery
p4294
sVcase-insensitive
p4295
NsVfacebook-comments
p4296
Vfacebook
p4297
sVweb-deployment
p4298
NsVrestore
p4299
NsVlotus-notes
p4300
NsVflyway
p4301
NsVlexical-analysis
p4302
NsVvirtual
p4303
Vc++
p4304
sVlow-level
p4305
g193
sVexception-handling
p4306
NsVextends
p4307
Vjava
p4308
sVfacebook-like
p4309
Vfacebook
p4310
sVapplication-server
p4311
Vjava
p4312
sVadodb
p4313
Vphp
p4314
sVravendb
p4315
Vc#
p4316
sVitemtemplate
p4317
NsVplsql
p4318
NsVemgucv
p4319
Vc#
p4320
sVonmouseover
p4321
Vjavascript
p4322
sVintersection
p4323
Vjava
p4324
sVuislider
p4325
NsVcountdowntimer
p4326
NsVxss
p4327
NsVcontrollers
p4328
Vruby-on-rails
p4329
sVxquery
p4330
Vxml
p4331
sVobjective-c-blocks
p4332
NsVservlet-filters
p4333
NsVmonotouch.dialog
p4334
NsVandroid-orientation
p4335
Vandroid
p4336
sVandroid-xml
p4337
Vandroid
p4338
sVportlet
p4339
NsVhome
p4340
Vandroid
p4341
sVborland
p4342
Vc++
p4343
sVinner-join
p4344
NsVgoogle-sites
p4345
Vgoogle-apps-script
p4346
sVkettle
p4347
NsVoverlap
p4348
NsVdjango-views
p4349
NsVjcrop
p4350
NsVbackground-color
p4351
NsVoffset
p4352
NsVjava
p4353
NsVboost-asio
p4354
NsVpaypal-subscriptions
p4355
NsVwindows-shell
p4356
Vwindows
p4357
sVfile-system
p4358
NsVh2
p4359
Vjava
p4360
sVnested-forms
p4361
NsVcocoa
p4362
Vobjective-c
p4363
sVdev-c++
p4364
Vc++
p4365
sVbson
p4366
Vmongodb
p4367
sVw3c
p4368
NsVnetworking
p4369
NsVembedded-linux
p4370
NsVprojects-and-solutions
p4371
NsVhistogram
p4372
g136
sVoverflow
p4373
Vcss
p4374
sVear
p4375
NsVconverter
p4376
Vc#
p4377
sVcells
p4378
NsVhosting
p4379
NsVsigned
p4380
NsVlimit
p4381
Vmysql
p4382
sVvoid-pointers
p4383
g161
sVdevise
p4384
NsVandroid-emulator
p4385
Vandroid
p4386
sVdatacontract
p4387
Vwcf
p4388
sValassetslibrary
p4389
NsVmod-wsgi
p4390
Vdjango
p4391
sVinotifypropertychanged
p4392
NsVmaster-detail
p4393
NsVmeteor
p4394
Vjavascript
p4395
sVxsd-validation
p4396
Vxsd
p4397
sVvtable
p4398
NsVjsni
p4399
Vgwt
p4400
sVssms
p4401
NsVslideshow
p4402
NsVcpu-usage
p4403
NsVbuffer-overflow
p4404
NsVwamp
p4405
NsVfeature-detection
p4406
Vopencv
p4407
sVsphinx
p4408
NsVusing
p4409
NsVantialiasing
p4410
Vfonts
p4411
sVblogs
p4412
Vwordpress
p4413
sVflex4.6
p4414
Vflex
p4415
sVpersistent
p4416
NsVflex4.5
p4417
Vflex
p4418
sVfile-type
p4419
Vphp
p4420
sVvalidation
p4421
NsVbcp
p4422
NsVsimilarity
p4423
NsVdynamic
p4424
Vc#
p4425
sVsparse-matrix
p4426
NsVbytecode
p4427
Vjava
p4428
sVgmaps4rails
p4429
Vruby-on-rails
p4430
sVswap
p4431
Vc++
p4432
sVendianness
p4433
g193
sVnew-operator
p4434
NsVsha256
p4435
Vhash
p4436
sVfieldset
p4437
NsVclojurescript
p4438
Vclojure
p4439
sVvoid
p4440
g161
sVmonodevelop
p4441
Vmono
p4442
sVspring-roo
p4443
NsVsmack
p4444
Vxmpp
p4445
sVupdates
p4446
NsVnamespaces
p4447
NsVvoip
p4448
Vsip
p4449
sVknockout-mapping-plugin
p4450
NsVsolution
p4451
Vvisual-studio
p4452
sVasp.net-mvc-partialview
p4453
NsVvector
p4454
Vc++
p4455
sVpartial-views
p4456
Vasp.net-mvc
p4457
sVvhdl
p4458
Vfpga
p4459
sVyacc
p4460
NsVvirtualization
p4461
Vvirtual-machine
p4462
sVpreferences
p4463
NsVnumberformat
p4464
NsVadhoc
p4465
NsVmetadata
p4466
Vc#
p4467
sVmef
p4468
Vc#
p4469
sVquirks-mode
p4470
NsVjavamail
p4471
NsVactive
p4472
NsVaxapta
p4473
NsVmex
p4474
Vmatlab
p4475
sVdry
p4476
NsVreactive-programming
p4477
Vsystem.reactive
p4478
sVindentation
p4479
NsVpack
p4480
Vphp
p4481
sVgroup-concat
p4482
Vmysql
p4483
sVxelement
p4484
NsVopengraph
p4485
Vfacebook
p4486
sVparameter-passing
p4487
NsVbyte
p4488
Vjava
p4489
sVlandscape
p4490
NsVcss-animations
p4491
Vcss3
p4492
sVhard-drive
p4493
NsVado.net-entity-data-model
p4494
Ventity-framework
p4495
sVfile-format
p4496
Vc++
p4497
sVcommon-lisp
p4498
NsVcall
p4499
NsVfastcgi
p4500
Vphp
p4501
sVnsscrollview
p4502
NsVcomposite
p4503
NsVnavigationcontroller
p4504
NsVlazarus
p4505
NsVvcard
p4506
Vandroid
p4507
sVcomputer-vision
p4508
Vopencv
p4509
sVsetup
p4510
NsVdoctype
p4511
Vhtml
p4512
sVjquery-mobile
p4513
NsVroot
p4514
NsVsocial-networking
p4515
NsVcursors
p4516
NsVosmdroid
p4517
NsVshapefile
p4518
g13
sVsharepoint
p4519
NsV.net-1.1
p4520
NsVline-breaks
p4521
Vphp
p4522
sVglobalization
p4523
Vc#
p4524
sVconfig
p4525
Vphp
p4526
sVehcache
p4527
Vjava
p4528
sVglassfish-3
p4529
NsVglassfish-4
p4530
NsVcode-behind
p4531
NsVethernet
p4532
NsVtime-complexity
p4533
NsVfifo
p4534
NsVkeyboard
p4535
Vandroid
p4536
sVnonblocking
p4537
Vsockets
p4538
sVerlang
p4539
Votp
p4540
sVonclick
p4541
Vjavascript
p4542
sVsemantic-markup
p4543
NsVdecorator
p4544
NsVaddclass
p4545
NsVinstanceof
p4546
NsVlinear-programming
p4547
NsVgrammar
p4548
NsVstate-machines
p4549
NsVsubquery
p4550
Vmysql
p4551
sVorbeon
p4552
Vxforms
p4553
sVmean
p4554
NsVfont-size
p4555
NsVadobe
p4556
Vflex
p4557
sVaidl
p4558
Vandroid
p4559
sVgridbaglayout
p4560
NsVmysql-python
p4561
Vpython
p4562
sVtcplistener
p4563
NsVextract
p4564
NsVfilesystemwatcher
p4565
NsVwhitespace
p4566
Vhtml
p4567
sVgradient
p4568
NsVcontent
p4569
Vjquery
p4570
sVoscommerce
p4571
NsVgenerics
p4572
NsVjbpm
p4573
NsVresume
p4574
Vandroid
p4575
sVlogging
p4576
Vjava
p4577
sVckeditor
p4578
Vjavascript
p4579
sVclient-server
p4580
Vjava
p4581
sVmessages
p4582
Vwindows
p4583
sViso
p4584
Vc++
p4585
sVsignature
p4586
NsVxul
p4587
Vfirefox-addon
p4588
sVadvanceddatagrid
p4589
Vflex
p4590
sVuser
p4591
Vphp
p4592
sVcore-motion
p4593
NsVhook
p4594
Vc++
p4595
sVneo4j
p4596
NsVxslt-2.0
p4597
Vxslt
p4598
sVicefaces
p4599
Vjsf
p4600
sVstruts
p4601
Vjava
p4602
sVtwisted
p4603
NsVvisual-studio-2008
p4604
NsVvisual-studio-2005
p4605
NsVnutch
p4606
Vsolr
p4607
sVlighttpd
p4608
Vphp
p4609
sVfile-permissions
p4610
Vphp
p4611
sVuinavigationbar
p4612
NsVdistance
p4613
NsVbiginteger
p4614
NsVkeyword
p4615
Vc#
p4616
sVstructures
p4617
NsVpagespeed
p4618
Vperformance
p4619
sVgae-datastore
p4620
Vgoogle-app-engine
p4621
sVdjango-south
p4622
NsVflex-lexer
p4623
Vbison
p4624
sVseek
p4625
NsVflowdocument
p4626
Vwpf
p4627
sVchess
p4628
NsVmicrosoft-metro
p4629
NsVnetworkstream
p4630
Vc#
p4631
sVpython-import
p4632
Vpython
p4633
sVuisearchbar
p4634
Vios
p4635
sVnoclassdeffounderror
p4636
Vjava
p4637
sVnewline
p4638
NsVpentaho
p4639
Vkettle
p4640
sViterate
p4641
NsVmany-to-one
p4642
Vhibernate
p4643
sVmstest
p4644
NsVdom
p4645
NsVdoc
p4646
NsValarm
p4647
NsVyahoo-pipes
p4648
NsVnpgsql
p4649
NsVpoints
p4650
NsVheap-memory
p4651
Vjava
p4652
sVdos
p4653
NsVdot
p4654
NsVsigsegv
p4655
Vc++
p4656
sVimmutability
p4657
Vjava
p4658
sVcancan
p4659
NsVsyntax
p4660
NsVvsts2008
p4661
NsVfont-face
p4662
Vcss
p4663
sVcreate-table
p4664
Vmysql
p4665
sVmembership-provider
p4666
NsVvisualforce
p4667
Vsalesforce
p4668
sVcross-platform
p4669
NsVcelery
p4670
Vpython
p4671
sVldap
p4672
Vactive-directory
p4673
sVfolder
p4674
Vfile
p4675
sVtiles
p4676
NsVkeyboard-events
p4677
Vjavascript
p4678
sVselecteditem
p4679
NsVstop
p4680
Vjquery
p4681
sVautolayout
p4682
NsVdatetimepicker
p4683
NsVcgrect
p4684
NsVpowershell-v3.0
p4685
NsVreload
p4686
Vjavascript
p4687
sVarchitecture
p4688
NsVnsthread
p4689
Vobjective-c
p4690
sVreference
p4691
Vc++
p4692
sVtesting
p4693
Vunit-testing
p4694
sVjquery-ui-tabs
p4695
Vjquery
p4696
sVweb-applications
p4697
NsVspring-batch
p4698
Vspring
p4699
sVenthought
p4700
NsVstatic-libraries
p4701
Vc++
p4702
sVsolr4
p4703
Vsolr
p4704
sVreddit
p4705
Vpython
p4706
sVaddsubview
p4707
NsVw3c-validation
p4708
Vhtml
p4709
sVteam-build
p4710
NsVloading
p4711
Vjquery
p4712
sVmodeling
p4713
Vuml
p4714
sVsolrj
p4715
NsVunc
p4716
NsVxforms
p4717
NsVhighcharts
p4718
Vjavascript
p4719
sVloader
p4720
NsVweb-parts
p4721
Vsharepoint
p4722
sVgoogle-glass
p4723
Vgoogle-gdk
p4724
sVdjango-template-tags
p4725
Vdjango
p4726
sVcodeigniter
p4727
NsVpatch
p4728
NsVpage-lifecycle
p4729
Vasp.net
p4730
sVhaxe
p4731
NsVhtml5-audio
p4732
NsVnumpy
p4733
Vpython
p4734
sVcode-formatting
p4735
Veclipse
p4736
sVwebsite
p4737
NsVonblur
p4738
NsVradio-group
p4739
NsVdismiss
p4740
Vios
p4741
sVremovechild
p4742
NsVmvc-mini-profiler
p4743
NsVsource-code
p4744
NsVnested-sets
p4745
NsVandroid-contentresolver
p4746
Vandroid
p4747
sVexception
p4748
Vjava
p4749
sVprivatekey
p4750
Vrsa
p4751
sVsetuptools
p4752
Vpython
p4753
sVipython-notebook
p4754
Vipython
p4755
sVanchor
p4756
Vhtml
p4757
sVspawn
p4758
NsVassociations
p4759
NsVip
p4760
Vnetworking
p4761
sVjoomla3.0
p4762
Vjoomla
p4763
sVsas
p4764
NsVil
p4765
Vc#
p4766
sVio
p4767
Vjava
p4768
sVmouse
p4769
NsVmako
p4770
NsVuistoryboard
p4771
Vios
p4772
sVmake
p4773
NsVstring-comparison
p4774
Vstring
p4775
sVextjs4
p4776
Vextjs
p4777
sVextjs3
p4778
Vextjs
p4779
sVgoogle-spreadsheet
p4780
NsVxbap
p4781
NsVradiobuttonlist
p4782
Vasp.net
p4783
sVireport
p4784
NsVunicorn
p4785
Vruby-on-rails
p4786
sVremote-desktop
p4787
Vwindows
p4788
sVxjc
p4789
Vjaxb
p4790
sVjstl
p4791
Vjsp
p4792
sVnullreferenceexception
p4793
NsVnlog
p4794
NsVakka
p4795
NsVasihttprequest
p4796
Viphone
p4797
sVbandwidth
p4798
Vnetworking
p4799
sVagile
p4800
NsVcharacter
p4801
NsVtuples
p4802
Vpython
p4803
sVsave
p4804
Vandroid
p4805
sVintuit-partner-platform
p4806
NsVstatic-members
p4807
NsVhttp-live-streaming
p4808
Vios
p4809
sVlinked-list
p4810
g161
sVbackground
p4811
NsVmomentjs
p4812
NsVclickable
p4813
Vandroid
p4814
sVhttpsession
p4815
Vjava
p4816
sVdaemon
p4817
NsVdrawrect
p4818
Vios
p4819
sVform-validation
p4820
Vjquery
p4821
sVstress-testing
p4822
Vload-testing
p4823
sVcentos
p4824
Vlinux
p4825
sVautowired
p4826
NsVpom.xml
p4827
Vmaven
p4828
sVconnection-string
p4829
Vc#
p4830
sVautofill
p4831
NsVtabbar
p4832
Viphone
p4833
sVhttpresponse
p4834
Vandroid
p4835
sVspring-aop
p4836
NsVshapes
p4837
Vc#
p4838
sVbigdecimal
p4839
NsVswfupload
p4840
NsVmidlet
p4841
NsVlocalhost
p4842
NsVservicestack
p4843
Vc#
p4844
sVburn
p4845
Vwix
p4846
sVsift
p4847
NsVsifr
p4848
NsVsuper
p4849
NsVcodedom
p4850
NsVpostgresql
p4851
Vsql
p4852
sVvb6-migration
p4853
NsVazure
p4854
Vc#
p4855
sVcommit
p4856
NsVsprites
p4857
NsVsugarcrm
p4858
Vphp
p4859
sVparsing
p4860
Vjava
p4861
sVdoctrine
p4862
NsVjena
p4863
NsVeditor
p4864
Vjavascript
p4865
sVhttpclient
p4866
Vjava
p4867
sVangularjs-service
p4868
Vangularjs
p4869
sVimageicon
p4870
NsVdelayed-job
p4871
Vruby-on-rails
p4872
sVpreg-match
p4873
Vphp
p4874
sVcomputational-geometry
p4875
NsVedge-detection
p4876
Vimage-processing
p4877
sVdisassembling
p4878
NsVstreaming
p4879
Vandroid
p4880
sVbounds
p4881
NsVcompiler-errors
p4882
NsVdelete
p4883
Vc++
p4884
sVcustom-post-type
p4885
NsVfacebook-insights
p4886
NsVrecommendation-engine
p4887
Vmahout
p4888
sVsticky
p4889
Vjquery
p4890
sVfloating
p4891
NsVexcel
p4892
NsVentity-framework-6
p4893
NsVentity-framework-5
p4894
NsVentity-framework-4
p4895
NsVsybase
p4896
Vsql
p4897
sVjinternalframe
p4898
NsVorchardcms-1.6
p4899
NsVmacports
p4900
Vosx
p4901
sVdidselectrowatindexpath
p4902
NsVmouselistener
p4903
Vjava
p4904
sVgetjson
p4905
Vjquery
p4906
sVandroid-contentprovider
p4907
Vandroid
p4908
sVslf4j
p4909
Vjava
p4910
sVvertex-shader
p4911
Vopengl
p4912
sVseparation-of-concerns
p4913
NsVempty-string
p4914
NsVmanaged
p4915
NsVtwitter-bootstrap
p4916
Vcss
p4917
sVskip
p4918
Vc#
p4919
sVthemes
p4920
NsVmanager
p4921
NsVinformix
p4922
Vsql
p4923
sVskin
p4924
Vflex
p4925
sVprimes
p4926
Valgorithm
p4927
sVmenubar
p4928
Vcss
p4929
sVcountdown
p4930
NsVfoursquare
p4931
NsVwix3.7
p4932
Vwix
p4933
sVsmartphone
p4934
NsVstring
p4935
Vjava
p4936
sVios6.1
p4937
NsVnsfetchedresultscontrolle
p4938
NsVx86-64
p4939
NsVserver-sent-events
p4940
Vjavascript
p4941
sVsubprocess
p4942
Vpython
p4943
sVms-access-2010
p4944
NsVjqgrid
p4945
NsVfreemarker
p4946
NsVfunction-pointers
p4947
Vc++
p4948
sVitem
p4949
NsVdiv
p4950
NsVround
p4951
Vphp
p4952
sVdir
p4953
Vphp
p4954
sVfont-awesome
p4955
NsVnsfilemanager
p4956
NsVerd
p4957
Vdatabase-design
p4958
sVmfmailcomposeviewcontroll
p4959
NsVreporting-services
p4960
NsVssis
p4961
Vsql-server
p4962
sVcomputer-architecture
p4963
Vassembly
p4964
sVerb
p4965
Vruby-on-rails
p4966
sVflexbox
p4967
Vcss
p4968
sVaptana3
p4969
NsVxcode4.6
p4970
NsVxcode4.5
p4971
NsVxcode4.3
p4972
NsVxcode4.2
p4973
NsVwait
p4974
NsVshift
p4975
NsVmulticast
p4976
NsVminecraft
p4977
NsVfpdf
p4978
NsVasp.net-web-api
p4979
Vc#
p4980
sVftpwebrequest
p4981
NsVjquery-select2
p4982
Vjquery
p4983
sVlicensing
p4984
NsVc-preprocessor
p4985
g193
sVmouseevent
p4986
Vjavascript
p4987
sVrecursive-query
p4988
NsVcustom-cell
p4989
NsVstylesheet
p4990
NsVdbpedia
p4991
NsVvisio
p4992
NsVencode
p4993
Vphp
p4994
sVcheckout
p4995
NsVandroid-activity
p4996
NsVdirectx-9
p4997
NsVsharing
p4998
NsVoop
p4999
Vphp
p5000
sVjlabel
p5001
Vjava
p5002
sVbluetooth-lowenergy
p5003
NsVnsmanagedobjectcontext
p5004
NsVurl-parameters
p5005
NsVtry-catch
p5006
Vjava
p5007
sVflv
p5008
NsVdjango-rest-framework
p5009
NsVranking
p5010
NsVagent
p5011
NsVsample
p5012
Vandroid
p5013
sVoracleforms
p5014
Voracle
p5015
sVc++11
p5016
NsVavcapturesession
p5017
NsVcode-efficiency
p5018
Vperformance
p5019
sVsimulink
p5020
NsVlandscape-portrait
p5021
Vandroid
p5022
sVping
p5023
Vnetworking
p5024
sVprovisioning
p5025
NsVcode-first-migrations
p5026
NsVforeach
p5027
Vphp
p5028
sVtile
p5029
Vjava
p5030
sVmap
p5031
NsVdesigner
p5032
Vc#
p5033
sVliferay-6
p5034
NsVmax
p5035
NsVmembership
p5036
Vasp.net
p5037
sVclang
p5038
Vc++
p5039
sVmessaging
p5040
NsVworkflow-foundation
p5041
NsVentity-framework
p5042
NsVaudio-recording
p5043
NsVq
p5044
NsVnsis
p5045
Vinstaller
p5046
sVswitch
p5047
NsVlookup-tables
p5048
NsVbuddypress
p5049
Vwordpress
p5050
sVgesture
p5051
Vandroid
p5052
sVdojo
p5053
Vjavascript
p5054
sVentity
p5055
Ventity-framework
p5056
sVgoogle-earth
p5057
Vkml
p5058
sVimage-rotation
p5059
Vandroid
p5060
sVmemory-allocation
p5061
NsVvirtual-functions
p5062
Vc++
p5063
sVmonitor
p5064
Vc#
p5065
sVpolicy
p5066
Vjava
p5067
sVflex3
p5068
Vflex
p5069
sVmain
p5070
NsVflex4
p5071
NsVjquery-chosen
p5072
Vjquery
p5073
sVfinance
p5074
g13
sVviews
p5075
Vdrupal
p5076
sVstdvector
p5077
NsVpopover
p5078
Vtwitter-bootstrap
p5079
sVfile-download
p5080
Vphp
p5081
sVsafari
p5082
NsVnhibernate-criteria
p5083
NsVosx-mavericks
p5084
NsVpseudo-element
p5085
Vcss
p5086
sVdirectories
p5087
NsVntlm
p5088
Vauthentication
p5089
sVgerrit
p5090
Vgit
p5091
sVadmob
p5092
Vandroid
p5093
sVcode-duplication
p5094
Vc#
p5095
sVmysql-workbench
p5096
NsVxls
p5097
NsVbinary-search
p5098
Valgorithm
p5099
sVecmascript-5
p5100
NsVvim-plugin
p5101
Vvim
p5102
sVgoogle-oauth
p5103
NsVconventions
p5104
Vjava
p5105
sVreportlab
p5106
NsVjsfiddle
p5107
Vjavascript
p5108
sVjackson
p5109
NsVmultiplayer
p5110
Vandroid
p5111
sVpoco
p5112
NsVnsoutlineview
p5113
Vcocoa
p5114
sVcode-first
p5115
NsVderived-class
p5116
NsVsensor
p5117
NsVgoto
p5118
NsVamazon-web-services
p5119
Vamazon-ec2
p5120
sVhistory.js
p5121
NsVajax
p5122
Vjquery
p5123
sVorm
p5124
NsVdatabase-administration
p5125
NsVphpexcel
p5126
NsVdirectory-structure
p5127
NsVvbscript
p5128
NsVtemplate-specialization
p5129
NsVurl-redirection
p5130
NsVrtsp
p5131
NsVpowerpoint-vba
p5132
NsVsounds
p5133
NsVoutputcache
p5134
Vasp.net
p5135
sVvsto
p5136
Vc#
p5137
sVservlet-3.0
p5138
NsVstruts2-jquery
p5139
NsVwcf-binding
p5140
NsVbroadcast
p5141
NsVxmppframework
p5142
NsVprotected
p5143
NsVzsh
p5144
NsVcore-text
p5145
Vios
p5146
sV2d-games
p5147
NsVios5.1
p5148
Vios
p5149
sVmatlab-guide
p5150
Vmatlab
p5151
sVimage-manipulation
p5152
NsVmechanize
p5153
NsVcassandra
p5154
Vnosql
p5155
sVfilereader
p5156
Vjavascript
p5157
sVbezier
p5158
NsVcordova-3
p5159
Vcordova
p5160
sVdouble-click
p5161
Vjavascript
p5162
sVperformance
p5163
Vjava
p5164
sVmodulus
p5165
Vmath
p5166
sVchannel
p5167
NsVwindowbuilder
p5168
Vjava
p5169
sVtrace
p5170
NsVartificial-intelligence
p5171
Vmachine-learning
p5172
sVazure-web-sites
p5173
NsVc99
p5174
NsVcorrelation
p5175
NsVlibsvm
p5176
NsVpair
p5177
NsVgeodjango
p5178
Vdjango
p5179
sVkendo-ui
p5180
NsVflat-file
p5181
NsVdurandal
p5182
Vknockout.js
p5183
sVwebbrowser-control
p5184
Vc#
p5185
sVjquery-hover
p5186
Vjquery
p5187
sVrating
p5188
NsVjquery-masonry
p5189
NsVshow
p5190
NsVandroid-menu
p5191
Vandroid
p5192
sVtridion-2011
p5193
Vtridion
p5194
sVc#-2.0
p5195
NsVmac-address
p5196
Vnetworking
p5197
sVnunit
p5198
Vc#
p5199
sVmanaged-bean
p5200
NsVget
p5201
Vphp
p5202
sVstring-concatenation
p5203
Vstring
p5204
sVbatch-processing
p5205
Vbatch-file
p5206
sVgeo
p5207
NsVgem
p5208
NsVpdf-generation
p5209
Vpdf
p5210
sVmedian
p5211
NsVxpages-ssjs
p5212
Vxpages
p5213
sVyield
p5214
NsVsummary
p5215
g13
sVwiki
p5216
NsVkernel
p5217
Vlinux
p5218
sVfullcalendar
p5219
Vjquery
p5220
sVrelative
p5221
NsVseam
p5222
Vjava
p5223
sVcalendar
p5224
Vjava
p5225
sVandroid-animation
p5226
NsVlabel
p5227
Vc#
p5228
sVxtext
p5229
NsVios-provisioning
p5230
Vios
p5231
sVfusioncharts
p5232
Vjavascript
p5233
sVuml-modeling
p5234
NsVplupload
p5235
Vjquery
p5236
sVgoogle-cloud-storage
p5237
Vgoogle-app-engine
p5238
sVparent
p5239
NsVparentheses
p5240
Vregex
p5241
sVmagento-1.4
p5242
Vmagento
p5243
sVmagento-1.5
p5244
NsVmagento-1.6
p5245
Vmagento
p5246
sVmagento-1.7
p5247
NsVaspect-ratio
p5248
Vandroid
p5249
sVphpmyadmin
p5250
NsVgooglebot
p5251
Vseo
p5252
sVfirewall
p5253
Vnetworking
p5254
sVfine-uploader
p5255
Vjavascript
p5256
sVandroid-scrollview
p5257
NsVgit-pull
p5258
NsVeventmachine
p5259
Vruby
p5260
sVopentk
p5261
NsVcancel
p5262
Vandroid
p5263
sVaccess-denied
p5264
NsVencryption
p5265
Vjava
p5266
sVadfs
p5267
NsV.net-2.0
p5268
NsVproduction
p5269
Vruby-on-rails
p5270
sVpsexec
p5271
Vbatch-file
p5272
sVuser-accounts
p5273
NsVvisual-web-developer
p5274
Vasp.net
p5275
sVtraversal
p5276
NsVbmp
p5277
Vimage
p5278
sVembedded-resource
p5279
Vc#
p5280
sVdeclaration
p5281
Vc++
p5282
sVbayesian
p5283
NsVencapsulation
p5284
NsVgoogle-chrome-app
p5285
Vgoogle-chrome
p5286
sVapi-design
p5287
Vapi
p5288
sVfluent-nhibernate
p5289
Vnhibernate
p5290
sVprofiler
p5291
NsVmargin
p5292
Vcss
p5293
sVcq5
p5294
NsVvisual-studio-express
p5295
Vc#
p5296
sVwordnet
p5297
NsVidisposable
p5298
Vc#
p5299
sVsaml
p5300
Vsingle-sign-on
p5301
sVgroup-by
p5302
NsVauthentication
p5303
NsVcode-analysis
p5304
Vc#
p5305
sVspeech
p5306
NsVarguments
p5307
NsVillegalstateexception
p5308
NsVocunit
p5309
Vunit-testing
p5310
sVthird-party
p5311
NsVhtml-encode
p5312
NsVemacs24
p5313
Vemacs
p5314
sVcakephp-2.0
p5315
NsVcakephp-2.1
p5316
NsVcakephp-2.3
p5317
NsVsql-server-express
p5318
Vsql-server
p5319
sVwatin
p5320
Vc#
p5321
sVmarkup
p5322
NsVwatir
p5323
Vruby
p5324
sVbottle
p5325
NsVtabwidget
p5326
Vandroid
p5327
sVjava-web-start
p5328
NsVapplicationcontext
p5329
Vspring
p5330
sVjquery-ui-datepicker
p5331
NsVmoney
p5332
NsVjdom
p5333
NsVsitecore
p5334
Vsitecore6
p5335
sVmarker
p5336
NsVdisplaytag
p5337
NsVautocad
p5338
NsVsfinae
p5339
Vc++
p5340
sVgoogle-docs-api
p5341
Vgoogle-docs
p5342
sVmoq
p5343
NsVone-to-many
p5344
NsVone-to-one
p5345
Vhibernate
p5346
sVgrid
p5347
NsVdatabase-schema
p5348
Vdatabase-design
p5349
sVcredentials
p5350
NsVweb2py
p5351
Vpython
p5352
sVavaudioplayer
p5353
NsVifstream
p5354
NsVanonymous-class
p5355
Vjava
p5356
sVunique-ptr
p5357
NsVnose
p5358
Vpython
p5359
sVnsimage
p5360
Vcocoa
p5361
sVfatal-error
p5362
NsVerase
p5363
NsVmatching
p5364
NsVconfirm
p5365
NsVkml
p5366
Vgoogle-maps
p5367
sVinject
p5368
Vruby
p5369
sVandroid-imageview
p5370
NsVspell-checking
p5371
Vc#
p5372
sVcql
p5373
Vcassandra
p5374
sVxna
p5375
NsVandroid-2.3
p5376
Vandroid
p5377
sVandroid-2.2
p5378
Vandroid
p5379
sVdetailsview
p5380
NsVproduction-environment
p5381
NsVimage-gallery
p5382
NsVfloating-accuracy
p5383
Vfloating-point
p5384
sVxml-validation
p5385
NsVmingw32
p5386
Vc++
p5387
sVstyling
p5388
NsVdecode
p5389
NsVlaravel-3
p5390
Vlaravel
p5391
sVlaravel-4
p5392
Vlaravel
p5393
sVipv6
p5394
Vipv4
p5395
sVcluster-computing
p5396
Vjava
p5397
sVsvn
p5398
NsVshoutcast
p5399
NsVcom-interop
p5400
Vc#
p5401
sVandroid-logcat
p5402
NsVconditional-operator
p5403
Vc#
p5404
sVself-join
p5405
NsVgorm
p5406
NsVsystem.data.sqlite
p5407
Vsqlite
p5408
sVembed
p5409
NsVdeadlock
p5410
Vmultithreading
p5411
sVmoles
p5412
Vunit-testing
p5413
sVnstextfield
p5414
NsVfile
p5415
NsVfacebook-javascript-sdk
p5416
NsVfill
p5417
NsVdrivers
p5418
NsVjpanel
p5419
Vjava
p5420
sVfield
p5421
Vforms
p5422
sVprism
p5423
NsVutf-8
p5424
NsVopacity
p5425
Vcss
p5426
sVdrawimage
p5427
NsVwindows-authentication
p5428
NsVvertex
p5429
Vopengl
p5430
sVansi
p5431
NsVdjango-cms
p5432
Vdjango
p5433
sVunit-of-work
p5434
Vrepository-pattern
p5435
sVdropbox
p5436
NsVstr-replace
p5437
Vphp
p5438
sVconcat
p5439
NsVassets
p5440
Vandroid
p5441
sVnetlogo
p5442
Vsimulation
p5443
sVextjs-mvc
p5444
Vextjs
p5445
sVresolution
p5446
NsVreverse-proxy
p5447
NsVtibco
p5448
NsVduplicates
p5449
NsVdrag-and-drop
p5450
Vjquery
p5451
sVapplication-pool
p5452
NsVfixtures
p5453
NsVchildren
p5454
NsVsystem.reflection
p5455
NsVplesk
p5456
Vphp
p5457
sVwsh
p5458
Vvbscript
p5459
sVjrubyonrails
p5460
NsVnsbundle
p5461
Vios
p5462
sVwss
p5463
NsVstderr
p5464
NsVnsobject
p5465
NsVgoogle-maps-api-3
p5466
NsVstripe-payments
p5467
Vruby-on-rails
p5468
sVbeagleboard
p5469
NsVzero
p5470
NsVurbanairship.com
p5471
NsVperspective
p5472
NsVplugins
p5473
Vjquery
p5474
sVpyodbc
p5475
Vpython
p5476
sVribbon
p5477
NsVcentering
p5478
Vcss
p5479
sVbrackets
p5480
Vphp
p5481
sVflash-builder
p5482
Vflex
p5483
sVpublic
p5484
NsVmovement
p5485
NsVvala
p5486
Vgtk
p5487
sVmule
p5488
Vmule-studio
p5489
sVfirebase
p5490
Vangularjs
p5491
sVmkannotation
p5492
NsVdirectshow
p5493
NsVjax-ws
p5494
Vjava
p5495
sVhtml-agility-pack
p5496
Vc#
p5497
sVeclipse-plugin
p5498
Veclipse
p5499
sVoledbconnection
p5500
NsVamazon-rds
p5501
NsVjruby
p5502
Vruby
p5503
sVfactory-pattern
p5504
Vdesign-patterns
p5505
sVcalculated-columns
p5506
NsVpretty-print
p5507
Vpython
p5508
sVremember-me
p5509
Vspring-security
p5510
sVlinear-algebra
p5511
NsVcomposite-primary-key
p5512
Vmysql
p5513
sVandroid-source
p5514
Vandroid
p5515
sVinterface-builder
p5516
Viphone
p5517
sVdistinct
p5518
NsVmicrosoft-dynamics
p5519
NsVface-detection
p5520
NsVlogcat
p5521
Vandroid
p5522
sVandroid-service
p5523
Vandroid
p5524
sVmozilla
p5525
Vjavascript
p5526
sVactionlistener
p5527
NsVjsonp
p5528
NsVandroid-broadcast
p5529
NsVopengl-es
p5530
Vandroid
p5531
sVpsql
p5532
NsVjdo
p5533
NsVsalesforce
p5534
NsVjdk
p5535
NsVdes
p5536
Vencryption
p5537
sVparagraph
p5538
Vhtml
p5539
sVopenssh
p5540
NsVjdt
p5541
NsVtail-recursion
p5542
Vrecursion
p5543
sVcompare
p5544
Vjava
p5545
sVsynchronized
p5546
Vjava
p5547
sVshare
p5548
NsVcollision
p5549
Vjava
p5550
sVminimum
p5551
Vmax
p5552
sVnumbers
p5553
Vjava
p5554
sVjackrabbit
p5555
NsVcsh
p5556
NsVwindows-media-player
p5557
Vc#
p5558
sVmapi
p5559
Voutlook
p5560
sVmaps
p5561
Vandroid
p5562
sVweb-controls
p5563
NsVmutable
p5564
Vimmutability
p5565
sVcsv
p5566
NsVcss
p5567
NsVconnectivity
p5568
Vandroid
p5569
sVmariadb
p5570
Vmysql
p5571
sVresponse
p5572
NsVpattern-matching
p5573
Vregex
p5574
sVonresume
p5575
NsVentry
p5576
NsVscrollto
p5577
NsVk-means
p5578
NsViis-express
p5579
NsVfacebook
p5580
Vfacebook-graph-api
p5581
sVnltk
p5582
Vpython
p5583
sVautoload
p5584
Vphp
p5585
sVproducer-consumer
p5586
NsVapt-get
p5587
NsVforms-authentication
p5588
Vasp.net
p5589
sVmongodb-query
p5590
Vmongodb
p5591
sVasp.net-routing
p5592
NsVcombobox
p5593
Vc#
p5594
sVuitapgesturerecognizer
p5595
Vios
p5596
sVcontinuations
p5597
NsVpcm
p5598
Vaudio
p5599
sVviewstate
p5600
Vasp.net
p5601
sVplayframework
p5602
Vjava
p5603
sVtimestamp
p5604
Vphp
p5605
sVframelayout
p5606
NsVcgcontext
p5607
Vios
p5608
sV2d
p5609
NsVtoken
p5610
Vphp
p5611
sVgoogle-search-api
p5612
Vgoogle-search
p5613
sVwindow.open
p5614
NsVjmeter
p5615
NsVlaunchd
p5616
NsVstored-procedures
p5617
NsVfunctor
p5618
NsVcore-plot
p5619
Vios
p5620
sVconnect
p5621
NsVnewrelic
p5622
Vruby-on-rails
p5623
sVsencha
p5624
Vjavascript
p5625
sVtwitter4j
p5626
Vtwitter
p5627
sVsqlcommand
p5628
NsVdotnetnuke
p5629
NsVandroid-pendingintent
p5630
Vandroid
p5631
sVforeground
p5632
NsVcore-animation
p5633
Vios
p5634
sVsbt
p5635
NsVhashset
p5636
Vjava
p5637
sVnscalendar
p5638
Vnsdate
p5639
sVmms
p5640
NsVlinq-to-objects
p5641
NsVgdal
p5642
Vpython
p5643
sVdiv-layouts
p5644
Vcss
p5645
sVyoutube-javascript-api
p5646
NsVwebforms
p5647
Vasp.net
p5648
sVwindows-runtime
p5649
NsVjogl
p5650
NsVdylib
p5651
NsVinternal-server-error
p5652
NsVrazor
p5653
Vasp.net-mvc
p5654
sVwss-3.0
p5655
NsVmamp
p5656
Vphp
p5657
sVjetty
p5658
Vjava
p5659
sVpaint
p5660
Vjava
p5661
sVstatement
p5662
NsVjquery-validation-engine
p5663
NsVnsjsonserialization
p5664
NsVjsonarray
p5665
Vjson
p5666
sVcross-browser
p5667
NsVselector
p5668
Vjquery
p5669
sVbubble-sort
p5670
Vsorting
p5671
sVrecording
p5672
NsVuiapplicationdelegate
p5673
Vios
p5674
sVinteractive
p5675
Vpython
p5676
sVdebugging
p5677
Vc++
p5678
sVfavicon
p5679
NsVsmart-pointers
p5680
Vc++
p5681
sVmonodroid
p5682
NsVvisual-c++-2010
p5683
Vc++
p5684
sVencryption-symmetric
p5685
NsVteechart
p5686
NsVjquery-datatables
p5687
Vjquery
p5688
sVopenshift
p5689
Vjava
p5690
sVfolders
p5691
Vfile
p5692
sVvnc
p5693
Vvnc-server
p5694
sVlinq-to-xml
p5695
NsVcygwin
p5696
Vwindows
p5697
sVmoss
p5698
NsVsharding
p5699
Vmongodb
p5700
sVqthread
p5701
NsVkey-value
p5702
Varrays
p5703
sVandroid-canvas
p5704
Vandroid
p5705
sVhttphandler
p5706
NsVgoogle-tv
p5707
NsVnode.js
p5708
Vjavascript
p5709
sVblueimp
p5710
Vjquery
p5711
sVrelation
p5712
Vdatabase
p5713
sVnetworkx
p5714
NsVfind
p5715
NsVbacktracking
p5716
NsVjsch
p5717
Vjava
p5718
sVbase-class
p5719
Vc++
p5720
sVdistributed
p5721
NsVbackbone-events
p5722
Vbackbone.js
p5723
sVasp.net-ajax
p5724
Vasp.net
p5725
sVemail-client
p5726
NsVtouchscreen
p5727
Vandroid
p5728
sVnotation
p5729
Vjava
p5730
sVsubsonic3
p5731
Vsubsonic
p5732
sVexpress
p5733
Vnode.js
p5734
sVopensuse
p5735
Vlinux
p5736
sVandroid-loadermanager
p5737
NsVrestart
p5738
Vandroid
p5739
sVcontinuous-integration
p5740
NsVandroid-tabs
p5741
NsVmultilanguage
p5742
Vphp
p5743
sVphp-fpm
p5744
Vnginx
p5745
sVgit-push
p5746
NsVuser-interface
p5747
Vjava
p5748
sVmove-semantics
p5749
NsVeclipse-juno
p5750
NsVgithooks
p5751
NsVuibutton
p5752
NsVms-access
p5753
NsVpopup
p5754
NsVzedgraph
p5755
NsVcustom-attributes
p5756
Vc#
p5757
sVmoodle
p5758
NsVdesign-time
p5759
NsVipython
p5760
NsVosx-snow-leopard
p5761
Vosx
p5762
sVreverse
p5763
NsVif-statement
p5764
Vphp
p5765
sVwebrick
p5766
NsVsilverlight-2.0
p5767
NsVpoint
p5768
Vjava
p5769
sVshutdown
p5770
Vjava
p5771
sVfuelphp
p5772
NsVbackend
p5773
Vfrontend
p5774
sVtestflight
p5775
NsVsingly-linked-list
p5776
Vlinked-list
p5777
sVexternalinterface
p5778
NsVasp.net-mvc-routing
p5779
Vasp.net-mvc
p5780
sVdata-binding
p5781
Vwpf
p5782
sVncurses
p5783
NsVstandard-library
p5784
NsVgac
p5785
NsVcomparator
p5786
Vjava
p5787
sVcss-transform
p5788
NsVdeferred
p5789
Vjquery
p5790
sVblackberry-cascades
p5791
Vblackberry-10
p5792
sVclearcase
p5793
NsVaccountmanager
p5794
NsVvisual-sourcesafe
p5795
Vversion-control
p5796
sVfacelets
p5797
Vjsf
p5798
sVpython-imaging-library
p5799
Vpython
p5800
sVuitableview
p5801
Vios
p5802
sVjquery-accordion
p5803
NsVhtml-entities
p5804
Vphp
p5805
sVupdatepanel
p5806
NsVpagemethods
p5807
NsVwebgl
p5808
Vthree.js
p5809
sVphonegap-plugins
p5810
NsVgoogle-visualization
p5811
NsVgeoserver
p5812
Vopenlayers
p5813
sVews
p5814
NsVext.net
p5815
Vasp.net
p5816
sVpasswords
p5817
NsVdereference
p5818
NsVflurry
p5819
NsVaggregate
p5820
g13
sVscreen-capture
p5821
Vc#
p5822
sVandroid-softkeyboard
p5823
Vandroid
p5824
sVtask
p5825
Vc#
p5826
sVmemoization
p5827
NsVworkflow-activity
p5828
Vworkflow-foundation-4
p5829
sVflags
p5830
Vc#
p5831
sVorganization
p5832
Vphp
p5833
sVdistutils
p5834
Vpython
p5835
sVantlr
p5836
NsVshape
p5837
Vandroid
p5838
sVatomic
p5839
Vc++
p5840
sVphpbb
p5841
NsVopenstack
p5842
Vopenstack-nova
p5843
sValignment
p5844
Vcss
p5845
sVcut
p5846
Vbash
p5847
sVkeyevent
p5848
Vjava
p5849
sVreturn-type
p5850
NsVrestructuredtext
p5851
NsVkinect
p5852
Vc#
p5853
sVsource
p5854
Vandroid
p5855
sVrgb
p5856
Vcolors
p5857
sVexecutorservice
p5858
NsVxcodebuild
p5859
Vxcode
p5860
sVvarchar
p5861
NsVjcomponent
p5862
Vjava
p5863
sVspring-data-neo4j
p5864
Vneo4j
p5865
sVuiviewanimation
p5866
NsVbit
p5867
NsVreusability
p5868
Vandroid
p5869
sVsql-server-2012
p5870
Vsql-server
p5871
sVsurfaceview
p5872
Vandroid
p5873
sVautorotate
p5874
NsVmapkit
p5875
NsVbamboo
p5876
NsVbranching-and-merging
p5877
Vgit
p5878
sVclass-diagram
p5879
Vuml
p5880
sVdllimport
p5881
Vc#
p5882
sVback
p5883
Vandroid
p5884
sVdelegation
p5885
Vobjective-c
p5886
sVsimple-form
p5887
Vruby-on-rails
p5888
sVapc
p5889
Vphp
p5890
sVimageview
p5891
NsVsizeof
p5892
g161
sVuipagecontrol
p5893
NsVnsurlconnection
p5894
NsVscale
p5895
NsVscala
p5896
Vjava
p5897
sVsaas
p5898
NsVintegration
p5899
Vjava
p5900
sVrobotium
p5901
Vandroid
p5902
sVellipsis
p5903
Vcss
p5904
sVnotepad++
p5905
Vregex
p5906
sVexport-to-excel
p5907
Vexcel
p5908
sVgit-submodules
p5909
NsVcastle-windsor
p5910
NsVfacebook-fanpage
p5911
NsVwsdl
p5912
NsVreadability
p5913
Vc#
p5914
sVusb
p5915
Vandroid
p5916
sVhudson
p5917
NsVtiff
p5918
Vc#
p5919
sVframes
p5920
NsVbindingsource
p5921
Vc#
p5922
sVfindcontrol
p5923
NsVhudson-plugins
p5924
Vhudson
p5925
sVopenerp
p5926
Vpython
p5927
sVdynamics-ax-2009
p5928
NsVforward
p5929
Vredirect
p5930
sVtranslate
p5931
Vandroid
p5932
sVc#-5.0
p5933
NsVnavigation-drawer
p5934
Vandroid
p5935
sVswingworker
p5936
NsVsdl
p5937
NsVsdk
p5938
NsVgroovy
p5939
Vgrails
p5940
sVgstreamer
p5941
NsVjavascript-objects
p5942
NsVlabview
p5943
Vc#
p5944
sVrubymotion
p5945
Vios
p5946
sVquickfix
p5947
Vfix
p5948
sVbusiness-intelligence
p5949
Vssas
p5950
sVoauth-2.0
p5951
NsVcurl
p5952
Vphp
p5953
sVuser-experience
p5954
Vuser-interface
p5955
sVcmake
p5956
NsVigraph
p5957
NsVslick2d
p5958
NsVllvm
p5959
NsVillegalargumentexception
p5960
NsVvisibility
p5961
Vandroid
p5962
sVdrupal-views
p5963
Vdrupal
p5964
sVsudoku
p5965
Vjava
p5966
sVntfs
p5967
Vwindows
p5968
sVsystem-calls
p5969
g193
sVcreatefile
p5970
Vwinapi
p5971
sVsftp
p5972
Vftp
p5973
sVnaming-conventions
p5974
NsVxstream
p5975
Vjava
p5976
sVhittest
p5977
Vactionscript-3
p5978
sVpattern-recognition
p5979
Vimage-processing
p5980
sVnsxmlparser
p5981
Viphone
p5982
sVjava-2d
p5983
Vjava
p5984
sVasp.net-identity
p5985
NsVkeep-alive
p5986
Vhttp
p5987
sVdatabase-migration
p5988
NsVtree-traversal
p5989
Vtree
p5990
sVcss3pie
p5991
NsVistream
p5992
Vc++
p5993
sVlabels
p5994
NsVvlc
p5995
NsVlocal-storage
p5996
NsVloadlibrary
p5997
NsVversioning
p5998
NsVelisp
p5999
Vemacs
p6000
sVcrop
p6001
Vimage
p6002
sVcron
p6003
Vphp
p6004
sVsmlnj
p6005
Vsml
p6006
sVinsertion
p6007
Vsorting
p6008
sVappend
p6009
Vjquery
p6010
sVappendchild
p6011
Vjavascript
p6012
sVd2
p6013
Vd
p6014
sVpipes
p6015
NsVjboss
p6016
Vjava
p6017
sVuser-controls
p6018
NsVclipboard
p6019
NsVmathjax
p6020
Vjavascript
p6021
sVcordova
p6022
NsVmagento-admin
p6023
NsVbinary-search-tree
p6024
Vc++
p6025
sVtext-files
p6026
Vc#
p6027
sVxml-deserialization
p6028
Vc#
p6029
sVspacing
p6030
NsVimplicit
p6031
NsVc++-cli
p6032
Vc++
p6033
sVdoctrine2
p6034
Vsymfony2
p6035
sVcomposite-key
p6036
Vhibernate
p6037
sVuicollectionview
p6038
Vios
p6039
sVxdocument
p6040
NsVnsoperation
p6041
NsVtalend
p6042
Vjava
p6043
sVphone-number
p6044
Vandroid
p6045
sVprivate
p6046
Vc++
p6047
sVnth-child
p6048
Vcss
p6049
sVnames
p6050
g13
sVgateway
p6051
NsVprogress-4gl
p6052
NsVchm
p6053
Vc#
p6054
sVpowershell-remoting
p6055
Vpowershell
p6056
sViis
p6057
NsVcakephp-1.3
p6058
Vcakephp
p6059
sVcakephp-1.2
p6060
Vcakephp
p6061
sVsetup.py
p6062
Vpython
p6063
sVsubscription
p6064
NsVaccount
p6065
NsVopenjdk
p6066
Vjava
p6067
sVfetch
p6068
Vphp
p6069
sVunobtrusive-validation
p6070
Vasp.net-mvc-3
p6071
sVsqlite
p6072
Vandroid
p6073
sVparser-generator
p6074
Vparsing
p6075
sVnative
p6076
NsVgcc
p6077
NsVfilepath
p6078
Vjava
p6079
sVboxing
p6080
NsVgcm
p6081
NsVprestashop
p6082
Vphp
p6083
sVlamp
p6084
NsVattachment
p6085
NsVuinavigationcontroller
p6086
NsVprofile
p6087
Vasp.net
p6088
sVjquery-ui-sortable
p6089
Vjquery
p6090
sVgoogle-drive-sdk
p6091
Vgoogle-drive
p6092
sVmultiplication
p6093
NsVbind
p6094
NsVbing
p6095
NsVlines
p6096
NsVgitolite
p6097
NsVmustache
p6098
Vjavascript
p6099
sVjira
p6100
NsVdoctrine-1.2
p6101
Vdoctrine
p6102
sVsymbols
p6103
Vc++
p6104
sVhbase
p6105
Vhadoop
p6106
sVgalaxy
p6107
Vandroid
p6108
sVld
p6109
Vgcc
p6110
sVtext-parsing
p6111
Vparsing
p6112
sVls
p6113
Vbash
p6114
sVandroid-fragmentactivity
p6115
Vandroid
p6116
sVyeoman
p6117
Vgruntjs
p6118
sVcode-signing
p6119
NsVdomdocument
p6120
Vphp
p6121
sVdao
p6122
NsVautorelease
p6123
Vobjective-c
p6124
sVactionbarsherlock
p6125
Vandroid
p6126
sVjsf-1.2
p6127
Vjsf
p6128
sVdbus
p6129
Vpython
p6130
sVscrollbar
p6131
Vcss
p6132
sVpolymorphic-associations
p6133
Vruby-on-rails
p6134
sVidentifier
p6135
NsVjquery-file-upload
p6136
NsValphablending
p6137
NsVdatabase-project
p6138
NsVstrip
p6139
NsVmsdn
p6140
NsVflex-mobile
p6141
Vflex
p6142
sVopenni
p6143
NsVdatabase-partitioning
p6144
NsVssas
p6145
Vmdx
p6146
sVstub
p6147
Vrspec
p6148
sVspring-mvc
p6149
Vspring
p6150
sVref
p6151
Vc#
p6152
sVmath
p6153
NsVsafari-extension
p6154
Vsafari
p6155
sVworkflow
p6156
Vsharepoint
p6157
sV.net-assembly
p6158
NsVtrigger.io
p6159
NsVwcf-web-api
p6160
Vwcf
p6161
sVfirefox-addon
p6162
NsVlaravel
p6163
Vphp
p6164
sVinteraction
p6165
NsVindent
p6166
NsVmidi
p6167
NsVnavbar
p6168
NsVsms-gateway
p6169
NsVcname
p6170
NsVelasticsearch
p6171
Vtire
p6172
sVzend-form
p6173
Vzend-framework
p6174
sVretain
p6175
Vobjective-c
p6176
sVmidp
p6177
NsVjcheckbox
p6178
Vjava
p6179
sVsencha-touch-2
p6180
Vsencha-touch
p6181
sVkeyboard-shortcuts
p6182
NsVsmartcard
p6183
NsVandroid-view
p6184
Vandroid
p6185
sVhtml5boilerplate
p6186
NsVpuppet
p6187
NsVsockets
p6188
NsVright-click
p6189
NsVepplus
p6190
Vc#
p6191
sVscanf
p6192
g161
sVibaction
p6193
Vios
p6194
sVcarrierwave
p6195
NsVmybatis
p6196
Vjava
p6197
sVwebdeploy
p6198
NsVipv4
p6199
Vipv6
p6200
sVflume
p6201
Vhadoop
p6202
sVudp
p6203
NsVmemorystream
p6204
NsVdynamic-programming
p6205
Valgorithm
p6206
sVperforce
p6207
NsVcomposite-component
p6208
NsVjndi
p6209
NsVstrongly-typed-dataset
p6210
Vc#
p6211
sVlinkbutton
p6212
NsVwhile-loop
p6213
NsVtextfield
p6214
NsVandroid-gridview
p6215
NsVipad
p6216
NsVnetwork-programming
p6217
Vsockets
p6218
sVpointers
p6219
Vc++
p6220
sVphp-mail
p6221
NsVcompass-css
p6222
NsVvirtual-directory
p6223
Viis
p6224
sVplaintext
p6225
Vphp
p6226
sVexcel-vba
p6227
Vexcel
p6228
sVparamiko
p6229
NsVtemplate-engine
p6230
NsVmin
p6231
NsVuisplitviewcontroller
p6232
NsVgravity
p6233
Vandroid
p6234
sVworksheet-function
p6235
NsVjaas
p6236
Vjava
p6237
sVmod-python
p6238
NsVwpfdatagrid
p6239
NsVspecflow
p6240
NsVoozie
p6241
NsVpayment
p6242
Vpaypal
p6243
sVbaseadapter
p6244
Vandroid
p6245
sVrequest
p6246
NsVreachability
p6247
Vios
p6248
sVworkspace
p6249
Veclipse
p6250
sVdllexport
p6251
NsVselection
p6252
NsVbrute-force
p6253
NsVpolynomial-math
p6254
Vmath
p6255
sVtext
p6256
NsVsetter
p6257
Vgetter
p6258
sVserial-port
p6259
NsVxmlwriter
p6260
NsVcontrols
p6261
NsVhttp-redirect
p6262
Vredirect
p6263
sVksh
p6264
NsVuitabbar
p6265
Vios
p6266
sVjquery-ui-droppable
p6267
Vjquery
p6268
sVcsrf
p6269
Vsecurity
p6270
sVtiming
p6271
Vjavascript
p6272
sVnetsuite
p6273
Vphp
p6274
sVlotus-domino
p6275
NsVfixed
p6276
Vcss
p6277
sVdreamhost
p6278
Vruby-on-rails
p6279
sVexists
p6280
NsVdatalist
p6281
NsVsubreport
p6282
NsVracket
p6283
Vscheme
p6284
sVjni
p6285
NsVuialertview
p6286
NsVxcode3.2
p6287
Vxcode
p6288
sVsoapui
p6289
Vsoap
p6290
sVprogress
p6291
NsVad-hoc-distribution
p6292
Vios
p6293
sVjquery-ui-accordion
p6294
NsVcmd.exe
p6295
NsVtranspose
p6296
NsVtkinter
p6297
Vpython
p6298
sVwpftoolkit
p6299
Vwpf
p6300
sVioexception
p6301
Vjava
p6302
sVattributes
p6303
Vc#
p6304
sVssrs-reports
p6305
Vssrs-2008
p6306
sVgnu-screen
p6307
NsVphonegap-build
p6308
NsVwebsphere-mq
p6309
Vjava
p6310
sVcompile-time
p6311
NsVscientific-computing
p6312
Vpython
p6313
sVrdbms
p6314
Vdatabase
p6315
sVjson
p6316
Vjavascript
p6317
sVhttpconnection
p6318
Vjava
p6319
sVuidatepicker
p6320
NsVlistboxitem
p6321
NsVevent-bubbling
p6322
Vjquery
p6323
sVpicturebox
p6324
NsVassert
p6325
NsVnested-loops
p6326
NsVcypher
p6327
NsVfault
p6328
Vwcf
p6329
sVboost-serialization
p6330
NsVintellisense
p6331
NsVdatacontext
p6332
NsVcherrypy
p6333
NsVsquid
p6334
Vproxy
p6335
sVlinkedin
p6336
NsVarabic
p6337
Vandroid
p6338
sVregression
p6339
NsVcjk
p6340
Vunicode
p6341
sVproductivity
p6342
Vvisual-studio
p6343
sVjsf-2.2
p6344
Vjsf
p6345
sVadministration
p6346
NsVremote-server
p6347
Vphp
p6348
sVgoogle-adwords
p6349
NsVmousewheel
p6350
NsVmyfaces
p6351
NsVreporting
p6352
NsVcode-organization
p6353
NsVdealloc
p6354
Vobjective-c
p6355
sVjboss-arquillian
p6356
NsVsetcookie
p6357
NsVcodemirror
p6358
Vjavascript
p6359
sVcenter
p6360
Vcss
p6361
sVbuilder
p6362
Vflash
p6363
sVposition
p6364
NsVparallel-processing
p6365
Vmultithreading
p6366
sVwsimport
p6367
NsVsubtraction
p6368
NsVmultiple-tables
p6369
Vmysql
p6370
sVproximity
p6371
NsVunordered-map
p6372
NsVabap
p6373
NsVtoggleclass
p6374
NsVxml-serialization
p6375
Vc#
p6376
sVwmi-query
p6377
NsVintrospection
p6378
Vpython
p6379
sVadt
p6380
NsVads
p6381
Vandroid
p6382
sVpython-module
p6383
Vpython
p6384
sVadf
p6385
NsVadd
p6386
NsVadb
p6387
NsVada
p6388
NsVado
p6389
NsVgmp
p6390
Vc++
p6391
sVvisual-studio-lightswitch
p6392
Vc#
p6393
sVmatch
p6394
NsVc#-3.0
p6395
NsVandroid-location
p6396
NsVmessage-queue
p6397
NsVtouch-event
p6398
Vandroid
p6399
sVdeployment
p6400
Vjava
p6401
sVinsert
p6402
Vmysql
p6403
sVlike
p6404
Vfacebook
p6405
sVpayment-processing
p6406
Vpayment-gateway
p6407
sVmobile-phones
p6408
NsVboost-spirit
p6409
NsVandroid-mapview
p6410
NsVcrawler
p6411
NsVpropel
p6412
NsVmschart
p6413
Vc#
p6414
sVpolyline
p6415
NsVrubymine
p6416
NsVboost-thread
p6417
NsVpaypal-adaptive-payments
p6418
NsVcllocation
p6419
NsVhighlighting
p6420
NsVstatic-variables
p6421
Vc++
p6422
sVesb
p6423
Vwso2
p6424
sVfacebook-login
p6425
Vfacebook
p6426
sVtimertask
p6427
NsVmode
p6428
Vandroid
p6429
sVat-command
p6430
Vgsm
p6431
sVnoise
p6432
NsVbar-chart
p6433
g136
sVhost
p6434
NsVpanel
p6435
Vc#
p6436
sVdatareader
p6437
Vc#
p6438
sVglade
p6439
NsVguice
p6440
NsVpowerpoint
p6441
NsVfacebook-oauth
p6442
Vfacebook
p6443
sVsocks
p6444
Vproxy
p6445
sVdataset
p6446
Vc#
p6447
sVguard
p6448
NsVrenderer
p6449
Vjava
p6450
sVrcp
p6451
NsVandroid-spinner
p6452
NsVglib
p6453
NsVrepeater
p6454
Vasp.net
p6455
sVsequel
p6456
Vruby
p6457
sVpy.test
p6458
Vpython
p6459
sVantlr3
p6460
NsVantlr4
p6461
NsVoauth
p6462
Vphp
p6463
sVediting
p6464
NsVscrollable
p6465
Vjquery
p6466
sVweb-scraping
p6467
NsVvariadic-templates
p6468
NsVlync
p6469
NsVflip
p6470
Vjquery
p6471
sVstring-parsing
p6472
Vstring
p6473
sVblackberry-10
p6474
NsVdatepicker
p6475
NsVandroid-tabhost
p6476
Vandroid
p6477
sVinternals
p6478
NsVpid
p6479
NsVpig
p6480
NsVmime-types
p6481
NsVpip
p6482
NsVupnp
p6483
Vdlna
p6484
sVresharper
p6485
NsVretina-display
p6486
NsVsubsonic
p6487
Vsubsonic3
p6488
sVspring-ws
p6489
Vjava
p6490
sVbundle
p6491
Vandroid
p6492
sVinputstream
p6493
NsVreadline
p6494
NsVbing-maps
p6495
NsVextjs
p6496
Vjavascript
p6497
sVstatusbar
p6498
NsVsharepoint-designer
p6499
NsVpythonpath
p6500
NsVfloating-point-precision
p6501
Vfloating-point
p6502
sVweb-browser
p6503
Vc#
p6504
sVnsdate
p6505
Vobjective-c
p6506
sVsleep
p6507
NsVnsdata
p6508
Vios
p6509
sVios4.3
p6510
NsVtween
p6511
Vactionscript-3
p6512
sVquicktime
p6513
NsVtostring
p6514
Vjava
p6515
sVprepared-statement
p6516
Vphp
p6517
sVopen-source
p6518
Vjava
p6519
sVdjango-tastypie
p6520
Vdjango
p6521
sVnstableview
p6522
NsVruntime.exec
p6523
Vjava
p6524
sVnetbeans
p6525
Vjava
p6526
sVguidelines
p6527
Vc#
p6528
sVmultiple-databases
p6529
Vmysql
p6530
sVcustom-view
p6531
Vandroid
p6532
sVkivy
p6533
Vpython
p6534
sVexpressions
p6535
Vc#
p6536
sVboost-python
p6537
NsVhide
p6538
Vjquery
p6539
sVselected
p6540
Vjquery
p6541
sVtablelayout
p6542
Vandroid
p6543
sVblur
p6544
Vjquery
p6545
sVgyroscope
p6546
NsVcode-contracts
p6547
NsVnslog
p6548
Vobjective-c
p6549
sVdelegates
p6550
Vc#
p6551
sVandroid-networking
p6552
Vandroid
p6553
sVpath
p6554
Vjava
p6555
sVforward-declaration
p6556
Vc++
p6557
sVdigits
p6558
NsVdistributed-computing
p6559
NsVforum
p6560
NsVoracle9i
p6561
NsVgoogle-plus
p6562
NsVvisible
p6563
Vjquery
p6564
sVproject-management
p6565
NsVmysqldump
p6566
NsVprintf
p6567
g193
sVjoomla1.7
p6568
Vjoomla
p6569
sVscaffolding
p6570
NsVswingx
p6571
NsVtail
p6572
Vbash
p6573
sVback-button
p6574
NsVpreview
p6575
NsVannotations
p6576
NsVvps
p6577
Vphp
p6578
sVphone
p6579
NsVreal-time
p6580
NsVvpn
p6581
Vandroid
p6582
sVjoin
p6583
Vmysql
p6584
sVwowza
p6585
NsVml
p6586
Vsml
p6587
sVhas-many-through
p6588
NsVrails-engines
p6589
Vruby-on-rails
p6590
sVcompiler-optimization
p6591
NsVnine-patch
p6592
Vandroid
p6593
sVmq
p6594
Vwebsphere-mq
p6595
sVinstall
p6596
NsVeager-loading
p6597
Vruby-on-rails
p6598
sVcruisecontrol.net
p6599
Vmsbuild
p6600
sVcaptcha
p6601
Vphp
p6602
sVavplayer
p6603
NsVfile-conversion
p6604
Vpdf
p6605
sVscheduling
p6606
NsVxdebug
p6607
NsVlinker-error
p6608
Vc++
p6609
sVvertical-alignment
p6610
NsVvagrant
p6611
NsV.net-3.5
p6612
NsVnusoap
p6613
NsVgdata-api
p6614
Vgdata
p6615
sVx509
p6616
Vopenssl
p6617
sVyesod
p6618
Vhaskell
p6619
sVyii-extensions
p6620
Vyii
p6621
sVibm-midrange
p6622
NsVmesh
p6623
V3d
p6624
sVyql
p6625
NsVbootstrap
p6626
Vzend-framework
p6627
sVe-commerce
p6628
Vphp
p6629
sVenter
p6630
Vjavascript
p6631
sVfrontend
p6632
NsVjpeg
p6633
Vimage
p6634
sVsyntax-error
p6635
NsVdijkstra
p6636
Valgorithm
p6637
sVweblogic11g
p6638
Vweblogic
p6639
sVrestful-architecture
p6640
NsVsendkeys
p6641
NsVtextbox
p6642
NsVappstore-approval
p6643
NsVime
p6644
Vandroid
p6645
sVcli
p6646
NsVemail-attachments
p6647
Vemail
p6648
sVfwrite
p6649
Vphp
p6650
sVfade
p6651
Vjquery
p6652
sVchromecast
p6653
Vgoogle-cast
p6654
sVclr
p6655
NsVjava-util-scanner
p6656
Vjava
p6657
sVindexeddb
p6658
Vjavascript
p6659
sVfonts
p6660
NsVodbc
p6661
NsVexplode
p6662
NsVhql
p6663
NsVeach
p6664
NsVorchardcms
p6665
Vasp.net-mvc
p6666
sVgprs
p6667
Vandroid
p6668
sVsigning
p6669
Vandroid
p6670
sVinterop
p6671
Vc#
p6672
sVsemantic-web
p6673
Vrdf
p6674
sVhandlebars.js
p6675
NsVrule-engine
p6676
NsVghci
p6677
Vhaskell
p6678
sVtype-erasure
p6679
NsVfree
p6680
NsVgoogle-maps-api-2
p6681
NsVrestful-url
p6682
Vrest
p6683
sVacrobat
p6684
Vpdf
p6685
sVscala-2.10
p6686
NsVactiverecord
p6687
NsVopenssl
p6688
NsVfilter
p6689
Vjquery
p6690
sVextjs4.2
p6691
NsVextjs4.1
p6692
NsVazure-mobile-services
p6693
Vazure
p6694
sVglsl
p6695
NsVwpf-4.0
p6696
Vwpf
p6697
sVrank
p6698
NsVwoocommerce
p6699
NsVjava-7
p6700
Vjava
p6701
sVjava-6
p6702
Vjava
p6703
sVjava-8
p6704
Vjava
p6705
sVandroid-theme
p6706
NsVbatch-file
p6707
Vwindows
p6708
sVcstring
p6709
Vc++
p6710
sVbitcoin
p6711
Vphp
p6712
sVpercentage
p6713
NsVknockout-validation
p6714
NsVoracle-sqldeveloper
p6715
NsVmulti-touch
p6716
Vandroid
p6717
sVapi-key
p6718
Vandroid
p6719
sVhttp-headers
p6720
Vphp
p6721
sVroles
p6722
Vasp.net
p6723
sVandroid-3.0
p6724
NsVzend-framework
p6725
Vphp
p6726
sVkernel-module
p6727
Vlinux-kernel
p6728
sVpage-refresh
p6729
NsVrad
p6730
NsVram
p6731
NsVcloudfoundry
p6732
NsVplpgsql
p6733
Vpostgresql
p6734
sVconfigure
p6735
NsVhigh-availability
p6736
Vjava
p6737
sVclient
p6738
Vjava
p6739
sVsbcl
p6740
Vcommon-lisp
p6741
sVxfbml
p6742
NsVqooxdoo
p6743
Vjavascript
p6744
sVglob
p6745
NsVsharekit
p6746
NsVbsd
p6747
NsVmouseleave
p6748
Vjquery
p6749
sVpaintcomponent
p6750
Vjava
p6751
sVclassloader
p6752
NsVflow
p6753
Vmule
p6754
sVjquery-ui-slider
p6755
NsVflot
p6756
Vjquery
p6757
sVenterprise
p6758
Vios
p6759
sVscreensaver
p6760
Vc#
p6761
sVxampp
p6762
Vphp
p6763
sVrandom
p6764
Vjava
p6765
sVmediawiki
p6766
Vphp
p6767
sVcolors
p6768
Vandroid
p6769
sVradio
p6770
NsVqstring
p6771
Vqt
p6772
sVprettyphoto
p6773
Vjquery
p6774
sVpki
p6775
Vjava
p6776
sVoci
p6777
NsVjava-ee-6
p6778
NsVhttp-status-code-302
p6779
Vredirect
p6780
sVocr
p6781
NsVelmah
p6782
Vasp.net
p6783
sVfactory-girl
p6784
NsVwatch
p6785
NsVfluid
p6786
NsVc3p0
p6787
NsVpop3
p6788
NsVamazon
p6789
NsVfadein
p6790
NsVreport
p6791
Vcrystal-reports
p6792
sVcouchbase
p6793
NsVbulkinsert
p6794
Vsql-server
p6795
sVcruisecontrol
p6796
Vcruisecontrol.net
p6797
sVclickonce
p6798
Vc#
p6799
sVisolation-level
p6800
NsVwpf-controls
p6801
Vwpf
p6802
sVpseudo-class
p6803
NsVjquery-plugins
p6804
Vjquery
p6805
sVdetection
p6806
NsVhash
p6807
Vruby
p6808
sVcgaffinetransform
p6809
NsVload-testing
p6810
NsVactionlink
p6811
Vasp.net-mvc
p6812
sVurllib
p6813
Vpython
p6814
sVcompilation
p6815
NsVvisualization
p6816
NsVaccess-modifiers
p6817
Vc#
p6818
sVonkeydown
p6819
NsVhtml5
p6820
NsVssrs-2008
p6821
NsVgdi+
p6822
Vc#
p6823
sVtemplate-meta-programming
p6824
NsVcredit-card
p6825
NsVfacet
p6826
NsVhttp-get
p6827
NsVwtforms
p6828
Vpython
p6829
sVeaseljs
p6830
NsVmaster-pages
p6831
Vasp.net
p6832
sVchar-array
p6833
g161
sVflexslider
p6834
Vjquery
p6835
sVimage-uploading
p6836
Vphp
p6837
sVcrystal-reports-xi
p6838
Vcrystal-reports
p6839
sVcontainers
p6840
NsVsprite
p6841
NsVsearch
p6842
Vphp
p6843
sVcore-data-migration
p6844
NsVlook-and-feel
p6845
Vjava
p6846
sVqueryover
p6847
Vnhibernate
p6848
sVdashboard
p6849
Vjavascript
p6850
sVexchangewebservices
p6851
NsVprocedure
p6852
NsVhas-many
p6853
Vruby-on-rails
p6854
sVpyramid
p6855
NsVslideup
p6856
Vjquery
p6857
sVpharo
p6858
Vsmalltalk
p6859
sVhttprequest
p6860
Vjava
p6861
sVcgimage
p6862
Vios
p6863
sVrecursion
p6864
Vjava
p6865
sVfxml
p6866
NsVcss-float
p6867
Vcss
p6868
sVenvironment-variables
p6869
NsVmoose
p6870
NsVinstrumentation
p6871
NsVnumerical
p6872
Vc++
p6873
sVwordpress-loop
p6874
Vwordpress
p6875
sVsymfony-1.4
p6876
Vsymfony1
p6877
sVportal
p6878
NsVnormalization
p6879
NsVcycle
p6880
NsVjframe
p6881
NsVfbconnect
p6882
NsVuploading
p6883
NsVandroid-support-library
p6884
Vandroid
p6885
sVtestng
p6886
NsVbugzilla
p6887
Vperl
p6888
sVremoting
p6889
V.net
p6890
sVglsurfaceview
p6891
Vandroid
p6892
sVmemory-address
p6893
NsVelf
p6894
NsVdataprovider
p6895
NsVcasting
p6896
NsVjailbreak
p6897
Vios
p6898
sVrecaptcha
p6899
Vphp
p6900
sVconsole-application
p6901
NsV960.gs
p6902
Vcss
p6903
sVdelphi-xe
p6904
NsVseekbar
p6905
NsVzoom
p6906
NsVgoogle-search
p6907
NsVbpm
p6908
Vjbpm
p6909
sVtexture-mapping
p6910
Vopengl
p6911
sVjunit4
p6912
NsVauto-increment
p6913
Vmysql
p6914
sVrollover
p6915
NsVdataframes
p6916
Vpandas
p6917
sVrhino
p6918
Vjavascript
p6919
sVwampserver
p6920
Vphp
p6921
sVlistitem
p6922
Vandroid
p6923
sVarmv7
p6924
Vios
p6925
sVandroid-4.2
p6926
NsVandroid-4.0
p6927
NsVicu
p6928
Vc++
p6929
sVandroid-4.4
p6930
NsVcore
p6931
Vjava
p6932
sVquaternion
p6933
Vrotation
p6934
sVcors
p6935
Vjavascript
p6936
sVdelphi-xe4
p6937
Vdelphi
p6938
sVdelphi-xe5
p6939
NsVspring-annotations
p6940
Vspring
p6941
sVlightbox
p6942
NsVontouchlistener
p6943
NsVmod-perl
p6944
NsVdelphi-xe3
p6945
NsVruntime
p6946
NsVprimitive
p6947
Vjava
p6948
sVjavac
p6949
NsVpuzzle
p6950
NsVmodalviewcontroller
p6951
NsV32-bit
p6952
NsVgis
p6953
NsVtransform
p6954
NsVgif
p6955
NsVtfs2008
p6956
Vtfs
p6957
sVhead
p6958
Vhtml
p6959
sVwireless
p6960
NsVsubclassing
p6961
Vobjective-c
p6962
sVapache-poi
p6963
NsVheap
p6964
Vjava
p6965
sVselenium2
p6966
NsVandroid-linearlayout
p6967
NsVfosuserbundle
p6968
Vsymfony2
p6969
sVattr
p6970
Vjquery
p6971
sVjtextpane
p6972
NsVdevexpress
p6973
NsVbids
p6974
Vssis
p6975
sVfilepicker.io
p6976
Vink-file-picker
p6977
sVpaging
p6978
NsVautoconf
p6979
Vautomake
p6980
sVtrigonometry
p6981
NsVtrim
p6982
NsVobfuscation
p6983
Vjava
p6984
sVoutlook-2007
p6985
Voutlook
p6986
sVtrie
p6987
NsVdecrypt
p6988
Vjava
p6989
sVwinsock2
p6990
NsVhaml
p6991
NsVcheck
p6992
NsV7zip
p6993
Vc#
p6994
sVwebos
p6995
NsVreadonly
p6996
NsVpymongo
p6997
NsVtoad
p6998
NsVjaxb
p6999
NsVwebserver
p7000
Vphp
p7001
sVbackbone-routing
p7002
Vbackbone.js
p7003
sVsql
p7004
Vmysql
p7005
sVbitbucket
p7006
NsVhibernate-search
p7007
Vhibernate
p7008
sViterator
p7009
Vc++
p7010
sVrails-migrations
p7011
Vruby-on-rails
p7012
sVfocus
p7013
NsVext-gwt
p7014
NsVgraphing
p7015
NsVdate-formatting
p7016
NsVguava
p7017
Vjava
p7018
sVimage-resizing
p7019
NsVinline-block
p7020
NsVenvironment
p7021
NsVstrategy-pattern
p7022
Vdesign-patterns
p7023
sVexcel-formula
p7024
Vexcel
p7025
sVnesting
p7026
Vcss
p7027
sVubuntu-11.10
p7028
Vubuntu
p7029
sVgoogle-earth-plugin
p7030
Vgoogle-earth
p7031
sVposts
p7032
Vwordpress
p7033
sVstandards
p7034
Vc++
p7035
sVnhibernate-mapping
p7036
Vnhibernate
p7037
sVpmd
p7038
Vjava
p7039
sVaptana
p7040
NsVuiscrollview
p7041
NsVpinvoke
p7042
NsVport
p7043
Vsockets
p7044
sVcorba
p7045
Vjava
p7046
sV64bit
p7047
NsVbeautifulsoup
p7048
Vpython
p7049
sVajax4jsf
p7050
Vjsf
p7051
sVwindows-server-2012
p7052
NsVwcf-client
p7053
NsVduplicate-data
p7054
Vmysql
p7055
sVbrowser-detection
p7056
NsVtoolbar
p7057
NsVinotify
p7058
Vlinux
p7059
sVheredoc
p7060
NsVdelimiter
p7061
Vjava
p7062
sVquickblox
p7063
NsVuilocalnotification
p7064
Vios
p7065
sVstatic-methods
p7066
Vjava
p7067
sVnavigation
p7068
NsVconvolution
p7069
NsVpriority-queue
p7070
NsVhandler
p7071
NsVjquery-autocomplete
p7072
Vjquery
p7073
sViphone
p7074
NsVmsi
p7075
Vwix
p7076
sVcriteria
p7077
Vhibernate
p7078
sVexpressionengine
p7079
Vphp
p7080
sVudpclient
p7081
NsVnettcpbinding
p7082
Vwcf
p7083
sVsoap-client
p7084
Vphp
p7085
sVfacebook-iframe
p7086
NsVdhtml
p7087
NsVembedded-database
p7088
NsVwinforms
p7089
NsVnsmutablearray
p7090
NsVpickle
p7091
Vpython
p7092
sVusability
p7093
Vuser-interface
p7094
sVbouncycastle
p7095
NsVfigure
p7096
Vmatlab
p7097
sVnexus
p7098
NsVbackslash
p7099
Vphp
p7100
sVgoogle-chrome-extension
p7101
NsVcounting
p7102
NsVrequirements
p7103
NsVinheritance
p7104
NsVweblogic-10.x
p7105
Vjava
p7106
sVeloquent
p7107
Vlaravel
p7108
sVtic-tac-toe
p7109
Vjava
p7110
sVxulrunner
p7111
NsVapple-push-notifications
p7112
NsVclone
p7113
NsVzend-route
p7114
Vzend-framework
p7115
sVghostscript
p7116
NsVdynamic-arrays
p7117
NsVliquid
p7118
Vjekyll
p7119
sVstructuremap
p7120
NsVtypeahead.js
p7121
NsVrecordset
p7122
NsVblackberry-webworks
p7123
NsVsession-state
p7124
NsVdefault-value
p7125
NsVvtk
p7126
Vc++
p7127
sVgtk
p7128
NsVcoordinates
p7129
Vandroid
p7130
sVplatform
p7131
Vandroid
p7132
sVuitabbarcontroller
p7133
Viphone
p7134
sVpermissions
p7135
Vphp
p7136
sVexecute
p7137
NsVequality
p7138
Vc#
p7139
sVtridion
p7140
Vtridion-2011
p7141
sVopera
p7142
Vjavascript
p7143
sVrandom-forest
p7144
g136
sVejabberd
p7145
NsVmysql2
p7146
NsVlistadapter
p7147
Vandroid
p7148
sVpublic-key-encryption
p7149
Vencryption
p7150
sVjquery-isotope
p7151
Vjquery
p7152
sVdigital-signature
p7153
NsVwinjs
p7154
Vwindows-8
p7155
sVfactory
p7156
NsVejb
p7157
NsVparallax
p7158
NsVbarcode-scanner
p7159
NsVuikeyboard
p7160
Vios
p7161
sVejs
p7162
NsVhttp-referer
p7163
NsVtheory
p7164
Valgorithm
p7165
sVvariant
p7166
Vc++
p7167
sVgit
p7168
NsVmarionette
p7169
NsVmysqli
p7170
NsVdispatcher
p7171
Vwpf
p7172
sVraster
p7173
g13
sVdatabase-normalization
p7174
Vdatabase
p7175
sVsession-variables
p7176
NsVyuv
p7177
Vrgb
p7178
sVyui
p7179
NsVlockscreen
p7180
NsVyum
p7181
Vlinux
p7182
sVswing
p7183
Vjava
p7184
sVtelerik-mvc
p7185
Vtelerik
p7186
sVview
p7187
NsVwindows-explorer
p7188
Vwindows
p7189
sVredhat
p7190
Vlinux
p7191
sVironruby
p7192
Vc#
p7193
sVpseudocode
p7194
NsVclient-side
p7195
Vjavascript
p7196
sVmodulo
p7197
NsVios5
p7198
NsVios4
p7199
NsVios7
p7200
NsVios6
p7201
NsViad
p7202
NsVappcelerator
p7203
Vtitanium
p7204
sVmonkeypatching
p7205
NsVsilverlight-toolkit
p7206
Vsilverlight
p7207
sVcontactscontract
p7208
Vandroid
p7209
sVpyqt4
p7210
Vpython
p7211
sVquery-builder
p7212
Vsymfony2
p7213
sVpragma
p7214
NsVctags
p7215
Vvim
p7216
sVcopy
p7217
NsVfindbugs
p7218
NsVrequire
p7219
Vphp
p7220
sVr
p7221
Vggplot2
p7222
sVposix
p7223
g161
sVeclipse-plugin-dev
p7224
NsVant
p7225
Vjava
p7226
sVjquery-selectors
p7227
NsVsharepoint-2007
p7228
Vsharepoint
p7229
sVanimation
p7230
Vandroid
p7231
sVxtragrid
p7232
NsVsurf
p7233
Vopencv
p7234
sVmeta-tags
p7235
NsVinternet-explorer-9
p7236
Vjavascript
p7237
sVinternet-explorer-8
p7238
Vjavascript
p7239
sVtornado
p7240
NsVinternet-explorer-7
p7241
Vcss
p7242
sVinternet-explorer-6
p7243
Vcss
p7244
sVc#-4.0
p7245
NsVsoftware-engineering
p7246
NsVwhere-clause
p7247
NsVraytracing
p7248
NsVdojox
p7249
Vdojo
p7250
sVselenium-grid
p7251
NsVkey-bindings
p7252
NsVzend-db
p7253
NsVuitextfield
p7254
Vios
p7255
sVgoogle-cloud-messaging
p7256
NsVnlp
p7257
NsVnspredicate
p7258
Vcore-data
p7259
sVpermission-denied
p7260
Vphp
p7261
sVdatagrid
p7262
NsVmonads
p7263
Vhaskell
p7264
sVspaces
p7265
Vtabs
p7266
sVmarkerclusterer
p7267
NsVhack
p7268
NsVdll
p7269
NsVmacros
p7270
Vexcel
p7271
sVjsoup
p7272
Vjava
p7273
sV32bit-64bit
p7274
V64bit
p7275
sVactionview
p7276
Vruby-on-rails
p7277
sVreset
p7278
Vjquery
p7279
sVquery-string
p7280
NsVmongoengine
p7281
Vmongodb
p7282
sVssl
p7283
NsVssh
p7284
NsVsse
p7285
NsVnetty
p7286
Vjava
p7287
sVsanitization
p7288
Vphp
p7289
sVhttpd.conf
p7290
Vapache
p7291
sVbison
p7292
NsVrelease-management
p7293
NsVclosures
p7294
NsVconnections
p7295
NsVcom+
p7296
NsVrmi
p7297
Vjava
p7298
sVdetect
p7299
Vjavascript
p7300
sVbackbone.js
p7301
Vjavascript
p7302
sVwindows-forms-designer
p7303
Vc#
p7304
sVquartz-graphics
p7305
NsVgmail-imap
p7306
Vimap
p7307
sV.net-4.5
p7308
NsV.net-4.0
p7309
NsVbitset
p7310
Vc++
p7311
sVnsnumber
p7312
NsVvimrc
p7313
NsVuipageviewcontroller
p7314
Vios
p7315
sVregion
p7316
Vc#
p7317
sVdatagridview
p7318
Vc#
p7319
sVgoogle-docs
p7320
Vgoogle-apps-script
p7321
sVbroadcastreceiver
p7322
NsVrace-condition
p7323
Vmultithreading
p7324
sVfiltering
p7325
Vjquery
p7326
sVcabal
p7327
NsVkey
p7328
Vphp
p7329
sVrobotics
p7330
Vc++
p7331
sVauthlogic
p7332
NsVpop
p7333
NsVsampling
p7334
g13
sVcolorbox
p7335
NsVassertions
p7336
NsVhomebrew
p7337
NsVjnlp
p7338
NsVthinking-sphinx
p7339
NsVsql-server-2008-express
p7340
NsVvisual-foxpro
p7341
NsVdirection
p7342
Vandroid
p7343
sVcopy-paste
p7344
Vexcel
p7345
sVapache-felix
p7346
Vosgi
p7347
sVmocking
p7348
Vunit-testing
p7349
sVcommon-table-expression
p7350
NsVaudio-streaming
p7351
Vandroid
p7352
sVironpython
p7353
Vpython
p7354
sVprotocols
p7355
Vobjective-c
p7356
sVcase
p7357
NsVwith-statement
p7358
Vpython
p7359
sVpca
p7360
g136
sVpostscript
p7361
Vghostscript
p7362
sVmount
p7363
NsVcoldfusion
p7364
Vcoldfusion-9
p7365
sVmysql-connector
p7366
Vmysql
p7367
sVconfigurationmanager
p7368
Vc#
p7369
sVtelephony
p7370
NsVjface
p7371
Vswt
p7372
sVreshape
p7373
g136
sVlocking
p7374
NsVcommand-line-arguments
p7375
Vcommand-line
p7376
sVhtml
p7377
NsVservice-broker
p7378
NsVevents
p7379
Vc#
p7380
sVstatus
p7381
Vfacebook
p7382
sVscreenshot
p7383
NsVdynamics-crm-2011
p7384
Vdynamics-crm
p7385
sVdriver
p7386
NsVsamsung-smart-tv
p7387
NsVsubmenu
p7388
NsVminimize
p7389
NsVcomponents
p7390
NsVmodel
p7391
Vruby-on-rails
p7392
sVmodem
p7393
NsVcompact-framework
p7394
Vc#
p7395
sVclob
p7396
NsVradio-button
p7397
Vjquery
p7398
sVkill
p7399
NsVunicode
p7400
Vpython
p7401
sVmongoose
p7402
Vnode.js
p7403
sVinternationalization
p7404
NsVsymbolic-math
p7405
Vmatlab
p7406
sValphabetical
p7407
NsVsamba
p7408
NsVsql-server-ce
p7409
Vc#
p7410
sVmetaprogramming
p7411
Vruby
p7412
sVazure-storage-blobs
p7413
NsVapache2
p7414
NsVdecompression
p7415
Vcompression
p7416
sVblob
p7417
NsVrdlc
p7418
NsVlibreoffice
p7419
Vopenoffice.org
p7420
sVstyles
p7421
Vwpf
p7422
sVscheduler
p7423
Vjava
p7424
sVsilverlight
p7425
NsVargument-passing
p7426
Vc++
p7427
sVjfreechart
p7428
NsVtemplating
p7429
NsVsimulator
p7430
Viphone
p7431
sVbackground-process
p7432
NsVoperating-system
p7433
g161
sVreturn-value
p7434
Vc++
p7435
sVrsync
p7436
NsVdynamic-linking
p7437
NsVliterals
p7438
Vstring
p7439
sVgearman
p7440
NsVrpm
p7441
Vlinux
p7442
sVredis
p7443
Vnode.js
p7444
sVslick
p7445
NsVlegal
p7446
Vlicensing
p7447
sVautomake
p7448
Vautoconf
p7449
sVprovider
p7450
Vandroid
p7451
sVkvm
p7452
Vqemu
p7453
sVshared-hosting
p7454
NsVelementtree
p7455
Vpython
p7456
sVclass-method
p7457
NsVfirebird
p7458
Vsql
p7459
sVsqldatasource
p7460
Vasp.net
p7461
sVnsdatecomponents
p7462
NsVspss
p7463
g13
sVwebsphere-6.1
p7464
NsVcuda
p7465
Vc++
p7466
sVnullpointerexception
p7467
Vjava
p7468
sVknitr
p7469
NsVcurses
p7470
Vpython
p7471
sVcommunication
p7472
Vjava
p7473
sVnumber-formatting
p7474
Vjava
p7475
sVliferay
p7476
NsVcode-snippets
p7477
NsVodata
p7478
NsVmatlab-toolbox
p7479
NsVvb.net-2010
p7480
Vvb.net
p7481
sVnumeric
p7482
g136
sVframebuffer
p7483
NsVactivemq
p7484
NsVioc-container
p7485
NsVwcf-data-services
p7486
Vwcf
p7487
sVandroid-ksoap2
p7488
Vandroid
p7489
sVentity-attribute-value
p7490
NsVexcel-2003
p7491
Vexcel
p7492
sVsqoop
p7493
NsVexcel-2007
p7494
Vexcel
p7495
sVrvm
p7496
Vruby
p7497
sVasynchronous
p7498
Vc#
p7499
sVfirebug
p7500
Vjavascript
p7501
sVcoded-ui-tests
p7502
NsVfiddler
p7503
NsVclearcase-ucm
p7504
Vclearcase
p7505
sVamazon-sqs
p7506
Vamazon-web-services
p7507
sVgettext
p7508
Vphp
p7509
sVmatrix-multiplication
p7510
NsVvirtual-memory
p7511
NsVwindows-xp
p7512
Vwindows
p7513
sVtype-conversion
p7514
NsVrspec-rails
p7515
NsVhttpmodule
p7516
NsVjavafx-2
p7517
NsVjavafx-8
p7518
NsVsymbol
p7519
NsVqtablewidget
p7520
NsVattached-properties
p7521
Vwpf
p7522
sVnswindow
p7523
NsVraspbian
p7524
Vraspberry-pi
p7525
sVn-tier
p7526
Vc#
p7527
sVwifi
p7528
Vandroid
p7529
sVcurve
p7530
Vbezier
p7531
sVvisual-c++
p7532
Vc++
p7533
sVclasscastexception
p7534
Vjava
p7535
sVdirectory
p7536
Vphp
p7537
sVcollision-detection
p7538
Vjava
p7539
sVtelerik-grid
p7540
NsVbytearray
p7541
Vjava
p7542
sVlua-table
p7543
Vlua
p7544
sVx509certificate
p7545
Vc#
p7546
sVscalaz
p7547
Vscala
p7548
sVdisk
p7549
NsVfluentvalidation
p7550
Vc#
p7551
sVinit
p7552
NsVwebgrid
p7553
Vasp.net-mvc-3
p7554
sVkeydown
p7555
Vjquery
p7556
sVical
p7557
Vphp
p7558
sVsony
p7559
NsVdapper
p7560
NsVpush-notification
p7561
NsVlisp
p7562
Vcommon-lisp
p7563
sVevaluation
p7564
Vjava
p7565
sVlist
p7566
Vpython
p7567
sVpicasa
p7568
Vandroid
p7569
sVdomain-driven-design
p7570
Vc#
p7571
sVwebdav
p7572
Vc#
p7573
sVbuilt-in
p7574
Vpython
p7575
sVjeditorpane
p7576
Vjava
p7577
sVsyslog
p7578
NsVdesign
p7579
Vc#
p7580
sVshared-libraries
p7581
Vc++
p7582
sVlistbox
p7583
Vc#
p7584
sVpinterest
p7585
NsVsum
p7586
Vmysql
p7587
sVversion
p7588
Vjava
p7589
sVsession-timeout
p7590
NsVrow
p7591
Vtable
p7592
sVmemcached
p7593
Vphp
p7594
sVjsf-2
p7595
Vjsf
p7596
sVstandards-compliance
p7597
Vc++
p7598
sVtags
p7599
Vhtml
p7600
sVmediaelement.js
p7601
Vjavascript
p7602
sVweb-security
p7603
Vphp
p7604
sVmongodb-java
p7605
Vmongodb
p7606
sVhashtable
p7607
NsVswi-prolog
p7608
Vprolog
p7609
sVlinux-device-driver
p7610
Vlinux-kernel
p7611
sVmediastore
p7612
NsVthrift
p7613
NsVmicrodata
p7614
NsVgrails-plugin
p7615
NsVanonymous-function
p7616
Vjavascript
p7617
sVrequirejs
p7618
Vjavascript
p7619
sVviewflipper
p7620
NsVonbeforeunload
p7621
NsVoptions
p7622
Vjquery
p7623
sVrename
p7624
NsVrenderpartial
p7625
NsVtfsbuild
p7626
Vtfs
p7627
sVword-vba
p7628
Vvba
p7629
sVjbutton
p7630
Vjava
p7631
sVcrystal-reports-2008
p7632
Vcrystal-reports
p7633
sVgame-center
p7634
NsVrazor-2
p7635
NsVdeque
p7636
Vc++
p7637
sVoperators
p7638
NsVopenframeworks
p7639
NsVdom-manipulation
p7640
Vjquery
p7641
sVssis-data-transformations
p7642
Vssis
p7643
sVgeneric-programming
p7644
Vc++
p7645
sVspeech-recognition
p7646
Vandroid
p7647
sVsymfony-2.3
p7648
NsVsymfony-2.1
p7649
NsVrestsharp
p7650
NsVradgrid
p7651
NsVcircular-dependency
p7652
NsVlarge-files
p7653
NsVequation
p7654
Vmath
p7655
sVfor-loop
p7656
Vloops
p7657
sVcpu-architecture
p7658
Vcpu
p7659
sVavi
p7660
Vvideo
p7661
sVdivision
p7662
Vmath
p7663
sVvirtuemart
p7664
NsVrvalue-reference
p7665
NsVcapistrano
p7666
NsVwebsphere-7
p7667
NsVwebsphere-8
p7668
NsValgebra
p7669
NsVlighting
p7670
Vopengl
p7671
sVlazy-loading
p7672
Vhibernate
p7673
sVinvalidoperationexception
p7674
NsVshort
p7675
Vjava
p7676
sVandroid-dialog
p7677
NsVfooter
p7678
NsVpostfix
p7679
Vemail
p7680
sVtelephonymanager
p7681
NsVcallback
p7682
NsVblackberry-playbook
p7683
NsVhandlebars
p7684
Vjavascript
p7685
sVxmpp
p7686
NsVcode-generation
p7687
Vc#
p7688
sVtypedef
p7689
Vc++
p7690
sVphantomjs
p7691
NsVsvcutil.exe
p7692
Vwcf
p7693
sValter
p7694
Vmysql
p7695
sVreturn
p7696
NsVresizable
p7697
NsVmemory-management
p7698
NsVshow-hide
p7699
Vjquery
p7700
sVgetelementbyid
p7701
Vjavascript
p7702
sVscipy
p7703
Vpython
p7704
sVms-office
p7705
NsVgame-engine
p7706
NsVamazon-ec2
p7707
Vamazon-web-services
p7708
sVstring-array
p7709
Vandroid
p7710
sVnservicebus
p7711
NsVrefresh
p7712
NsVinnodb
p7713
NsVoutputstream
p7714
Vjava
p7715
sVandroid-facebook
p7716
NsVshared-objects
p7717
NsVaddressbook
p7718
Viphone
p7719
sVgoogle-gdk
p7720
Vgoogle-glass
p7721
sVexpect
p7722
Vtcl
p7723
sVloops
p7724
Vphp
p7725
sVauthorize.net
p7726
NsVimpersonation
p7727
Vc#
p7728
sVdirectx-11
p7729
Vdirectx
p7730
sVetag
p7731
NsVhibernate-mapping
p7732
NsVbing-maps-api
p7733
Vbing-maps
p7734
sVsqldatatypes
p7735
NsVstrong-parameters
p7736
Vruby-on-rails
p7737
sVmodularity
p7738
NsVimacros
p7739
NsVmissing-data
p7740
g13
sVcomplex-numbers
p7741
NsVfeed
p7742
NsVnotify
p7743
NsVservicebus
p7744
NsVxml-namespaces
p7745
NsVgpl
p7746
Vlicensing
p7747
sVdbunit
p7748
NsVgpg
p7749
Vencryption
p7750
sVrailo
p7751
Vcoldfusion
p7752
sVspock
p7753
Vgrails
p7754
sVstorm
p7755
Vjava
p7756
sVgpu
p7757
Vcuda
p7758
sVstore
p7759
Vextjs
p7760
sVgps
p7761
Vandroid
p7762
sVjquery-tools
p7763
Vjquery
p7764
sVsegue
p7765
Vios
p7766
sVoption
p7767
NsVsilex
p7768
Vphp
p7769
sVmediarecorder
p7770
NsVbbcode
p7771
NsVdouble
p7772
NsVdevice-driver
p7773
Vwindows
p7774
sVvariable-scope
p7775
Vjavascript
p7776
sVbitwise
p7777
g161
sVjasper-reports
p7778
NsVscatter-plot
p7779
NsVobjective-c-runtime
p7780
Vobjective-c
p7781
sVcharacter-encoding
p7782
NsVfile-get-contents
p7783
Vphp
p7784
sVwindows-phone-8
p7785
Vc#
p7786
sVtransactional
p7787
Vspring
p7788
sVwindows-phone-7
p7789
NsVquicksort
p7790
NsVcentos6
p7791
NsVeasy-install
p7792
NsVjsf
p7793
NsVpopulate
p7794
Vphp
p7795
sVexec
p7796
Vphp
p7797
sVdata.frame
p7798
NsVsearchview
p7799
Vandroid
p7800
sVzend-form-element
p7801
Vzend-framework
p7802
sVsaxparser
p7803
Vandroid
p7804
sVsql-server-2008-r2
p7805
Vsql
p7806
sVpdfbox
p7807
NsVrunnable
p7808
NsVcrosstab
p7809
NsVmathematical-optimization
p7810
NsVwindows
p7811
NsVandroid-video-player
p7812
NsVwebclient
p7813
Vc#
p7814
sVmediaelement
p7815
NsVpublic-key
p7816
NsVandroid-arrayadapter
p7817
NsVrtf
p7818
NsVcdn
p7819
NsVcdi
p7820
NsVcdt
p7821
NsVarea
p7822
Vjquery
p7823
sVrtp
p7824
Vandroid
p7825
sVtypo3
p7826
NsViis-7.5
p7827
Vasp.net
p7828
sVcheckboxlist
p7829
Vasp.net
p7830
sVtriangle
p7831
Vjava
p7832
sVinvoke
p7833
Vc#
p7834
sVpjsip
p7835
Vsip
p7836
sVhid
p7837
NsVshared
p7838
Vmemory
p7839
sVpython-c-api
p7840
Vpython
p7841
sVcompiler
p7842
NsVactiviti
p7843
Valfresco
p7844
sVactivity
p7845
Vandroid
p7846
sVfacebook-access-token
p7847
NsVequinox
p7848
NsVdump
p7849
NsVweb-services
p7850
Vjava
p7851
sVandroid-tablelayout
p7852
Vandroid
p7853
sVarm
p7854
NsVfullscreen
p7855
NsVlibraries
p7856
NsVunions
p7857
NsVoffline-caching
p7858
Vhtml5
p7859
sVformatter
p7860
NsVgoogle-translate
p7861
NsVcorruption
p7862
Vc++
p7863
sVhexadecimal-notation
p7864
NsVprofiling
p7865
NsVappwidget
p7866
NsVcode-smell
p7867
NsVconsole
p7868
NsVsolr
p7869
Vlucene
p7870
sVsonata-admin
p7871
Vsymfony2
p7872
sVc
p7873
NsVberkeley-db
p7874
Vjava
p7875
sVcontext
p7876
NsVfile-io
p7877
NsVmultiple-columns
p7878
Vcss
p7879
sVgroups
p7880
Vuser
p7881
sVhtml5-appcache
p7882
Vhtml5
p7883
sVzurb-foundation
p7884
Vcss
p7885
sVkeytool
p7886
Vjava
p7887
sVexc-bad-access
p7888
NsVswf
p7889
NsVpc
p7890
NsVpg
p7891
Vruby-on-rails
p7892
sVpe
p7893
Vwindows
p7894
sVswt
p7895
NsVresttemplate
p7896
Vspring
p7897
sVprecision
p7898
Vfloating-point
p7899
sVrspec
p7900
NsVdql
p7901
NsVz-index
p7902
Vcss
p7903
sVgridpanel
p7904
NsVosx-mountain-lion
p7905
Vosx
p7906
sVautomator
p7907
NsVreflection.emit
p7908
NsVproject-euler
p7909
NsVdirectoryservices
p7910
NsVscreen-size
p7911
Vandroid
p7912
sVbehavior
p7913
NsVspring-webflow
p7914
NsVtreenode
p7915
Vtreeview
p7916
sVcode-completion
p7917
Veclipse
p7918
sVandroid-textview
p7919
NsVcamera-calibration
p7920
NsVactivesupport
p7921
NsVria
p7922
NsVhadoop
p7923
Vmapreduce
p7924
sVcoffeescript
p7925
Vjavascript
p7926
sVsqlite3
p7927
NsVshiro
p7928
Vjava
p7929
sVfacebook-timeline
p7930
NsVx86
p7931
Vassembly
p7932
sVhidden-field
p7933
NsVgoogle-code
p7934
NsVtriangulation
p7935
NsVmips
p7936
Vassembly
p7937
sVbackground-image
p7938
Vcss
p7939
sVtabactivity
p7940
Vandroid
p7941
sVblackberry-simulator
p7942
NsVanalysis
p7943
NsVedge
p7944
NsVcpan
p7945
NsVelastic-map-reduce
p7946
Vhadoop
p7947
sVjtree
p7948
NsVmarshalling
p7949
NsVeclipse-cdt
p7950
NsVintervals
p7951
NsVhuffman
p7952
Vc++
p7953
sVscalatest
p7954
Vscala
p7955
sVhello-world
p7956
Vjava
p7957
sVtablet
p7958
NsVenvdte
p7959
Vc#
p7960
sVfinder
p7961
Vosx
p7962
sVbuild
p7963
NsVlinked-server
p7964
Vsql-server
p7965
sVaggregation
p7966
NsVinteger
p7967
Vjava
p7968
sVjfilechooser
p7969
NsVlinqpad
p7970
Vc#
p7971
sVignore
p7972
NsVsitemap
p7973
Vasp.net
p7974
sVouter-join
p7975
NsVmodernizr
p7976
NsVgoogle-api
p7977
NsVtraits
p7978
NsVgoogle-play-services
p7979
NsVnewsletter
p7980
Vemail
p7981
sVebean
p7982
NsVcommand-prompt
p7983
NsVread-eval-print-loop
p7984
Vclojure
p7985
sVglibc
p7986
NsVwkhtmltopdf
p7987
Vphp
p7988
sVkendo-grid
p7989
NsVgenetic-algorithm
p7990
NsVhibernate-annotations
p7991
NsVxsd
p7992
Vxml
p7993
sVvbulletin
p7994
NsVkeycode
p7995
Vjavascript
p7996
sVconfluence
p7997
NsVpipeline
p7998
Vpowershell
p7999
sVgrand-central-dispatch
p8000
Vios
p8001
sVbounding-box
p8002
NsVsymfony1
p8003
Vphp
p8004
sVsymfony2
p8005
Vphp
p8006
sVrange
p8007
Vexcel
p8008
sVtogglebutton
p8009
Vandroid
p8010
sVphp-cli
p8011
NsVmcrypt
p8012
Vphp
p8013
sVwebview
p8014
NsVxmlnode
p8015
NsVpageload
p8016
Vasp.net
p8017
sVmyisam
p8018
NsVhottowel
p8019
NsVintentfilter
p8020
Vandroid
p8021
sVfopen
p8022
Vphp
p8023
sVellipse
p8024
Vwpf
p8025
sVrows
p8026
Vmysql
p8027
sVmvccontrib
p8028
NsVlldb
p8029
NsVxps
p8030
Vwpf
p8031
sVtwitter
p8032
NsVwindows-8.1
p8033
NsVmemory
p8034
NsVisolatedstorage
p8035
NsVpaypal-sandbox
p8036
NsVpopupwindow
p8037
Vandroid
p8038
sVpartitioning
p8039
Vmysql
p8040
sVflash-player
p8041
Vflash
p8042
sVhighlight
p8043
NsVshortcuts
p8044
NsVfread
p8045
NsVtomcat7
p8046
Vjava
p8047
sVtomcat6
p8048
Vjava
p8049
sVrally
p8050
Vjavascript
p8051
sVdataadapter
p8052
NsVspring-social
p8053
NsVerror-reporting
p8054
Vphp
p8055
sVlucene.net
p8056
NsVfile-extension
p8057
Vphp
p8058
sVgoogle-calendar
p8059
NsVquartz-core
p8060
Vios
p8061
sVoutlook-vba
p8062
NsVsystem-tray
p8063
NsVuploadify
p8064
NsVoverlay
p8065
Vandroid
p8066
sVkarma
p8067
NsVtextmate
p8068
Vtextmatebundles
p8069
sVscroll
p8070
NsVnasm
p8071
Vassembly
p8072
sVgoogle-api-java-client
p8073
NsVdependency-injection
p8074
Vc#
p8075
sVggplot2
p8076
g13
sVtooltip
p8077
NsVdialogbox
p8078
Vandroid
p8079
sVbase64
p8080
NsVlanguages
p8081
Vandroid
p8082
sVarchlinux
p8083
NsVeclipse-rcp
p8084
Veclipse
p8085
sVinclude
p8086
Vphp
p8087
sVjunit
p8088
Vjava
p8089
sVconfirmation
p8090
Vjavascript
p8091
sVsymfony-sonata
p8092
Vsymfony2
p8093
sVtransactionscope
p8094
NsVstackoverflow
p8095
NsVkinect-sdk
p8096
NsVibm
p8097
Vjava
p8098
sVfadeout
p8099
NsVrobotframework
p8100
NsVsql-server
p8101
Vsql
p8102
sVpolling
p8103
Vajax
p8104
sVuicollectionviewcell
p8105
Vuicollectionview
p8106
sVcfc
p8107
NsVfold
p8108
Vhaskell
p8109
sVtortoisesvn
p8110
Vsvn
p8111
sVuinavigationitem
p8112
Vios
p8113
sVbdd
p8114
NsVuitabbaritem
p8115
Viphone
p8116
sVnsnotificationcenter
p8117
NsVisapi
p8118
NsVwifi-direct
p8119
NsVcx-freeze
p8120
Vpython
p8121
sVember-data
p8122
Vember.js
p8123
sVjson-encode
p8124
Vphp
p8125
sVin-app-billing
p8126
Vandroid
p8127
sVjqtouch
p8128
Vjquery
p8129
sVjquery-ui
p8130
Vjquery
p8131
sVfirefox-addon-sdk
p8132
NsVgoogle-chrome
p8133
Vjavascript
p8134
sVshader
p8135
Vopengl
p8136
sVnsstring
p8137
NsVwebrequest
p8138
Vc#
p8139
sVhelpers
p8140
NsVenterprise-library
p8141
NsVlanguage-design
p8142
Vprogramming-languages
p8143
sVapple
p8144
NsVapt
p8145
Vubuntu
p8146
sVapk
p8147
Vandroid
p8148
sVapi
p8149
Vphp
p8150
sVgoogle-cast
p8151
NsVapply
p8152
NsVwindows-azure-storage
p8153
NsVlnk2019
p8154
Vc++
p8155
sVstream
p8156
NsVsilverlight-3.0
p8157
Vsilverlight
p8158
sVportable-class-library
p8159
NsVweb-deployment-project
p8160
NsVgeneric-list
p8161
Vc#
p8162
sVred5
p8163
NsVepoll
p8164
Vlinux
p8165
sVsql-like
p8166
NsVxaml
p8167
Vwpf
p8168
sVeditable
p8169
NsVoverride
p8170
NsVtableview
p8171
NsVenterprise-architect
p8172
Vuml
p8173
sVthymeleaf
p8174
Vspring-mvc
p8175
sVphpstorm
p8176
Vphp
p8177
sVeclipse-wtp
p8178
NsVtap
p8179
NsVtar
p8180
NsVserial
p8181
NsVapex-code
p8182
NsVdwr
p8183
NsVsip
p8184
NsVsubdirectory
p8185
NsVtextblock
p8186
NsVoracle-adf
p8187
NsVadministrator
p8188
NsVpostback
p8189
Vasp.net
p8190
sVjavascript-events
p8191
Vjavascript
p8192
sVmultiple-inheritance
p8193
Vc++
p8194
sVwindows-services
p8195
NsVauto-generate
p8196
Vc#
p8197
sVlight
p8198
NsVfailover
p8199
NsVnamed-pipes
p8200
NsVdjango-class-based-views
p8201
Vdjango
p8202
sVsubdomains
p8203
NsVfreebsd
p8204
g193
sVcrawling
p8205
NsVmouseover
p8206
NsVinterpreter
p8207
Vpython
p8208
sVcode-review
p8209
Vc#
p8210
sVoperator-keyword
p8211
NsVspotify
p8212
NsVdisqus
p8213
NsVsqlexception
p8214
NsVglew
p8215
Vopengl
p8216
sVmultithreading
p8217
Vjava
p8218
sVflex
p8219
NsVmultimap
p8220
NsVcrash
p8221
NsVindexing
p8222
Vmysql
p8223
sVa-star
p8224
Valgorithm
p8225
sVfingerprint
p8226
Vbiometrics
p8227
sVsignals-slots
p8228
NsVnfc
p8229
Vandroid
p8230
sVtrac
p8231
NsVedit
p8232
Vphp
p8233
sV.net
p8234
NsVbitwise-operators
p8235
NsVnfs
p8236
Vlinux
p8237
sVvideoview
p8238
NsVwinrt-xaml
p8239
NsVcascading-deletes
p8240
Vsql
p8241
sVmaven-plugin
p8242
NsVsimpledateformat
p8243
NsVmxml
p8244
NsVxlrd
p8245
Vpython
p8246
sVvimscript
p8247
Vvim
p8248
sVhttpurlconnection
p8249
NsVout
p8250
Vc#
p8251
sVcategory
p8252
NsVfckeditor
p8253
Vjavascript
p8254
sVcommand-line
p8255
NsVvcl
p8256
Vdelphi
p8257
sVfriendly-url
p8258
V.htaccess
p8259
sVmetaclass
p8260
NsVmoxy
p8261
NsVpixelsense
p8262
NsVdictionary
p8263
NsVipod
p8264
NsVachartengine
p8265
Vandroid
p8266
sVimplode
p8267
NsVmulti-tenant
p8268
NsVonclicklistener
p8269
Vandroid
p8270
sVsimplexml
p8271
NsVvc6
p8272
Vc++
p8273
sVxml-schema
p8274
NsVmaven-3
p8275
NsVmaven-2
p8276
Vjava
p8277
sVindesign
p8278
NsVecho
p8279
NsVcolor-picker
p8280
NsVweka
p8281
NsVcolor-scheme
p8282
Vvim
p8283
sVmakefile
p8284
Vmake
p8285
sVpriority
p8286
Vjava
p8287
sVunhandled-exception
p8288
Vc#
p8289
sVcompiler-warnings
p8290
Vc++
p8291
sVshell
p8292
NsVslider
p8293
Vjquery
p8294
sVsessionid
p8295
Vsession
p8296
sVquantmod
p8297
g13
sVdelphi-2009
p8298
NsVadfs2.0
p8299
NsVpojo
p8300
Vjava
p8301
sVdelphi-2007
p8302
NsVunmarshalling
p8303
NsVrepository-pattern
p8304
NsVsimplemembership
p8305
NsVmigration
p8306
Vruby-on-rails
p8307
sVprotocol-buffers
p8308
NsVtwitter-api
p8309
Vphp
p8310
sVclip
p8311
Vjava
p8312
sVapache-commons
p8313
NsVlinker
p8314
Vc++
p8315
sVqueryset
p8316
Vdjango
p8317
sVtypeahead
p8318
Vtwitter-bootstrap
p8319
sVlinked
p8320
Vlist
p8321
sVangle
p8322
NsVcontact
p8323
Vforms
p8324
sVscons
p8325
NsVlanguage-lawyer
p8326
Vc++
p8327
sVautomated-tests
p8328
Vtesting
p8329
sVcollaboration
p8330
Vversion-control
p8331
sVclass
p8332
NsVvolume
p8333
Vandroid
p8334
sVgoogle-maps-sdk-ios
p8335
Vios
p8336
sVpipe
p8337
g193
sVgodaddy
p8338
NsVjcr
p8339
NsVef-code-first
p8340
NsVgrails-domain-class
p8341
NsVweb.py
p8342
NsVpyparsing
p8343
Vpython
p8344
sVrouting
p8345
Vruby-on-rails
p8346
sVstrtok
p8347
NsVdatarow
p8348
Vc#
p8349
sVlocal
p8350
Vjavascript
p8351
sVurlconnection
p8352
NsVcube
p8353
Vssas
p8354
sVdiacritics
p8355
Vphp
p8356
sVwords
p8357
NsVcustom-action
p8358
NsVdesign-patterns
p8359
NsVqt
p8360
Vc++
p8361
sVdynamic-data
p8362
Vasp.net
p8363
sVpython-requests
p8364
NsVjava.util.concurrent
p8365
NsVqa
p8366
Vtesting
p8367
sVsql-management-studio
p8368
NsVmenuitem
p8369
NsVstylecop
p8370
NsVsaml-2.0
p8371
Vsingle-sign-on
p8372
sVcheckstyle
p8373
Vjava
p8374
sVx11
p8375
NsVgoogle-cloud-endpoints
p8376
NsVmodule
p8377
NsVpinchzoom
p8378
NsVmultipart
p8379
Vjava
p8380
sVgmail
p8381
Vemail
p8382
sVbreakpoints
p8383
Vdebugging
p8384
sVnested-lists
p8385
NsVg++
p8386
Vc++
p8387
sVuielement
p8388
Vwpf
p8389
sVteamcity
p8390
Vcontinuous-integration
p8391
sVzend-framework2
p8392
Vphp
p8393
sVp2p
p8394
NsVtypeclass
p8395
Vhaskell
p8396
sVios
p8397
NsVuserform
p8398
NsVlogin-control
p8399
NsVwebservice-client
p8400
Vweb-services
p8401
sVdeserialization
p8402
NsVbean-validation
p8403
NsVchmod
p8404
NsVpackaging
p8405
Vpython
p8406
sVrpc
p8407
Vgwt
p8408
sVcxf
p8409
NsVsequences
p8410
NsVtable
p8411
Vhtml
p8412
sVgoogle-talk
p8413
NsVqemu
p8414
Vkvm
p8415
sVoffice365
p8416
Vsharepoint
p8417
sVcharts
p8418
NsVsemaphore
p8419
g161
sVporting
p8420
Vc++
p8421
sVjlist
p8422
Vjava
p8423
sVresteasy
p8424
Vjava
p8425
sVstring-matching
p8426
NsVpartials
p8427
Vruby-on-rails
p8428
sVvimeo
p8429
NsVcursor
p8430
NsVarraylist
p8431
Vjava
p8432
sVargv
p8433
NsVlayer
p8434
Vios
p8435
sVdjango-modelform
p8436
Vdjango
p8437
sVfacebook-page
p8438
Vfacebook
p8439
sVavr
p8440
g193
sVdo-while
p8441
NsVlinq-to-entities
p8442
NsVstringtokenizer
p8443
NsVexchange-server-2010
p8444
Vexchange-server
p8445
sVavd
p8446
Vandroid
p8447
sVprivileges
p8448
NsVclasspath
p8449
Vjava
p8450
sVenumeration
p8451
NsVmember
p8452
Vc++
p8453
sVunity
p8454
NsVslickgrid
p8455
Vjavascript
p8456
sVautomation
p8457
NsVconnection-pooling
p8458
NsVsingle-table-inheritance
p8459
Vruby-on-rails
p8460
sVcoding-style
p8461
NsVdynamics-ax-2012
p8462
NsVjpql
p8463
Vjpa
p8464
sVsnmp
p8465
Vnet-snmp
p8466
sVkaminari
p8467
NsVuisegmentedcontrol
p8468
Vios
p8469
sVmfc
p8470
Vc++
p8471
sVtcp
p8472
Vsockets
p8473
sVdata-visualization
p8474
g136
sVtcl
p8475
Vtk
p8476
sVjava-ee
p8477
Vjava
p8478
sVunsigned
p8479
NsVwso2esb
p8480
Vwso2
p8481
sVusage
p8482
Vmemory
p8483
sVjython
p8484
NsVbox-api
p8485
NsVusing-statement
p8486
Vc#
p8487
sVmatlab-deployment
p8488
Vmatlab
p8489
sVjboss-weld
p8490
NsVandroid-camera-intent
p8491
NsVhosts
p8492
Vapache
p8493
sVandroid-listfragment
p8494
Vandroid
p8495
sVmod-rewrite
p8496
NsVsequence
p8497
NsVkde
p8498
NsVsettext
p8499
NsVjquery-cycle
p8500
NsVtumblr
p8501
NsVexport
p8502
Vexcel
p8503
sVsuperclass
p8504
Vjava
p8505
sVbuildout
p8506
Vpython
p8507
sVleak
p8508
NsVondraw
p8509
NsVdynamically-generated
p8510
NsVcross-domain
p8511
NsVfacebook-social-plugins
p8512
NsVphalcon
p8513
NsVartifactory
p8514
NsVpyrocms
p8515
Vcodeigniter
p8516
sVsprite-kit
p8517
NsVstax
p8518
Vjava
p8519
sVdjango-celery
p8520
NsVpaste
p8521
Vcopy
p8522
sVslug
p8523
NsVshopify
p8524
Vapi
p8525
sVshipping
p8526
NsVdatagram
p8527
NsVashx
p8528
Vasp.net
p8529
sVconstructor
p8530
Vc++
p8531
sVclojure
p8532
NsVowl
p8533
Vrdf
p8534
sVclustered-index
p8535
Vsql-server
p8536
sVmyeclipse
p8537
Vjava
p8538
sVskydrive
p8539
NsVumbraco
p8540
NsVweather
p8541
Vapi
p8542
sVpromise
p8543
Vjavascript
p8544
sVregistration
p8545
NsVtransfer
p8546
Vfile
p8547
sVfilesize
p8548
NsVdatabase-restore
p8549
Vsql-server
p8550
sVvar
p8551
NsVlog4net
p8552
NsVcertificate
p8553
NsVdjango-admin
p8554
Vdjango
p8555
sVhyper-v
p8556
NsVappdelegate
p8557
Vios
p8558
sVphusion-passenger
p8559
NsVtaglib
p8560
Vjsp
p8561
sVtomcat
p8562
NsVrecord
p8563
Vaudio
p8564
sVbig-o
p8565
NsVdjango-templates
p8566
Vdjango
p8567
sVcustomvalidator
p8568
Vasp.net
p8569
sVandroid-preferences
p8570
NsVoffice-2007
p8571
Vc#
p8572
sVreloaddata
p8573
Vuitableview
p8574
sVcss-transition
p8575
NsVboot
p8576
NsVmongodb-php
p8577
Vmongodb
p8578
sVbranch
p8579
NsVphp4
p8580
Vphp
p8581
sVriak
p8582
NsVmobile-application
p8583
NsVjung
p8584
NsVasset-pipeline
p8585
NsVunix-timestamp
p8586
NsVdebian
p8587
NsVsencha-architect
p8588
NsVsass
p8589
Vcss
p8590
sVjscript
p8591
NsVpython-idle
p8592
Ns.