(lp0
Vh.264
p1
aVscreen-resolution
p2
aVuserscripts
p3
aVprefix
p4
aVtcp-ip
p5
aVdropbox-api
p6
aVtypeerror
p7
aVxts
p8
aVwindows-ce
p9
aVcreatejs
p10
aVopenmpi
p11
aVonsubmit
p12
aVjquery-callback
p13
aVfilenotfoundexception
p14
aVhttp-authentication
p15
aVrhomobile
p16
aVlegacy-code
p17
aVrabbitmq
p18
aVlistview
p19
aVcufon
p20
aVdynamics-crm
p21
aVmsysgit
p22
aVbittorrent
p23
aVdbcontext
p24
aVdevelopment-environment
p25
aVsolrnet
p26
aVwindow.location
p27
aVtcpclient
p28
aVwidget
p29
aVcustom-adapter
p30
aVviewcontroller
p31
aVjasmine
p32
aVsunspot
p33
aVfacebook-opengraph
p34
aVtravis-ci
p35
aVcurve-fitting
p36
aVjquery-ajax
p37
aVprojection
p38
aVclassification
p39
aVcontact-form
p40
aVreplace
p41
aVsubstr
p42
aVunix
p43
aVsilverlight-5.0
p44
aValter-table
p45
aVfstream
p46
aVdata-warehouse
p47
aVmusic
p48
aVdns
p49
aVtokenize
p50
aVmonomac
p51
aVjmx
p52
aVjms
p53
aVkineticjs
p54
aVjmf
p55
aVdatanucleus
p56
aVuiprogressview
p57
aVspring-jms
p58
aVdroppable
p59
aVsmtp
p60
aVtitanium
p61
aVfibonacci
p62
aVsignal-processing
p63
aVabsolute
p64
aVmotion
p65
aVsybase-ase
p66
aVgeojson
p67
aVavfoundation
p68
aVplayback
p69
aVactionscript
p70
aVremote-access
p71
aVnhibernate
p72
aVwinsock
p73
aViboutlet
p74
aVabstraction
p75
aVlonglistselector
p76
aVsidekiq
p77
aVdiagram
p78
aVplyr
p79
aViis-7
p80
aViis-6
p81
aViis-8
p82
aVtypes
p83
aVfsockopen
p84
aVdijit
p85
aVwebfonts
p86
aValias
p87
aVvideo-capture
p88
aVjenkins-plugins
p89
aVpresentmodalviewcontrolle
p90
aVjquery-tabs
p91
aVsendgrid
p92
aVbit-fields
p93
aVrestriction
p94
aVxlib
p95
aVbootstrapper
p96
aVhtml-table
p97
aVforce-layout
p98
aVspring-data-jpa
p99
aVconcurrency
p100
aVlistactivity
p101
aVuuid
p102
aVandroid-ndk
p103
aVgoogle-visualization
p104
aVhidden
p105
aVautosuggest
p106
aVslicing
p107
aVcloud-hosting
p108
aVeffects
p109
aVmpmovieplayer
p110
aVinterrupt
p111
aVmultidimensional
p112
aVrepaint
p113
aVselenium-ide
p114
aVria-services
p115
aVtimeout
p116
aVgoogle-analytics
p117
aVcss-position
p118
aVphoto-gallery
p119
aVazure-storage-tables
p120
aVmdi
p121
aVdjango-authentication
p122
aVfunctional-programming
p123
aVandroid-manifest
p124
aVmdx
p125
aVmongoid
p126
aVgreatest-n-per-group
p127
aVoverwrite
p128
aVdst
p129
aVsms
p130
aVsmo
p131
aVdsl
p132
aVsml
p133
aVdatacontractserializer
p134
aVado.net
p135
aVbuild-process
p136
aVgunicorn
p137
aVpaypal-ipn
p138
aVmd5
p139
aVxargs
p140
aVvisualvm
p141
aVatl
p142
aVjavafx
p143
aVwindows-mobile
p144
aVmingw
p145
aVformview
p146
aVcustomization
p147
aVxib
p148
aVsmartgwt
p149
aVservice
p150
aVddms
p151
aVtsql
p152
aVwsdl2java
p153
aVsqlcmd
p154
aVmaster
p155
aVjstl
p156
aVwindbg
p157
aVcdata
p158
aVedmx
p159
aVandroid-drawable
p160
aVtree
p161
aVdynamics-crm-4
p162
aVfile-upload
p163
aVhierarchical-data
p164
aVtreeview
p165
aVnopcommerce
p166
aVbuild-automation
p167
aVdozer
p168
aVwebsocket
p169
aVfilemaker
p170
aVincrement
p171
aVcompareto
p172
aVblazeds
p173
aVoffice-interop
p174
aVmkmapview
p175
aVthree.js
p176
aVtransactions
p177
aVobject
p178
aVmetrics
p179
aVicloud
p180
aVvarargs
p181
aVasp.net-mvc
p182
aVangular-ui-router
p183
aVplayframework-1.x
p184
aVfabricjs
p185
aVjson-decode
p186
aVcaml
p187
aVlanguage-agnostic
p188
aViphone-web
p189
aVsoundpool
p190
aVhibernate-validator
p191
aVautoit
p192
aVunmanaged
p193
aVgitignore
p194
aVlayout
p195
aVmenu
p196
aVcriteria-api
p197
aVuser-agent
p198
aVform-for
p199
aVqwidget
p200
aVwebrtc
p201
aVqgraphicsview
p202
aVshortest-path
p203
aVpass-by-reference
p204
aVsendmessage
p205
aVxmlreader
p206
aVsymfony-forms
p207
aVrelease
p208
aVrestkit-0.20
p209
aVjaxb2
p210
aVresult
p211
aVdelphi
p212
aVstackoverflowexception
p213
aVwikipedia
p214
aVclass-design
p215
aVdjango-testing
p216
aVdata.table
p217
aVposix
p218
aVirb
p219
aVirc
p220
aVextend
p221
aVwcf-security
p222
aVmultipartform-data
p223
aVjquery-validate
p224
aVmobile-website
p225
aVconstexpr
p226
aVgnu-make
p227
aVopengl-es
p228
aVcarbon
p229
aVrtti
p230
aVsd-card
p231
aVtriggers
p232
aVdalvik
p233
aVadapter
p234
aVsyntax-highlighting
p235
aVlogic
p236
aVglobal-variables
p237
aVlogin
p238
aVinnerhtml
p239
aVgxt
p240
aVduplicate-removal
p241
aVkohana
p242
aVdiff
p243
aVbilling
p244
aVunion
p245
aVdicom
p246
aVextraction
p247
aVdreamweaver
p248
aVpartial-classes
p249
aVautocompletetextview
p250
aVintentfilter
p251
aVtelnet
p252
aVprimitive-types
p253
aVlift
p254
aVweb-hosting
p255
aVrobolectric
p256
aVosx-leopard
p257
aVdatatable
p258
aVboost-bind
p259
aVdecisiontrees
p260
aVgeoip
p261
aVtyposcript
p262
aVjplayer
p263
aVvisual-studio-2013
p264
aVvisual-studio-2012
p265
aVvisual-studio-2010
p266
aVdata-structures
p267
aVtoolkit
p268
aVplayer
p269
aVognl
p270
aVlinechart
p271
aVjquery-live
p272
aVlinq-to-nhibernate
p273
aVsplit
p274
aVmaven-release-plugin
p275
aVtemplates
p276
aVvectorization
p277
aVfilenames
p278
aVternary-operator
p279
aVwebstorm
p280
aVgzip
p281
aVsettimeout
p282
aVbing-api
p283
aVdependency-properties
p284
aVopengl-3
p285
aVgarbage-collection
p286
aVms-access-2007
p287
aVxmlhttprequest
p288
aVms-access-2003
p289
aVfortran
p290
aVcollections
p291
aVnssortdescriptor
p292
aVservicemix
p293
aVbnf
p294
aVeasymock
p295
aVfind-and-replace
p296
aVshadow
p297
aVunique
p298
aVcase-sensitive
p299
aVapp-store
p300
aVmemory-leaks
p301
aVui-automation
p302
aVfancybox
p303
aVole
p304
aVonchange
p305
aVxmlserializer
p306
aVfop
p307
aVmonogame
p308
aVjavax.imageio
p309
aVandroid-studio
p310
aVsubclass
p311
aVuml
p312
aVactivemodel
p313
aVbarcode
p314
aVsubfolder
p315
aVforeign-keys
p316
aVjoomla
p317
aVwordpress-plugin
p318
aVsoa
p319
aVvlookup
p320
aVmocha
p321
aVemgu
p322
aVwrap
p323
aVdirect3d
p324
aVfabric
p325
aVcombinatorics
p326
aVsupport
p327
aVbootstrap-typeahead
p328
aVcss-box-shadow
p329
aVwidth
p330
aVrebol
p331
aVwordpress
p332
aVrcpp
p333
aVpassport
p334
aVfpga
p335
aVlatex
p336
aVsql-loader
p337
aVpaypal
p338
aVnotifications
p339
aVeclipse-pdt
p340
aVamazon-simpledb
p341
aVarrays
p342
aVmongomapper
p343
aVdevices
p344
aVaccess-vba
p345
aVtweepy
p346
aVgoogle-maps-markers
p347
aVpowershell
p348
aVyoutube-api
p349
aVpassenger
p350
aVviewmodel
p351
aVtimezone
p352
aVweb-frameworks
p353
aVlogical-operators
p354
aVuipickerview
p355
aVkeyup
p356
aVactor
p357
aVpacket-capture
p358
aVjenkins
p359
aVandroid-calendar
p360
aVmodels
p361
aVasterisk
p362
aVyahoo
p363
aVobjectify
p364
aVrhino-mocks
p365
aVtablecellrenderer
p366
aVsetinterval
p367
aVscala
p368
aVtime
p369
aVpush
p370
aVcodeblocks
p371
aVkendo-mobile
p372
aVosx
p373
aVjtextarea
p374
aVswitch-statement
p375
aVsolver
p376
aVtablerow
p377
aVmultiprocessing
p378
aVzebra-printers
p379
aVedittext
p380
aVvisual-studio-extensions
p381
aVjavascript-events
p382
aVprediction
p383
aVsign
p384
aVrestkit
p385
aVrspec2
p386
aVdjango-queryset
p387
aVwindows-installer
p388
aVgoogle-plus-one
p389
aVbadge
p390
aVopencart
p391
aVmergesort
p392
aVwindows-8
p393
aVwindows-7
p394
aVvb.net
p395
aVqueue
p396
aVobjective-c-2.0
p397
aVbreadcrumbs
p398
aVipc
p399
aVipa
p400
aVandroid-widget
p401
aVjeditable
p402
aVcode-access-security
p403
aVbookmarks
p404
aVintellij-idea
p405
aVcallstack
p406
aVwicket
p407
aVhttpwebrequest
p408
aVscope
p409
aVcommonsware
p410
aVstarling-framework
p411
aVb-tree
p412
aVlowercase
p413
aVassociative-array
p414
aVcurrency
p415
aVentity-framework-4.3
p416
aVentity-framework-4.1
p417
aVninject
p418
aVprinting
p419
aVanti-patterns
p420
aVuse-case
p421
aVprogressdialog
p422
aVslidingmenu
p423
aVandroid-sensors
p424
aVuiimagepickercontroller
p425
aVcustom-cell
p426
aVmonitoring
p427
aVthreadpool
p428
aVsavon
p429
aVfps
p430
aVload-data-infile
p431
aVxhtml
p432
aVuser-permissions
p433
aVexplorer
p434
aVblobstore
p435
aVioctl
p436
aVdate
p437
aVactionmailer
p438
aVdata
p439
aVgoogle-apps
p440
aVcfml
p441
aVhtml-lists
p442
aVstdio
p443
aVstdin
p444
aVprototypal-inheritance
p445
aVsandbox
p446
aVsh
p447
aVtty
p448
aVjquery-dialog
p449
aVwebpage
p450
aVcloudbees
p451
aVpower-management
p452
aVproguard
p453
aVaccordion
p454
aVasp.net-membership
p455
aVmethodology
p456
aVjit
p457
aVcache-control
p458
aVchaining
p459
aVstringbuilder
p460
aVrecords
p461
aVmacvim
p462
aVlwuit
p463
aVdate-format
p464
aVretrieve
p465
aVc++
p466
aVcanvas
p467
aVrounding
p468
aVmahout
p469
aVinternet
p470
aVformula
p471
aVlink-to
p472
aVhibernate
p473
aVmime
p474
aVpostsharp
p475
aVcss-border-radius
p476
aVbootloader
p477
aVuser-input
p478
aVocaml
p479
aVseparator
p480
aVroutes
p481
aVrouter
p482
aVsaving
p483
aVvideo.js
p484
aVnested
p485
aVitextsharp
p486
aVopen
p487
aVuniqueidentifier
p488
aVnaudio
p489
aVflask-sqlalchemy
p490
aVfms
p491
aVparams
p492
aVconstants
p493
aVbits
p494
aVprogress-bar
p495
aVaddeventlistener
p496
aVcrash-reports
p497
aVpadding
p498
aVuiwindow
p499
aVplsqldeveloper
p500
aVflashdevelop
p501
aVmysql
p502
aVtypography
p503
aVlucene
p504
aVfuture
p505
aVlinux-kernel
p506
aVsax
p507
aVc++0x
p508
aVsap
p509
aVfacebook-graph-api
p510
aVsilverlight-4.0
p511
aVuipopovercontroller
p512
aVbackbone-views
p513
aVtcpdf
p514
aVzoo
p515
aVbackwards-compatibility
p516
aVabsolute-path
p517
aVdestroy
p518
aVlocal-variables
p519
aVbcrypt
p520
aVbuffer
p521
aVpager
p522
aVgoogle-places-api
p523
aVtextarea
p524
aVc++-cx
p525
aVaverage
p526
aVdrive
p527
aVtestcase
p528
aVactionscript-2
p529
aVgoogle-contacts
p530
aVsalt
p531
aVhmac
p532
aVwindow-resize
p533
aVlotus
p534
aVsynchronous
p535
aVdatetime
p536
aVprogramming-languages
p537
aVbytebuffer
p538
aVxml
p539
aVpython-3.2
p540
aVandroid-sdk-2.2
p541
aVandroid-sdk-2.3
p542
aVstreet-address
p543
aVuiswitch
p544
aVappharbor
p545
aVrounded-corners
p546
aVuitextview
p547
aVzipfile
p548
aVandroid-styles
p549
aVinfowindow
p550
aVandroid-layout
p551
aVsettings
p552
aVissue-tracking
p553
aVtika
p554
aVwhere
p555
aVinstallshield
p556
aVdatatables
p557
aVsocket.io
p558
aVjavabeans
p559
aVserver-side
p560
aVowin
p561
aVsmooth-scrolling
p562
aVjobs
p563
aVconditional-statements
p564
aVresourcedictionary
p565
aVserialization
p566
aVspark
p567
aVkendo-asp.net-mvc
p568
aVrichfaces
p569
aVexchange-server
p570
aVwindows-applications
p571
aVinfopath2010
p572
aVbufferedreader
p573
aVmkannotationview
p574
aVmodal-dialog
p575
aVnsarraycontroller
p576
aVexpression
p577
aVselenium-webdriver
p578
aVworkflow-foundation-4
p579
aVurl-scheme
p580
aVdynamic-language-runtime
p581
aVsystem-verilog
p582
aVsearch-engine
p583
aVspring-data
p584
aVtwig
p585
aVmessagebox
p586
aVaccelerometer
p587
aVstretch
p588
aVprototype
p589
aVgrid-layout
p590
aVlibgdx
p591
aVgrayscale
p592
aVantivirus
p593
aVphotos
p594
aVhashtag
p595
aVvariable-assignment
p596
aVbonjour
p597
aVblowfish
p598
aVroleprovider
p599
aValarmmanager
p600
aVparse.com
p601
aVgoogle-closure
p602
aVlayout-inflater
p603
aVoledb
p604
aVblas
p605
aVzend-studio
p606
aVconcatenation
p607
aVcoordinate-systems
p608
aVcobol
p609
aVabstract-syntax-tree
p610
aVascii
p611
aVivy
p612
aVsmalltalk
p613
aVbinary
p614
aVurl-encoding
p615
aVhostname
p616
aVcreateprocess
p617
aVsubdomain
p618
aVparcelable
p619
aVrfid
p620
aVallocation
p621
aVopenldap
p622
aVvirtual-machine
p623
aVextern
p624
aVwpf
p625
aVlive-streaming
p626
aVtracking
p627
aVundefined
p628
aVdata-modeling
p629
aVworklight
p630
aVdimension
p631
aVresx
p632
aVnosql
p633
aVrest
p634
aVsitecore6
p635
aVgdb
p636
aVjshint
p637
aVgdi
p638
aVgreasemonkey
p639
aVgenerator
p640
aVruby-on-rails
p641
aVdjango-nonrel
p642
aVlong-integer
p643
aVadsense
p644
aVstopwatch
p645
aVsprockets
p646
aVrobotics
p647
aVrubygems
p648
aVlibc
p649
aVdart
p650
aVgestures
p651
aVtraffic
p652
aVpreference
p653
aVenums
p654
aVaspectj
p655
aVparent-child
p656
aVintel
p657
aVstdmap
p658
aVjquery-ui-dialog
p659
aVgrouping
p660
aVruntimeexception
p661
aVconditional
p662
aVregex-negation
p663
aVshadowbox
p664
aVprivate-members
p665
aVdimensions
p666
aVexif
p667
aVregular-language
p668
aVstring-literals
p669
aVmanaged-c++
p670
aVexit
p671
aVddl
p672
aVarrow
p673
aVruby-2.0
p674
aVqtip2
p675
aVisset
p676
aVpackage
p677
aVacl
p678
aVacs
p679
aVpermalinks
p680
aVautotools
p681
aVcontent-type
p682
aVrelativelayout
p683
aVimage
p684
aVstringstream
p685
aVpivot
p686
aVsencha-touch-2.1
p687
aVmdm
p688
aVhex
p689
aVemacs
p690
aVuiwebview
p691
aVseries
p692
aVspider
p693
aVlazy-evaluation
p694
aVandroid-asynctask
p695
aVtaskbar
p696
aVuiimage
p697
aVutf-16
p698
aVopenxml
p699
aVviewport
p700
aVpull
p701
aVwindows-phone-7.1
p702
aVcastle-activerecord
p703
aVviewpagerindicator
p704
aVgraph-theory
p705
aVviewdidload
p706
aVdelphi-7
p707
aVdelphi-5
p708
aVmigrate
p709
aVcreatefile
p710
aVnagios
p711
aVcryptoapi
p712
aVobjective-c
p713
aVquickbooks
p714
aVajaxcontroltoolkit
p715
aVsimple-html-dom
p716
aVspatial
p717
aVnomethoderror
p718
aVopenid
p719
aVrichtextbox
p720
aVautoresize
p721
aVrpy2
p722
aVwxwidgets
p723
aVmasm
p724
aVmask
p725
aVraphael
p726
aVcpu
p727
aVstrtotime
p728
aVscp
p729
aVmessage-driven-bean
p730
aVdatabase-backups
p731
aVtail
p732
aVtk
p733
aVsympy
p734
aVbasic-authentication
p735
aVjava-me
p736
aVcheckin
p737
aVresults
p738
aVgfortran
p739
aVcondition
p740
aViphone-4
p741
aViphone-5
p742
aVt4
p743
aVmicrosoft-sync-framework
p744
aVtoggle
p745
aVsails.js
p746
aVpostmessage
p747
aVwoocommerce
p748
aVfoundation
p749
aVapi-key
p750
aVqml
p751
aVomniauth
p752
aVschema.org
p753
aVlinear
p754
aVxor
p755
aVclock
p756
aVinline-assembly
p757
aVhomescreen
p758
aVescaping
p759
aVobjectcontext
p760
aVorg-mode
p761
aVsql-insert
p762
aVlegend
p763
aVsubview
p764
aVemulator
p765
aVsocial
p766
aVaction
p767
aVtesseract
p768
aVopenfire
p769
aVtmux
p770
aVvim
p771
aVselect
p772
aVesri
p773
aVoracle-apex
p774
aVexecutable
p775
aVfoxpro
p776
aVpreloader
p777
aVplayframework-2.0
p778
aVplayframework-2.1
p779
aVplayframework-2.2
p780
aVrhel
p781
aVtestunit
p782
aVasyncsocket
p783
aVgsm
p784
aVbxslider
p785
aVappdomain
p786
aVwebkit
p787
aVfancybox-2
p788
aVendpoint
p789
aVsql-azure
p790
aVautocomplete
p791
aVazure-web-roles
p792
aVuiactivityviewcontroller
p793
aVprompt
p794
aVscan
p795
aVvisual-studio-debugging
p796
aVcllocationmanager
p797
aVtapestry
p798
aVaxis
p799
aVgit-commit
p800
aVaxis2
p801
aVmachine-learning
p802
aVvariant
p803
aVmapping
p804
aVxilinx
p805
aVbioinformatics
p806
aVfreepascal
p807
aVlifecycle
p808
aVargparse
p809
aVappcelerator-mobile
p810
aVgithub
p811
aVparameterized
p812
aVdjango
p813
aVnvidia
p814
aVcheckbox
p815
aVinstaller
p816
aVstreamwriter
p817
aVexit-code
p818
aVstackpanel
p819
aVsencha-touch
p820
aVinternet-explorer
p821
aVbuffering
p822
aVassemblies
p823
aVgitlab
p824
aVhotkeys
p825
aVgradle
p826
aVasp.net-2.0
p827
aVwindows-phone
p828
aVgpu-programming
p829
aVselectbox
p830
aVbluej
p831
aVoperator-precedence
p832
aVwindows-server
p833
aVqr-code
p834
aVreduce
p835
aVnumeric
p836
aVexpandablelistview
p837
aVcontent-management-system
p838
aVpyinstaller
p839
aVdistributed-transactions
p840
aVscribe
p841
aVftp
p842
aVandroid-source
p843
aVoffline
p844
aVinitialization
p845
aVautofac
p846
aVintrinsics
p847
aVlocalization
p848
aVproxy
p849
aVandroid-library
p850
aVdefinition
p851
aVwolfram-mathematica
p852
aVdjango-forms
p853
aVpositioning
p854
aVcastle
p855
aVweb-standards
p856
aVoperator-overloading
p857
aVnewtonsoft
p858
aVjet
p859
aVfaceted-search
p860
aVswipe
p861
aVsublimetext2
p862
aVsublimetext3
p863
aVsilverstripe
p864
aVrelationship
p865
aVexpression-trees
p866
aVfilesystems
p867
aVhtml-select
p868
aVserializable
p869
aVtortoisehg
p870
aVphpmailer
p871
aVaac
p872
aVinput-validation
p873
aVbho
p874
aVflexigrid
p875
aVmootools
p876
aVwysiwyg
p877
aVnsurl
p878
aVform-submit
p879
aVpyserial
p880
aVcollapse
p881
aVdrop-down-menu
p882
aVpy2exe
p883
aVself
p884
aVdynamics-crm-online
p885
aVinternal
p886
aVvmware
p887
aValsa
p888
aVindex
p889
aVsts-springsourcetoolsuite
p890
aVconditional-formatting
p891
aVexe
p892
aVphonegap
p893
aVgsoap
p894
aVmicrosoft
p895
aVwsgi
p896
aVxcode
p897
aVbinary-tree
p898
aVsql-server-2005
p899
aVsession
p900
aVftp-client
p901
aVhornetq
p902
aVblender
p903
aVdrupal-modules
p904
aVkeychain
p905
aVprocessbuilder
p906
aVfileapi
p907
aVhtml-email
p908
aVdistance
p909
aVneon
p910
aVsynchronization
p911
aV.each
p912
aVflexbuilder
p913
aVhorizontal-scrolling
p914
aVbitmap
p915
aVbanner
p916
aVxml-parsing
p917
aV3g
p918
aVrake-task
p919
aVcrc
p920
aVgraph-databases
p921
aVmagicalrecord
p922
aV3d
p923
aVcrm
p924
aVset
p925
aVmysql-workbench
p926
aViteration
p927
aVjade
p928
aVstartup
p929
aVipod-touch
p930
aVsed
p931
aVfileoutputstream
p932
aVseo
p933
aVcontour
p934
aVproject
p935
aVprotobuf-net
p936
aVmovie
p937
aVitunesconnect
p938
aVliquibase
p939
aVmutex
p940
aVscreen-orientation
p941
aVimagemagick
p942
aVxslt
p943
aVjapplet
p944
aVselectlist
p945
aVjavascript
p946
aVintegration-testing
p947
aVinterface
p948
aVhyperlink
p949
aVglkit
p950
aVfacebox
p951
aVpdo
p952
aVlapack
p953
aVconnection
p954
aVpdf
p955
aVksoap2
p956
aVload
p957
aVgeolocation
p958
aVmarkdown
p959
aVdatediff
p960
aVweb-config
p961
aVdata-migration
p962
aVcompass-geolocation
p963
aVpublishing
p964
aVextension-methods
p965
aVbreadth-first-search
p966
aVangular-ui
p967
aVandroid-cursoradapter
p968
aVsystem.io
p969
aVkerberos
p970
aVmultidimensional-array
p971
aVoverloading
p972
aVqtableview
p973
aVfunc
p974
aVhandling
p975
aVoptimization
p976
aVandroid-browser
p977
aVdrawable
p978
aVexpander
p979
aVnivoslider
p980
aVcalculator
p981
aVcode-coverage
p982
aVbinding
p983
aVforeign-key-relationship
p984
aVbiztalk-2010
p985
aVonitemclicklistener
p986
aVvaadin
p987
aVkeystore
p988
aVx64
p989
aVangular-ui-bootstrap
p990
aVmatlab-figure
p991
aVuniversal-image-loader
p992
aVuiactivityindicatorview
p993
aValert
p994
aVcucumber
p995
aVamf
p996
aVpassword-encryption
p997
aVstack
p998
aVdecompiler
p999
aVng-grid
p1000
aVgoogletest
p1001
aVgoogle-webmaster-tools
p1002
aVuser-defined-functions
p1003
aVusing
p1004
aVspring-transactions
p1005
aVconditional-compilation
p1006
aVsetup-project
p1007
aVsidebar
p1008
aVindexof
p1009
aVsignals
p1010
aVsignalr
p1011
aVlocation
p1012
aVfacebook-wall
p1013
aVinput
p1014
aVgame-physics
p1015
aVxml-rpc
p1016
aVformat
p1017
aVheader-files
p1018
aVaugmented-reality
p1019
aVenumerable
p1020
aVprojects
p1021
aVjava-3d
p1022
aVsorting
p1023
aVd
p1024
aVmarquee
p1025
aVscapy
p1026
aVimagick
p1027
aVwindows-store-apps
p1028
aVclipping
p1029
aVmethods
p1030
aVspring
p1031
aVwxpython
p1032
aVvirtualenv
p1033
aVnetbeans-platform
p1034
aVlayout-manager
p1035
aVrails-postgresql
p1036
aVtelerik
p1037
aVteradata
p1038
aVandroid-maps-v2
p1039
aVmethod-overloading
p1040
aVgoogle-mirror-api
p1041
aVwget
p1042
aVzip
p1043
aVrelational-database
p1044
aVtext-mining
p1045
aVasmack
p1046
aVjasperserver
p1047
aVandroid-gradle
p1048
aVmedia-player
p1049
aVembedded-jetty
p1050
aVpcre
p1051
aVspan
p1052
aVspam
p1053
aVjax-rs
p1054
aVsubmit
p1055
aVbios
p1056
aVfile-rename
p1057
aVodp.net
p1058
aVeventkit
p1059
aVxpath
p1060
aVlint
p1061
aVlinq
p1062
aVdata-storage
p1063
aVatom
p1064
aVline
p1065
aVcin
p1066
aVcil
p1067
aVfile-sharing
p1068
aVverification
p1069
aVvisualsvn-server
p1070
aVpropertygrid
p1071
aVpgadmin
p1072
aVunsafe
p1073
aVchar
p1074
aVduration
p1075
aVchat
p1076
aVparsec
p1077
aVamqp
p1078
aVgnuplot
p1079
aVscrape
p1080
aVscrapy
p1081
aVcodec
p1082
aVactiveresource
p1083
aVrevision
p1084
aVelements
p1085
aVmemory-mapped-files
p1086
aVscrum
p1087
aVslice
p1088
aVlinq-to-sql
p1089
aVwindows-phone-7.5
p1090
aValgorithm
p1091
aVoracle
p1092
aVselenium-rc
p1093
aVhaving
p1094
aVpartial
p1095
aVhashmap
p1096
aVkernel-programming
p1097
aVejb-3.1
p1098
aVgoogle-drive
p1099
aVclean-urls
p1100
aVcython
p1101
aVsend
p1102
aVmulticore
p1103
aVlistviewitem
p1104
aVgetline
p1105
aVresources
p1106
aVunzip
p1107
aVmixins
p1108
aVpagination
p1109
aVspring.net
p1110
aVgtk3
p1111
aVgtk+
p1112
aVnuget-package
p1113
aVcategories
p1114
aVgtk#
p1115
aVentitymanager
p1116
aVcontenteditable
p1117
aViscroll
p1118
aVrack
p1119
aVbiztalk
p1120
aVasp-classic
p1121
aVsingle-page-application
p1122
aVvideo
p1123
aVicalendar
p1124
aVsql-server-2008
p1125
aVx++
p1126
aVhtml-helper
p1127
aVgit-clone
p1128
aVdirective
p1129
aVsql-server-2000
p1130
aVmultimedia
p1131
aVbirt
p1132
aVbox2d
p1133
aVheatmap
p1134
aVremote-debugging
p1135
aVslidingdrawer
p1136
aVsoftware-distribution
p1137
aVwireshark
p1138
aVwinapi
p1139
aVoctave
p1140
aVubuntu
p1141
aVlex
p1142
aVopenmp
p1143
aVsunspot-rails
p1144
aVrdp
p1145
aVreceive
p1146
aVdate-range
p1147
aVgetter-setter
p1148
aVwcf-ria-services
p1149
aVvoice-recognition
p1150
aVrdf
p1151
aVsurvey
p1152
aVderby
p1153
aVentity-relationship
p1154
aVkeylistener
p1155
aVjava-io
p1156
aVangularjs-scope
p1157
aVfirefox
p1158
aVvhosts
p1159
aVinstantiation
p1160
aVbazaar
p1161
aVcertificate
p1162
aVgoogle-app-engine
p1163
aVnext
p1164
aVcss-sprites
p1165
aVlcdui
p1166
aVfile-descriptor
p1167
aVviewgroup
p1168
aVbezier-curve
p1169
aVscheduled-tasks
p1170
aVjob-scheduling
p1171
aVportability
p1172
aVthis
p1173
aVtwitter-oauth
p1174
aVthin
p1175
aVnsdatecomponents
p1176
aVactiveadmin
p1177
aVbusiness-objects
p1178
aVrefinerycms
p1179
aVnative-code
p1180
aVprocess
p1181
aVslim
p1182
aVjavadoc
p1183
aVfprintf
p1184
aVimage-scaling
p1185
aVmalware
p1186
aVkey-value-observing
p1187
aVfacebook-sdk-3.0
p1188
aVnvd3.js
p1189
aVdelay
p1190
aVclient-side-validation
p1191
aVnpm
p1192
aVsession-cookies
p1193
aVtcsh
p1194
aVurl-rewriting
p1195
aVwallpaper
p1196
aVqtwebkit
p1197
aVout-of-memory
p1198
aVcounter
p1199
aVelement
p1200
aVnancy
p1201
aVosgi
p1202
aVface-recognition
p1203
aVjqgrid-asp.net
p1204
aVmove
p1205
aVjoptionpane
p1206
aVcomma
p1207
aVfacebook-c#-sdk
p1208
aVofstream
p1209
aVdirectx
p1210
aVdispose
p1211
aVgoogle-charts-api
p1212
aVinstruments
p1213
aVhttpcontext
p1214
aVdata-type-conversion
p1215
aVdocx
p1216
aVpython
p1217
aVsystem.reactive
p1218
aVdock
p1219
aVrotation
p1220
aVtransparent
p1221
aVpostgresql-9.1
p1222
aVpostgresql-9.2
p1223
aVruby-1.9
p1224
aVmerge
p1225
aVoncreate
p1226
aVcomplexity-theory
p1227
aVsubset
p1228
aVapp-config
p1229
aVmeta
p1230
aVstatic
p1231
aVcpanel
p1232
aVknockout-2.0
p1233
aVbpel
p1234
aVxmldocument
p1235
aVankhsvn
p1236
aVmatrix
p1237
aVkohana-3
p1238
aVandroid-gcm
p1239
aVspecifications
p1240
aVunderscore.js
p1241
aVcore-bluetooth
p1242
aVdhcp
p1243
aVsendmail
p1244
aVsubclipse
p1245
aVthrust
p1246
aVgit-merge
p1247
aVlexer
p1248
aVandroid-image
p1249
aVuibezierpath
p1250
aVunobtrusive-javascript
p1251
aVstruts-1
p1252
aVweb.xml
p1253
aVabstract-class
p1254
aVpyside
p1255
aVordering
p1256
aVundefined-behavior
p1257
aVsticky-footer
p1258
aVcore-foundation
p1259
aVgwt-rpc
p1260
aVlibusb
p1261
aVsubroutine
p1262
aVsimd
p1263
aVjscrollpane
p1264
aVtimepicker
p1265
aVviewer
p1266
aVgrails
p1267
aVcobertura
p1268
aVreverse-geocoding
p1269
aVsysadmin
p1270
aVlike-operator
p1271
aVselectors
p1272
aVasp.net
p1273
aVlotusscript
p1274
aVsinatra
p1275
aVjboss7.x
p1276
aVsoap
p1277
aVpersistence
p1278
aVimplicit-conversion
p1279
aVobserver-pattern
p1280
aVwso2carbon
p1281
aVcipher
p1282
aVsimplecursoradapter
p1283
aVdevice
p1284
aVindexoutofboundsexception
p1285
aVanimated-gif
p1286
aVdata-transfer
p1287
aVdbi
p1288
aVatmosphere
p1289
aVterminate
p1290
aVdbf
p1291
aVuml-modeling
p1292
aVforceclose
p1293
aVredirect
p1294
aVrestlet
p1295
aVremoveclass
p1296
aVjar
p1297
aVjstree
p1298
aVterminal
p1299
aVentities
p1300
aVdjango-urls
p1301
aVhandle
p1302
aVlistener
p1303
aVtableadapter
p1304
aVeclipse-kepler
p1305
aVdb2
p1306
aVmemcpy
p1307
aVandroid-camera
p1308
aVaes
p1309
aVrebase
p1310
aVdefault
p1311
aVhmvc
p1312
aVqtp
p1313
aVframe
p1314
aVpacket
p1315
aVjqplot
p1316
aVms-dos
p1317
aVsql-update
p1318
aVverilog
p1319
aVemail
p1320
aVqt4
p1321
aVqt5
p1322
aVsuperfish
p1323
aVjsdoc
p1324
aVconfiguration
p1325
aVcocoapods
p1326
aVtls
p1327
aVdoxygen
p1328
aVvalgrind
p1329
aVitertools
p1330
aVuiactionsheet
p1331
aVetl
p1332
aVandroid-wifi
p1333
aVbundling-and-minification
p1334
aVevent-handling
p1335
aVchromium
p1336
aVmailto
p1337
aVlist-comprehension
p1338
aVandroid-dialogfragment
p1339
aVsweave
p1340
aVimage-recognition
p1341
aVurl-routing
p1342
aVobjective-c++
p1343
aVc#
p1344
aVopenvpn
p1345
aVtycho
p1346
aVjquery-templates
p1347
aVblackberry-eclipse-plugin
p1348
aVgraphics
p1349
aVcocos2d-android
p1350
aVcvs
p1351
aVframeworks
p1352
aVintranet
p1353
aVlibxml2
p1354
aVmodalpopupextender
p1355
aVimagemap
p1356
aVpassbook
p1357
aVstdstring
p1358
aVdataview
p1359
aVdompdf
p1360
aVrailstutorial.org
p1361
aVandroid
p1362
aVopenoffice-calc
p1363
aVmailchimp
p1364
aVinfinite
p1365
aVphp
p1366
aVidentity
p1367
aVxcode4
p1368
aVaudit
p1369
aVcode-reuse
p1370
aVrelative-path
p1371
aVpatterns
p1372
aVcommand
p1373
aVaudio
p1374
aVdrawing
p1375
aVipad-splitview
p1376
aVless
p1377
aVxen
p1378
aVsearch-and-replace
p1379
aVweb
p1380
aVpath-finding
p1381
aVnstextview
p1382
aVspinner
p1383
aVlattice
p1384
aVscriptmanager
p1385
aVccsprite
p1386
aVprimefaces
p1387
aVcss3
p1388
aVhabtm
p1389
aVmorphia
p1390
aVcrud
p1391
aVbit-manipulation
p1392
aVheight
p1393
aVsamsung-mobile
p1394
aVdatabase-replication
p1395
aVlambda-functions
p1396
aVvisualsvn
p1397
aVmsbuild-task
p1398
aVdoubly-linked-list
p1399
aVvsx
p1400
aVgcc-warning
p1401
aVgevent
p1402
aVflush
p1403
aVnested-attributes
p1404
aVmarklogic
p1405
aVpreload
p1406
aVschedule
p1407
aVcustom-data-attribute
p1408
aVieee-754
p1409
aVsymlink
p1410
aVmaven
p1411
aVdataannotations
p1412
aVsqlconnection
p1413
aVsigabrt
p1414
aVstage
p1415
aVhaproxy
p1416
aVtrue-type-fonts
p1417
aVrichtext
p1418
aVconstraints
p1419
aVuiviewcontroller
p1420
aVpassword-protection
p1421
aVafnetworking-2
p1422
aVqmake
p1423
aVnavigationbar
p1424
aVvirtualbox
p1425
aVflash-cs3
p1426
aVjodatime
p1427
aVflash-cs6
p1428
aVpython-3.3
p1429
aVflash-cs4
p1430
aVflash-cs5
p1431
aVpie-chart
p1432
aVappfabric
p1433
aVdynamic-sql
p1434
aVstreamreader
p1435
aVfunction
p1436
aVnumerical-methods
p1437
aVoverlapping
p1438
aVautomapper
p1439
aVcount
p1440
aVhtmlunit
p1441
aVpython-3.x
p1442
aVsmooth
p1443
aVcocos2d-iphone
p1444
aVr.java-file
p1445
aVfrequency
p1446
aVcocoa-touch
p1447
aVdistribution
p1448
aVjdialog
p1449
aVsscanf
p1450
aVtimespan
p1451
aVint
p1452
aVhibernate-criteria
p1453
aVini
p1454
aVxpages-extlib
p1455
aVvector-graphics
p1456
aVlookup
p1457
aVhpc
p1458
aVunit-testing
p1459
aVweb-sql
p1460
aVrepeat
p1461
aVhardware-acceleration
p1462
aVaddthis
p1463
aVinstall4j
p1464
aVrich-text-editor
p1465
aVxamarin
p1466
aVeof
p1467
aVios-ui-automation
p1468
aVms-project
p1469
aVuitableviewcontroller
p1470
aVrule
p1471
aVhttp-status-code-404
p1472
aVwin32com
p1473
aVhttp-status-code-401
p1474
aVamazon-dynamodb
p1475
aVhttp-status-code-403
p1476
aVspring-3
p1477
aVprototypejs
p1478
aVinsert-update
p1479
aVmac-app-store
p1480
aVaudiounit
p1481
aVrelationships
p1482
aVlgpl
p1483
aVconst
p1484
aVmpmovieplayercontroller
p1485
aVzxing
p1486
aVmatlab
p1487
aVmouseout
p1488
aVfacebook-likebox
p1489
aVhtml5-canvas
p1490
aVassetic
p1491
aVreplication
p1492
aVm2e
p1493
aVtagging
p1494
aVunity3d
p1495
aVjprogressbar
p1496
aVcmd
p1497
aVupload
p1498
aVgoogle-closure-library
p1499
aVnsarray
p1500
aVatk4
p1501
aVmp3
p1502
aVlong-polling
p1503
aVchef
p1504
aVilist
p1505
aVappsettings
p1506
aVandroid-intent
p1507
aVrenderscript
p1508
aVdecoding
p1509
aVopenxml-sdk
p1510
aVtextures
p1511
aVlinear-regression
p1512
aVfacebook-android-sdk
p1513
aVwrapping
p1514
aVequals
p1515
aVpygtk
p1516
aVprotection
p1517
aVvisual-studio-addins
p1518
aVplaceholder
p1519
aVglm
p1520
aVdebug-symbols
p1521
aVbitmapimage
p1522
aVitunes
p1523
aVtemporary-files
p1524
aVruby-on-rails-plugins
p1525
aVlogback
p1526
aVplot
p1527
aVfortran90
p1528
aVbundler
p1529
aVbackgroundworker
p1530
aVfile-exists
p1531
aVcomposer-php
p1532
aVcpu-registers
p1533
aVshopping-cart
p1534
aVdynamic-linq
p1535
aVblocking
p1536
aVwebmethod
p1537
aVwix3.6
p1538
aVwix3.5
p1539
aVword
p1540
aVangularjs-ng-repeat
p1541
aVeclipse
p1542
aVjtable
p1543
aVtransparency
p1544
aVscripting
p1545
aVwordpress-theming
p1546
aVfacebook-authentication
p1547
aVmvvmcross
p1548
aVfmdb
p1549
aVuac
p1550
aVplist
p1551
aVrecovery
p1552
aVuifont
p1553
aViso-8859-1
p1554
aVcore-graphics
p1555
aVlan
p1556
aVlag
p1557
aVopenal
p1558
aVcalayer
p1559
aVmpi
p1560
aVcontext-free-grammar
p1561
aVsparql
p1562
aVassignment-operator
p1563
aVorder
p1564
aVnamed-scope
p1565
aVgoogle-checkout
p1566
aVeigen
p1567
aVoffice
p1568
aVxsl-fo
p1569
aVpascal
p1570
aVbuttonclick
p1571
aVjquery-ui-autocomplete
p1572
aVamazon-cloudfront
p1573
aVjdk1.6
p1574
aVglassfish
p1575
aVtypescript
p1576
aVuipangesturerecognizer
p1577
aVfragment
p1578
aVinfinite-scroll
p1579
aVbreak
p1580
aVrefactoring
p1581
aVjinja2
p1582
aVcloudera
p1583
aVleft-join
p1584
aVnullable
p1585
aVthree20
p1586
aVright-to-left
p1587
aVfeeds
p1588
aVprawn
p1589
aVinfragistics
p1590
aVuicolor
p1591
aVsprintf
p1592
aVsliding
p1593
aVwindows-vista
p1594
aVputty
p1595
aVsegmentation-fault
p1596
aVcollation
p1597
aVsoundcloud
p1598
aVwcf-rest
p1599
aVmvp
p1600
aVjslint
p1601
aVmvc
p1602
aVtextinput
p1603
aVbenchmarking
p1604
aVobservablecollection
p1605
aVrender
p1606
aVsystem
p1607
aVpython-sphinx
p1608
aVslidetoggle
p1609
aVweb-audio
p1610
aVcustom-server-controls
p1611
aVinflate
p1612
aVfitnesse
p1613
aVdecompiling
p1614
aVtex
p1615
aVtarget
p1616
aVphp-fpm
p1617
aVebay
p1618
aVhacking
p1619
aVbinary-data
p1620
aVweb-api
p1621
aVuiview
p1622
aVrewrite
p1623
aVdiscrete-mathematics
p1624
aVintentservice
p1625
aVangularjs
p1626
aVlatency
p1627
aVdbms
p1628
aVawtrobot
p1629
aVyui3
p1630
aVindexes
p1631
aVvisual-studio
p1632
aVreportingservices-2008
p1633
aVgoogle-analytics-api
p1634
aVssl-certificate
p1635
aVwebcam
p1636
aVgraphics2d
p1637
aVqt-designer
p1638
aVleaflet
p1639
aVjointable
p1640
aVwildcard
p1641
aVheuristics
p1642
aVhtml-parsing
p1643
aVimage-segmentation
p1644
aVogg
p1645
aVtoast
p1646
aVpalindrome
p1647
aVcircular-reference
p1648
aVgraph-algorithm
p1649
aVimplementation
p1650
aVgson
p1651
aVsetup.py
p1652
aVuicollectionviewlayout
p1653
aVspeech-to-text
p1654
aViptables
p1655
aVpushviewcontroller
p1656
aVcryptography
p1657
aVuitoolbar
p1658
aVaspxgridview
p1659
aVidioms
p1660
aVasync-await
p1661
aVienumerable
p1662
aVabaddressbook
p1663
aVzookeeper
p1664
aVshared-memory
p1665
aVanalytics
p1666
aVdirectshow.net
p1667
aVivalueconverter
p1668
aVopenfiledialog
p1669
aVlapply
p1670
aVtype-inference
p1671
aVctypes
p1672
aVpreprocessor
p1673
aVopenjpa
p1674
aVpackages
p1675
aVwx
p1676
aVcoq
p1677
aVclaims-based-identity
p1678
aVcocos2d-x
p1679
aVtfs2012
p1680
aVtfs2010
p1681
aVreceiver
p1682
aVcom
p1683
aVandroid-gallery
p1684
aVhorizontalscrollview
p1685
aVguid
p1686
aVlatitude-longitude
p1687
aVcoredump
p1688
aVshoulda
p1689
aVnsfetchrequest
p1690
aVhtml5-video
p1691
aVnstimer
p1692
aVaix
p1693
aVgnu
p1694
aVlauncher
p1695
aViqueryable
p1696
aVzlib
p1697
aVair
p1698
aVformatting
p1699
aVvoice
p1700
aVrails-admin
p1701
aVlive-wallpaper
p1702
aVjoomla1.5
p1703
aVtext-extraction
p1704
aVserver-push
p1705
aVhebrew
p1706
aVnetbeans-6.9
p1707
aVcouchdb
p1708
aVgoogle-apps-script
p1709
aVleiningen
p1710
aVlog4j
p1711
aVnio
p1712
aVnil
p1713
aVsignalr-hub
p1714
aVnib
p1715
aVraii
p1716
aVhang
p1717
aVfuse
p1718
aVlevenshtein-distance
p1719
aVandroid-fragments
p1720
aVapache-httpclient-4.x
p1721
aVsystem.diagnostics
p1722
aVdepth-first-search
p1723
aVmany-to-many
p1724
aVcasperjs
p1725
aVwebsphere-portal
p1726
aVsolaris
p1727
aVphoto
p1728
aVhttp-status-code-301
p1729
aVquotes
p1730
aVcurrying
p1731
aVonload
p1732
aVubuntu-11.04
p1733
aVmsxml
p1734
aVopencl
p1735
aVopencv
p1736
aVasp.net-mvc-areas
p1737
aVdatabase-design
p1738
aVmaya
p1739
aVfilestream
p1740
aVmicrocontroller
p1741
aVword-wrap
p1742
aVjekyll
p1743
aVsimplemodal
p1744
aVscikit-learn
p1745
aVwindows-server-2003
p1746
aVsecurity
p1747
aVwindows-server-2008
p1748
aVdelphi-xe2
p1749
aVtitlebar
p1750
aVpreg-match-all
p1751
aVnsmutabledictionary
p1752
aVjtabbedpane
p1753
aVfacebook-php-sdk
p1754
aVcomments
p1755
aVplone
p1756
aVwso2
p1757
aVuigesturerecognizer
p1758
aVgeocoding
p1759
aVpaypal-api
p1760
aVrepository
p1761
aVzend-db-table
p1762
aVdelete-row
p1763
aVtime-series
p1764
aVsubstitution
p1765
aVpost
p1766
aVproperties
p1767
aVrstudio
p1768
aVgoogle-maps
p1769
aVasp.net-3.5
p1770
aVquery-optimization
p1771
aVautohotkey
p1772
aVmsdeploy
p1773
aVrendering
p1774
aVhaskell
p1775
aVsfml
p1776
aVinitializer-list
p1777
aVjdbc
p1778
aVcompression
p1779
aVconfiguration-files
p1780
aVredmine
p1781
aVoracle11g
p1782
aVsqldatareader
p1783
aVwav
p1784
aVtcpdump
p1785
aVwar
p1786
aVsqlalchemy
p1787
aVeclipse-emf
p1788
aVbelongs-to
p1789
aVcatalyst
p1790
aVgwt2
p1791
aVuisearchdisplaycontroller
p1792
aVandroid-edittext
p1793
aVsyscall
p1794
aVthunderbird
p1795
aVabstract
p1796
aVfulltext
p1797
aVmysql-error-1064
p1798
aVfull-text-search
p1799
aVarchive
p1800
aVyii-db
p1801
aVormlite-servicestack
p1802
aVdouble-quotes
p1803
aVtruncate
p1804
aVdotnet-httpclient
p1805
aVnotepad
p1806
aVurllib2
p1807
aVavaudiorecorder
p1808
aVpushstate
p1809
aVapplescript
p1810
aVglobal
p1811
aVpadrino
p1812
aVrectangles
p1813
aVscrollviewer
p1814
aVgoogle-fusion-tables
p1815
aVvarnish
p1816
aVflask
p1817
aVgraph
p1818
aVflash
p1819
aVjvm
p1820
aVhttp-post
p1821
aVandroid-testing
p1822
aVpredicate
p1823
aVfunctional-testing
p1824
aVnsdictionary
p1825
aVglobal-asax
p1826
aVanonymous
p1827
aVgui
p1828
aVfftw
p1829
aVhtc
p1830
aVhta
p1831
aVphpunit
p1832
aVhdfs
p1833
aViphone-sdk-3.0
p1834
aVshared
p1835
aVgawk
p1836
aVapache
p1837
aVhdf5
p1838
aVtreemap
p1839
aVdb4o
p1840
aVbehat
p1841
aVxcode5
p1842
aVgrails-controller
p1843
aVapache-camel
p1844
aVfilezilla
p1845
aVgsub
p1846
aVtabpanel
p1847
aVmongodb-csharp
p1848
aVandroid-actionbar
p1849
aVmarket
p1850
aVregex
p1851
aVhttpd
p1852
aVrails-activerecord
p1853
aVshared-ptr
p1854
aVgoogle-street-view
p1855
aVlive
p1856
aVhttps
p1857
aVquartz.net
p1858
aVruby-1.9.3
p1859
aVavaudiosession
p1860
aVcoldfusion-10
p1861
aVaforge
p1862
aVmonotouch
p1863
aVnested-class
p1864
aVwindows-7-x64
p1865
aVselectonemenu
p1866
aVlogarithm
p1867
aVgoogle-closure-compiler
p1868
aVgraphic
p1869
aVmemory-alignment
p1870
aVquartz-2d
p1871
aVcas
p1872
aVcat
p1873
aViframe
p1874
aVsql-injection
p1875
aVsubstring
p1876
aVabort
p1877
aVspl
p1878
aVcopy-constructor
p1879
aVlxml
p1880
aVmsmq
p1881
aVandroid-alarms
p1882
aVaccess-control
p1883
aVproduct
p1884
aVoutlook-2010
p1885
aVjquery-ui-draggable
p1886
aVnearest-neighbor
p1887
aVaop
p1888
aVcompatibility
p1889
aVgoogle-cloud-sql
p1890
aVhtml.dropdownlistfor
p1891
aVinclude-path
p1892
aVgoogle-bigquery
p1893
aVcorona
p1894
aVscala-2.8
p1895
aVghc
p1896
aVzen-cart
p1897
aVrails-routing
p1898
aVneural-network
p1899
aVexcel-interop
p1900
aVdatabase-connection
p1901
aVgraphviz
p1902
aVeclipse-indigo
p1903
aVevent-dispatch-thread
p1904
aVstack-trace
p1905
aVarduino
p1906
aVuilabel
p1907
aVforms
p1908
aVyaml
p1909
aVwindow
p1910
aVmultiline
p1911
aVsaxon
p1912
aVfxcop
p1913
aVerror-logging
p1914
aVember.js
p1915
aVerror-handling
p1916
aVpass-by-value
p1917
aVrake
p1918
aVscaling
p1919
aVcqrs
p1920
aVwix3
p1921
aVdrop
p1922
aVxmlpullparser
p1923
aVtypetraits
p1924
aVpycharm
p1925
aVel
p1926
aVjquery-animate
p1927
aVcairo
p1928
aVhttpwebresponse
p1929
aVgaussian
p1930
aVhighstock
p1931
aVphp-5.4
p1932
aVphp-5.3
p1933
aVnaming
p1934
aVtask-parallel-library
p1935
aVspace
p1936
aVelastic-beanstalk
p1937
aVsoftware-design
p1938
aVxamarin-studio
p1939
aVfilewriter
p1940
aVuwsgi
p1941
aVcart
p1942
aVandroid-ui
p1943
aVdependencies
p1944
aVtransition
p1945
aVstring-formatting
p1946
aVnsmanagedobject
p1947
aVlambda
p1948
aVandroid-resources
p1949
aVvariables
p1950
aVsavefiledialog
p1951
aVmessage
p1952
aVforwarding
p1953
aVangular
p1954
aVsize
p1955
aVchecked
p1956
aVyii
p1957
aVcarousel
p1958
aVcrash-dumps
p1959
aVfriend
p1960
aVminitest
p1961
aVpecl
p1962
aVpng
p1963
aVthumbnails
p1964
aVmysql-management
p1965
aVrobots.txt
p1966
aVgpgpu
p1967
aVapplet
p1968
aVtitanium-mobile
p1969
aVdjango-orm
p1970
aVamazon-s3
p1971
aVbrowser
p1972
aVdependency-management
p1973
aVfork
p1974
aVmvvm
p1975
aVbufferedimage
p1976
aVgesture-recognition
p1977
aVresponse.redirect
p1978
aVwcf
p1979
aVandengine
p1980
aVwatir-webdriver
p1981
aVmobile-safari
p1982
aVubercart
p1983
aVsql-order-by
p1984
aVnsnotifications
p1985
aVcarriage-return
p1986
aVscreen-scraping
p1987
aVip-address
p1988
aVqwebview
p1989
aVupgrade
p1990
aVtitle
p1991
aVmonkeyrunner
p1992
aVhierarchy
p1993
aVadobe-illustrator
p1994
aVdatatemplate
p1995
aVlocationmanager
p1996
aVboolean-logic
p1997
aVfft
p1998
aVjtextfield
p1999
aVdatamapper
p2000
aVandroid-bluetooth
p2001
aVwebapp2
p2002
aVpostgis
p2003
aVitemscontrol
p2004
aVsonar
p2005
aVformtastic
p2006
aVgoogle-geocoder
p2007
aVadd-in
p2008
aVtablesorter
p2009
aVgdata
p2010
aVnslayoutconstraint
p2011
aVactionscript-3
p2012
aVbetween
p2013
aVimport
p2014
aVjta
p2015
aVwebsphere
p2016
aVpthreads
p2017
aVanalyzer
p2018
aVarticle
p2019
aVpixels
p2020
aVexpression-blend
p2021
aVinstallation
p2022
aVvideo-encoding
p2023
aVmono
p2024
aVindy10
p2025
aVgwt
p2026
aVembedding
p2027
aVcomet
p2028
aVinversion-of-control
p2029
aVcodeigniter-2
p2030
aVframeset
p2031
aVosx-lion
p2032
aVdispatch
p2033
aVnokogiri
p2034
aVexploit
p2035
aVcaret
p2036
aVruntime-error
p2037
aVruby-on-rails-3.1
p2038
aVruby-on-rails-3.2
p2039
aVgridfs
p2040
aVaero
p2041
aVexternal
p2042
aVcodeigniter-url
p2043
aVnsurlrequest
p2044
aVruby
p2045
aVpayment-gateway
p2046
aVlog4net-configuration
p2047
aVkey-value-coding
p2048
aVuitouch
p2049
aVsharepoint-workflow
p2050
aVyahoo-api
p2051
aVorientation
p2052
aVstdout
p2053
aVdatastore
p2054
aVmedia
p2055
aVservlets
p2056
aVmsdtc
p2057
aVepoch
p2058
aVcapybara
p2059
aVdocument
p2060
aVavl-tree
p2061
aVhadoop-streaming
p2062
aVmedia-queries
p2063
aVandroid-viewpager
p2064
aVscrolltop
p2065
aVcrystal-reports
p2066
aV8086
p2067
aVcore-image
p2068
aValfresco
p2069
aVdata-mining
p2070
aVsystem.drawing
p2071
aVbreeze
p2072
aVsharepoint-2010
p2073
aVcck
p2074
aVin-app-purchase
p2075
aVsqliteopenhelper
p2076
aVsublimetext
p2077
aVcocos2d
p2078
aVtouch
p2079
aVaction-filter
p2080
aVstruct
p2081
aVimagebutton
p2082
aVmmap
p2083
aVdesktop
p2084
aVhover
p2085
aVandroid-lifecycle
p2086
aVrules
p2087
aVswig
p2088
aVamd
p2089
aVmousemove
p2090
aVlwjgl
p2091
aVappkit
p2092
aVexecution
p2093
aVdeep-copy
p2094
aVandroid-listview
p2095
aVblackberry
p2096
aVoutput
p2097
aVcomputer-science
p2098
aVdjango-queries
p2099
aVstrcmp
p2100
aVcisco
p2101
aVuppercase
p2102
aVandroid-c2dm
p2103
aVfgets
p2104
aVejb-3.0
p2105
aVbigdata
p2106
aVinno-setup
p2107
aVuser-profile
p2108
aVassembly
p2109
aVpylons
p2110
aVdatabase-performance
p2111
aVtdd
p2112
aVontology
p2113
aVthrow
p2114
aVmovieclip
p2115
aVcrystal-reports-2010
p2116
aVcomparison
p2117
aVviewstate
p2118
aVazureservicebus
p2119
aVstruts2
p2120
aVbackup
p2121
aVprocessor
p2122
aVoutlook
p2123
aVprovisioning-profile
p2124
aVsplash-screen
p2125
aVsuppress-warnings
p2126
aVmule-studio
p2127
aVopengl
p2128
aVarel
p2129
aVnpapi
p2130
aVmouseenter
p2131
aVwindows-server-2008-r2
p2132
aVmultitasking
p2133
aVembedded
p2134
aVasp.net-mvc-2
p2135
aVasp.net-mvc-3
p2136
aVasp.net-mvc-4
p2137
aVasp.net-mvc-5
p2138
aVdefine
p2139
aVandroid-alertdialog
p2140
aVcakephp-appmodel
p2141
aVinner-classes
p2142
aVboost-spirit-qi
p2143
aVibatis
p2144
aVminify
p2145
aVstorage
p2146
aVringtone
p2147
aVpear
p2148
aVregistry
p2149
aVpool
p2150
aVbulk
p2151
aVandroid-progressbar
p2152
aVpowershell-v2.0
p2153
aVxcopy
p2154
aVvalidator
p2155
aVdigital-certificate
p2156
aVsemantic
p2157
aVgoogle-spreadsheet-api
p2158
aVsplitting
p2159
aVmp4
p2160
aVweb-worker
p2161
aVopenlayers
p2162
aVsharepoint2013
p2163
aVandroid-mediaplayer
p2164
aViconv
p2165
aVicons
p2166
aVandroid-cursor
p2167
aVwmi
p2168
aVnodes
p2169
aVportforwarding
p2170
aVjboss6.x
p2171
aVsortable
p2172
aVdatatrigger
p2173
aVswiftmailer
p2174
aVmapreduce
p2175
aVurlencode
p2176
aVandroid-permissions
p2177
aVcookies
p2178
aVinstagram
p2179
aVjquery-effects
p2180
aVmojarra
p2181
aVpivot-table
p2182
aVreportingservices-2005
p2183
aVcertificates
p2184
aVnant
p2185
aVmodify
p2186
aVgrails-2.0
p2187
aVcaliburn.micro
p2188
aVpopen
p2189
aVundefined-reference
p2190
aVadvertising
p2191
aVpermutation
p2192
aVinvalidate
p2193
aVjre
p2194
aVshuffle
p2195
aVhlsl
p2196
aVcustom-fields
p2197
aVjoomla2.5
p2198
aVhref
p2199
aVadd-on
p2200
aVhelper
p2201
aVjavascript-framework
p2202
aVjcarousel
p2203
aVcontains
p2204
aVvi
p2205
aVauthorization
p2206
aVquickbooks-online
p2207
aVtemp-tables
p2208
aVhashcode
p2209
aVitext
p2210
aVgit-branch
p2211
aVhardware
p2212
aVazure-worker-roles
p2213
aVgql
p2214
aVnetbeans-7
p2215
aVmvvm-light
p2216
aVhistory
p2217
aVswfobject
p2218
aVf#
p2219
aVmagento
p2220
aVexclude
p2221
aVdjango-models
p2222
aVspreadsheet
p2223
aVoracle10g
p2224
aVpygame
p2225
aVshell-exec
p2226
aVpiglatin
p2227
aVopengl-es-2.0
p2228
aVtextview
p2229
aVpowerbuilder
p2230
aVexcel-2010
p2231
aVcoldfusion-9
p2232
aVcoldfusion-8
p2233
aVfirebreath
p2234
aVgruntjs
p2235
aVtext-editor
p2236
aVscss
p2237
aVapplication-settings
p2238
aVdocumentation
p2239
aVhsqldb
p2240
aVinline
p2241
aVuninstall
p2242
aVphotoshop
p2243
aV2d-array
p2244
aVasp.net-4.5
p2245
aVtaxonomy
p2246
aVmockito
p2247
aVasp.net-4.0
p2248
aVssh-keys
p2249
aVskinning
p2250
aVios-simulator
p2251
aVffi
p2252
aVcustom-controls
p2253
aVinfinite-loop
p2254
aVaggregation-framework
p2255
aVpsycopg2
p2256
aVselenium
p2257
aVaccess-token
p2258
aVdynamic-memory-allocation
p2259
aVterrain
p2260
aVio-redirection
p2261
aVtextwrapping
p2262
aVfile-handling
p2263
aVreferrer
p2264
aVdecimal
p2265
aVpreferenceactivity
p2266
aVcordova-2.0.0
p2267
aVfluent-interface
p2268
aVsingle-sign-on
p2269
aVtext-processing
p2270
aVgemfile
p2271
aVpreg-replace
p2272
aVpublish
p2273
aVtask-queue
p2274
aVgpl
p2275
aVast
p2276
aVtimeline
p2277
aVsymbian
p2278
aVbase
p2279
aVput
p2280
aVfluid-layout
p2281
aVrecv
p2282
aVbash
p2283
aVlaunch
p2284
aVdrupal
p2285
aVcaption
p2286
aVshellexecute
p2287
aVassign
p2288
aVtabitem
p2289
aVsingleton
p2290
aVacts-as-taggable-on
p2291
aVprobability
p2292
aVencoding
p2293
aVv8
p2294
aVlarge-data
p2295
aVfile-transfer
p2296
aVlucene-index
p2297
aVbinaryfiles
p2298
aVweblogic
p2299
aVexpand
p2300
aVcluster-analysis
p2301
aVzeromq
p2302
aVscheme
p2303
aVslidedown
p2304
aVschema
p2305
aVascx
p2306
aVgetter
p2307
aVbower
p2308
aVmultiple-instances
p2309
aVtranslation
p2310
aVtfs
p2311
aVjquery
p2312
aVdto
p2313
aVffmpeg
p2314
aVstl
p2315
aV.htaccess
p2316
aVdtd
p2317
aVgedit
p2318
aVnull
p2319
aVfacebook-canvas
p2320
aVkoala
p2321
aVpython-2.7
p2322
aVpython-2.6
p2323
aVpython-2.5
p2324
aVboxplot
p2325
aVzepto
p2326
aVraspberry-pi
p2327
aVbug-tracking
p2328
aVquote
p2329
aVmultilingual
p2330
aVnsoperationqueue
p2331
aValpha
p2332
aVpython-2.x
p2333
aVexecutable-jar
p2334
aVmobile
p2335
aVclear
p2336
aVnsdateformatter
p2337
aVwsimport
p2338
aVvelocity
p2339
aVblend
p2340
aVflicker
p2341
aVtastypie
p2342
aVscrollview
p2343
aVlanguage-features
p2344
aVparameters
p2345
aVgoogle-play
p2346
aVcontroltemplate
p2347
aVcircle
p2348
aVglut
p2349
aVsocketexception
p2350
aVhotmail
p2351
aVdata-access-layer
p2352
aVcombinations
p2353
aVgrep
p2354
aVfacebook-ios-sdk
p2355
aVegit
p2356
aVboost
p2357
aVgit-rebase
p2358
aVbusiness-logic
p2359
aVlocale
p2360
aVcore-audio
p2361
aVculture
p2362
aVrtmp
p2363
aVportrait
p2364
aVqtip
p2365
aVkeypress
p2366
aVxna-4.0
p2367
aVscalability
p2368
aVcore-location
p2369
aVknockout.js
p2370
aVboto
p2371
aVxcode4.6
p2372
aVprimary-key
p2373
aVfileinputstream
p2374
aVbots
p2375
aVruby-on-rails-4
p2376
aVruby-on-rails-2
p2377
aVruby-on-rails-3
p2378
aVbattery
p2379
aVheader
p2380
aVlinux
p2381
aVfacebook-fql
p2382
aVdestructor
p2383
aVhtml-form
p2384
aVspecial-characters
p2385
aVmaintenance
p2386
aVwill-paginate
p2387
aVshortcode
p2388
aVandroid-maps
p2389
aVbrowser-cache
p2390
aVcovariance
p2391
aVserversocket
p2392
aVtwitter-bootstrap-3
p2393
aVwakelock
p2394
aVimap
p2395
aVfloating-point
p2396
aVpublish-subscribe
p2397
aVresponsive-design
p2398
aVmainframe
p2399
aVchecksum
p2400
aVbookmarklet
p2401
aVprolog
p2402
aVmalloc
p2403
aVjpa
p2404
aVskype
p2405
aVgimp
p2406
aVautosize
p2407
aVfedora
p2408
aVlibcurl
p2409
aVtext-to-speech
p2410
aVjpa-2.0
p2411
aVmodel-binding
p2412
aVzope
p2413
aVcomposition
p2414
aVconflict
p2415
aVinterpolation
p2416
aVstorekit
p2417
aVandroid-sqlite
p2418
aVbrowser-history
p2419
aVmshtml
p2420
aVgsp
p2421
aVsha1
p2422
aVdojox.grid.datagrid
p2423
aVdatabase
p2424
aVdocker
p2425
aVrbenv
p2426
aVgsl
p2427
aVc++builder
p2428
aVpacket-sniffers
p2429
aVcout
p2430
aVtinymce
p2431
aVpywin32
p2432
aVunique-constraint
p2433
aVjdeveloper
p2434
aVlibpcap
p2435
aVormlite
p2436
aVshortcut
p2437
aVvsix
p2438
aVreportviewer
p2439
aVtransformation
p2440
aVpython-multithreading
p2441
aVnginx
p2442
aVoverriding
p2443
aVactivex
p2444
aVsubmission
p2445
aVnsview
p2446
aVmanifest
p2447
aVwordpress-plugin-dev
p2448
aVwininet
p2449
aVterminology
p2450
aVfreebase
p2451
aVcreation
p2452
aVsame-origin-policy
p2453
aVdocusignapi
p2454
aVexec
p2455
aVid3
p2456
aVmaven-assembly-plugin
p2457
aVcgi
p2458
aVrun
p2459
aVprocessing
p2460
aVbitmapfactory
p2461
aVjdbctemplate
p2462
aVwindows-store
p2463
aVgnome
p2464
aVtracing
p2465
aVgithub-api
p2466
aVsimulation
p2467
aVidl
p2468
aVdatasource
p2469
aVjsp
p2470
aVide
p2471
aVshiny
p2472
aVandroid-contacts
p2473
aVblock
p2474
aVactive-directory
p2475
aVgtkmm
p2476
aVweb-crawler
p2477
aVperformancecounter
p2478
aVstatistics
p2479
aVinstance-variables
p2480
aVapp-engine-ndb
p2481
aVheroku
p2482
aVandroid-file
p2483
aVstatic-linking
p2484
aVinjection
p2485
aVrequestfactory
p2486
aVfacebook-sharer
p2487
aVutc
p2488
aVutf
p2489
aVmiddleware
p2490
aVviewbag
p2491
aVaccessibility
p2492
aVxslt-1.0
p2493
aVflowplayer
p2494
aVnsuserdefaults
p2495
aVgecko
p2496
aVcross-compiling
p2497
aVpolygon
p2498
aVfirst-responder
p2499
aVnan
p2500
aVnav
p2501
aVnat
p2502
aVload-balancing
p2503
aVpandas
p2504
aVdraw
p2505
aVmongodb
p2506
aVmediaelement
p2507
aVdrag
p2508
aVeval
p2509
aVstructure
p2510
aVnsdocument
p2511
aVwebdriver
p2512
aVsvm
p2513
aVzooming
p2514
aVphysics
p2515
aVdjango-registration
p2516
aVrequired
p2517
aVyoutube
p2518
aVdepth
p2519
aVcustom-component
p2520
aVblackberry-jde
p2521
aVaccess-violation
p2522
aVmsbuild
p2523
aVjson.net
p2524
aVgd
p2525
aVgo
p2526
aVuistoryboardsegue
p2527
aVinformation-retrieval
p2528
aVwizard
p2529
aVtext-alignment
p2530
aVrollback
p2531
aVgamekit
p2532
aVflickr-api
p2533
aVdrupal-theming
p2534
aVtortoisegit
p2535
aVbit-shift
p2536
aVmercurial
p2537
aVbutton
p2538
aVspring-jdbc
p2539
aVhive
p2540
aVolap
p2541
aVgeospatial
p2542
aVglfw
p2543
aVtidesdk
p2544
aVpicker
p2545
aVzk
p2546
aVdownload
p2547
aVclick
p2548
aVphpdoc
p2549
aVresque
p2550
aVcell
p2551
aVimporterror
p2552
aVvolatile
p2553
aVvb6
p2554
aVplayn
p2555
aVdrools
p2556
aVdrupal-7
p2557
aVdrupal-6
p2558
aVmatplotlib
p2559
aVlogout
p2560
aVaccessor
p2561
aVz3
p2562
aVinfopath
p2563
aVvba
p2564
aVuikit
p2565
aVvbo
p2566
aVproducts
p2567
aVautomatic-ref-counting
p2568
aVperl-module
p2569
aVwif
p2570
aVoutlook-addin
p2571
aVrealloc
p2572
aVnsattributedstring
p2573
aVreadfile
p2574
aVontouchevent
p2575
aVboolean
p2576
aVteam-foundation-service
p2577
aVstatic-analysis
p2578
aVcloud
p2579
aVwix
p2580
aVdjango-haystack
p2581
aVdelphi-2010
p2582
aVnuget
p2583
aVcamera
p2584
aVqunit
p2585
aVmod-proxy
p2586
aVpowermock
p2587
aVresize
p2588
aVemail-validation
p2589
aVanonymous-types
p2590
aVphing
p2591
aVperformance-testing
p2592
aVinternet-explorer-11
p2593
aVinternet-explorer-10
p2594
aVnetwork-protocols
p2595
aVcontrol
p2596
aVlinks
p2597
aVprogress-4gl
p2598
aVsudo
p2599
aVsuds
p2600
aVwebmatrix
p2601
aVevent-log
p2602
aVuibarbuttonitem
p2603
aVjoomla-extensions
p2604
aVuibinder
p2605
aVpyqt
p2606
aVscriptaculous
p2607
aVjwplayer
p2608
aVgalleria
p2609
aVdesktop-application
p2610
aValertdialog
p2611
aVpydev
p2612
aVxmlns
p2613
aVexport-to-csv
p2614
aVvisual-studio-team-system
p2615
aVthread-safety
p2616
aVasmx
p2617
aVjna
p2618
aVgpuimage
p2619
aVinterceptor
p2620
aVrestful-authentication
p2621
aVsubversive
p2622
aVphpbb3
p2623
aVsmtpclient
p2624
aVclient-certificates
p2625
aVlistboxitem
p2626
aVpixel
p2627
aVfactorial
p2628
aVauto
p2629
aVnokia
p2630
aVms-word
p2631
aVsmarty
p2632
aVqgraphicsitem
p2633
aVcakephp
p2634
aVxpcom
p2635
aVstoryboard
p2636
aVmodx
p2637
aVweak-references
p2638
aVslide
p2639
aViphone-privateapi
p2640
aVtabcontrol
p2641
aVjsp-tags
p2642
aVbluetooth
p2643
aVimage-processing
p2644
aVcitrix
p2645
aVmargins
p2646
aVtransitions
p2647
aVobjectdatasource
p2648
aVios-4.2
p2649
aVreboot
p2650
aVcritical-section
p2651
aVnsregularexpression
p2652
aVnstask
p2653
aViostream
p2654
aVwatermark
p2655
aVhl7
p2656
aVeventlistener
p2657
aVundo
p2658
aVqt-creator
p2659
aVgeometry
p2660
aVdeprecated
p2661
aVroute
p2662
aVspoj
p2663
aVtimer
p2664
aVblogger
p2665
aVm2eclipse
p2666
aVjcombobox
p2667
aVeclipse-adt
p2668
aVgoogle-chrome-devtools
p2669
aVplaylist
p2670
aVprivacy
p2671
aVmkdir
p2672
aVwrapper
p2673
aVattach
p2674
aVhttp-status-codes
p2675
aVphp-extension
p2676
aVfinal
p2677
aVnsnumberformatter
p2678
aVws-security
p2679
aVrsa
p2680
aVmanipulation
p2681
aVrequiredfieldvalidator
p2682
aVupdating
p2683
aVrss
p2684
aVandroid-custom-view
p2685
aVfscanf
p2686
aVfragment-shader
p2687
aVvideo-processing
p2688
aVtabs
p2689
aVunpivot
p2690
aVborder
p2691
aVq
p2692
aVmicrophone
p2693
aVcascade
p2694
aVinstance
p2695
aVcocoa-bindings
p2696
aVjavacv
p2697
aVmongrel
p2698
aVjboss5.x
p2699
aVuiinterfaceorientation
p2700
aVawt
p2701
aVvalue-type
p2702
aVawk
p2703
aVoptional-parameters
p2704
aVframe-rate
p2705
aVgallery
p2706
aVepub
p2707
aVurl
p2708
aVindy
p2709
aVuri
p2710
aVspam-prevention
p2711
aVsnapshot
p2712
aVclass-library
p2713
aVloadrunner
p2714
aVeclipselink
p2715
aVcss-selectors
p2716
aVrmagick
p2717
aVtire
p2718
aVhector
p2719
aVangularjs-routing
p2720
aVspring-security
p2721
aVauto-update
p2722
aVubuntu-12.04
p2723
aVitemrenderer
p2724
aVstrpos
p2725
aVtwilio
p2726
aVtbb
p2727
aVscrolling
p2728
aVprocesses
p2729
aVnskeyedarchiver
p2730
aVnsbutton
p2731
aVcoronasdk
p2732
aVsha
p2733
aVdatetime-format
p2734
aVgit-svn
p2735
aVdpi
p2736
aVcognos
p2737
aVopenoffice.org
p2738
aVmulti-select
p2739
aVpreventdefault
p2740
aVjavasound
p2741
aVsetup-deployment
p2742
aVandroid-adapter
p2743
aVresourcebundle
p2744
aVlegacy
p2745
aVafnetworking
p2746
aVreverse-engineering
p2747
aVxerces
p2748
aVstanford-nlp
p2749
aVmacros
p2750
aVstate
p2751
aVstata
p2752
aVmasking
p2753
aVsanitization
p2754
aVcomparable
p2755
aVangularjs-directive
p2756
aVfacebook-apps
p2757
aVsharedpreferences
p2758
aVgroup
p2759
aVadmin
p2760
aVubuntu-10.04
p2761
aVandroid-notifications
p2762
aVdocumentation-generation
p2763
aVjersey
p2764
aVfbml
p2765
aVthickbox
p2766
aVvxworks
p2767
aVmodel-associations
p2768
aVversion-control
p2769
aVemail-integration
p2770
aVandroid-webview
p2771
aVandroid-button
p2772
aVcultureinfo
p2773
aVaddition
p2774
aVpcap
p2775
aVcore-data
p2776
aVuitableviewcell
p2777
aVaggregate-functions
p2778
aVusername
p2779
aVxlsx
p2780
aVpic
p2781
aVmysql-real-escape-string
p2782
aVtweets
p2783
aVcontroller
p2784
aVandroid-sdcard
p2785
aVotp
p2786
aVboost-graph
p2787
aVxpages
p2788
aVgoogle-maps-android-api-2
p2789
aVdvcs
p2790
aVjquery-deferred
p2791
aVhttp-status-code-500
p2792
aVopenstreetmap
p2793
aVdotnetzip
p2794
aVsqlbulkcopy
p2795
aVuiimageview
p2796
aVsurface
p2797
aVjquery-events
p2798
aVcapture
p2799
aVqgraphicsscene
p2800
aVmatcher
p2801
aVclassnotfoundexception
p2802
aVhttp
p2803
aVvideo-streaming
p2804
aVn-tier-architecture
p2805
aVeffect
p2806
aVspree
p2807
aVsqlplus
p2808
aVreflection
p2809
aVandroid-volley
p2810
aVfluent-nhibernate-mapping
p2811
aVdraggable
p2812
aVcase-insensitive
p2813
aVfacebook-comments
p2814
aVweb-deployment
p2815
aVrestore
p2816
aVlotus-notes
p2817
aVflyway
p2818
aVlexical-analysis
p2819
aVvirtual
p2820
aVlow-level
p2821
aVexception-handling
p2822
aVextends
p2823
aVfacebook-like
p2824
aVapplication-server
p2825
aVadodb
p2826
aVravendb
p2827
aVitemtemplate
p2828
aVplsql
p2829
aVemgucv
p2830
aVonmouseover
p2831
aVintersection
p2832
aVuislider
p2833
aVcountdowntimer
p2834
aVxss
p2835
aVcontrollers
p2836
aVxquery
p2837
aVobjective-c-blocks
p2838
aVservlet-filters
p2839
aVmonotouch.dialog
p2840
aVandroid-orientation
p2841
aVandroid-xml
p2842
aVportlet
p2843
aVhome
p2844
aVborland
p2845
aVinner-join
p2846
aVgoogle-sites
p2847
aVkettle
p2848
aVoverlap
p2849
aVdjango-views
p2850
aVjcrop
p2851
aVbackground-color
p2852
aVoffset
p2853
aVjava
p2854
aVboost-asio
p2855
aVpaypal-subscriptions
p2856
aVwindows-shell
p2857
aVfile-system
p2858
aVh2
p2859
aVnested-forms
p2860
aVcocoa
p2861
aVdev-c++
p2862
aVbson
p2863
aVw3c
p2864
aVnetworking
p2865
aVembedded-linux
p2866
aVprojects-and-solutions
p2867
aVweight
p2868
aVhistogram
p2869
aVoverflow
p2870
aVear
p2871
aVconverter
p2872
aVcells
p2873
aVhosting
p2874
aVsigned
p2875
aVlimit
p2876
aVvoid-pointers
p2877
aVdevise
p2878
aVandroid-emulator
p2879
aVdatacontract
p2880
aValassetslibrary
p2881
aVmod-wsgi
p2882
aVinotifypropertychanged
p2883
aVmaster-detail
p2884
aVmeteor
p2885
aVxsd-validation
p2886
aVworker
p2887
aVvtable
p2888
aVjsni
p2889
aVssms
p2890
aVslideshow
p2891
aVcpu-usage
p2892
aVbuffer-overflow
p2893
aVwamp
p2894
aVfeature-detection
p2895
aVsphinx
p2896
aVtomcat
p2897
aVantialiasing
p2898
aVblogs
p2899
aVflex4.6
p2900
aVpersistent
p2901
aVflex4.5
p2902
aVfile-type
p2903
aVvalidation
p2904
aVbcp
p2905
aVsimilarity
p2906
aVdynamic
p2907
aVsparse-matrix
p2908
aVbytecode
p2909
aVgmaps4rails
p2910
aVswap
p2911
aVendianness
p2912
aVnew-operator
p2913
aVsha256
p2914
aVfieldset
p2915
aVclojurescript
p2916
aVvoid
p2917
aVmonodevelop
p2918
aVspring-roo
p2919
aVsmack
p2920
aVupdates
p2921
aVnamespaces
p2922
aVvoip
p2923
aVknockout-mapping-plugin
p2924
aVsolution
p2925
aVasp.net-mvc-partialview
p2926
aVvector
p2927
aVpartial-views
p2928
aVvhdl
p2929
aVyacc
p2930
aVvirtualization
p2931
aVpreferences
p2932
aVnumberformat
p2933
aVadhoc
p2934
aVmetadata
p2935
aVmef
p2936
aVquirks-mode
p2937
aVjavamail
p2938
aVactive
p2939
aVaxapta
p2940
aVmex
p2941
aVdry
p2942
aVreactive-programming
p2943
aVindentation
p2944
aVpack
p2945
aVgroup-concat
p2946
aVxelement
p2947
aVopengraph
p2948
aVparameter-passing
p2949
aVbyte
p2950
aVlandscape
p2951
aVcss-animations
p2952
aVhard-drive
p2953
aVado.net-entity-data-model
p2954
aVfile-format
p2955
aVcommon-lisp
p2956
aVcall
p2957
aVfastcgi
p2958
aVnsscrollview
p2959
aVcomposite
p2960
aVnavigationcontroller
p2961
aVlazarus
p2962
aVvcard
p2963
aVcomputer-vision
p2964
aVsetup
p2965
aVdoctype
p2966
aVjquery-mobile
p2967
aVroot
p2968
aVsocial-networking
p2969
aVcursors
p2970
aVosmdroid
p2971
aVshapefile
p2972
aVsharepoint
p2973
aV.net-1.1
p2974
aVline-breaks
p2975
aVglobalization
p2976
aVconfig
p2977
aVehcache
p2978
aVglassfish-3
p2979
aVglassfish-4
p2980
aVcode-behind
p2981
aVethernet
p2982
aVtime-complexity
p2983
aVfifo
p2984
aVkeyboard
p2985
aVnonblocking
p2986
aVerlang
p2987
aVonclick
p2988
aVsemantic-markup
p2989
aVdecorator
p2990
aVaddclass
p2991
aVinstanceof
p2992
aVlinear-programming
p2993
aVgrammar
p2994
aVstate-machines
p2995
aVsubquery
p2996
aVorbeon
p2997
aVmean
p2998
aVfont-size
p2999
aVadobe
p3000
aVaidl
p3001
aVgridbaglayout
p3002
aVmysql-python
p3003
aVtcplistener
p3004
aVextract
p3005
aVfilesystemwatcher
p3006
aVwhitespace
p3007
aVgradient
p3008
aVcontent
p3009
aVoscommerce
p3010
aVgenerics
p3011
aVfiremonkey
p3012
aVresume
p3013
aVlogging
p3014
aVckeditor
p3015
aVclient-server
p3016
aVmessages
p3017
aViso
p3018
aVsignature
p3019
aVxul
p3020
aVadvanceddatagrid
p3021
aVuser
p3022
aVcore-motion
p3023
aVhook
p3024
aVneo4j
p3025
aVxslt-2.0
p3026
aVicefaces
p3027
aVstruts
p3028
aVtwisted
p3029
aVvisual-studio-2008
p3030
aVvisual-studio-2005
p3031
aVnutch
p3032
aVsqlclr
p3033
aVlighttpd
p3034
aVfile-permissions
p3035
aVuinavigationbar
p3036
aV.net-assembly
p3037
aVbiginteger
p3038
aVkeyword
p3039
aVstructures
p3040
aVpagespeed
p3041
aVgae-datastore
p3042
aVdjango-south
p3043
aVflex-lexer
p3044
aVseek
p3045
aVflowdocument
p3046
aVchess
p3047
aVmicrosoft-metro
p3048
aVnetworkstream
p3049
aVpython-import
p3050
aVuisearchbar
p3051
aVnoclassdeffounderror
p3052
aVnewline
p3053
aVpentaho
p3054
aViterate
p3055
aVmany-to-one
p3056
aVmstest
p3057
aVdom
p3058
aVdoc
p3059
aValarm
p3060
aVyahoo-pipes
p3061
aVnpgsql
p3062
aVpoints
p3063
aVheap-memory
p3064
aVdos
p3065
aVdot
p3066
aVsigsegv
p3067
aVimmutability
p3068
aVcancan
p3069
aVsyntax
p3070
aVvsts2008
p3071
aVfont-face
p3072
aVcreate-table
p3073
aVmembership-provider
p3074
aVvisualforce
p3075
aVcross-platform
p3076
aVcelery
p3077
aVldap
p3078
aVfolder
p3079
aVtiles
p3080
aVkeyboard-events
p3081
aVselecteditem
p3082
aVstop
p3083
aVautolayout
p3084
aVdatetimepicker
p3085
aVcgrect
p3086
aVwifi-direct
p3087
aVpowershell-v3.0
p3088
aVreload
p3089
aVarchitecture
p3090
aVnsthread
p3091
aVreference
p3092
aVtesting
p3093
aVjquery-ui-tabs
p3094
aVweb-applications
p3095
aVspring-batch
p3096
aVenthought
p3097
aVstatic-libraries
p3098
aVsolr4
p3099
aVreddit
p3100
aVaddsubview
p3101
aVw3c-validation
p3102
aVteam-build
p3103
aVscalatest
p3104
aVmodeling
p3105
aVsolrj
p3106
aVunc
p3107
aVxforms
p3108
aVhighcharts
p3109
aVloader
p3110
aVweb-parts
p3111
aVgoogle-glass
p3112
aVdjango-template-tags
p3113
aVcodeigniter
p3114
aVpatch
p3115
aVpage-lifecycle
p3116
aVhaxe
p3117
aVhtml5-audio
p3118
aVnumpy
p3119
aVcode-formatting
p3120
aVwebsite
p3121
aVonblur
p3122
aVradio-group
p3123
aVdismiss
p3124
aVremovechild
p3125
aVmvc-mini-profiler
p3126
aVsource-code
p3127
aVnested-sets
p3128
aVandroid-contentresolver
p3129
aVexception
p3130
aVprivatekey
p3131
aVsetuptools
p3132
aVipython-notebook
p3133
aVanchor
p3134
aVspawn
p3135
aVassociations
p3136
aVip
p3137
aVjoomla3.0
p3138
aVsas
p3139
aVil
p3140
aVio
p3141
aVmouse
p3142
aVmako
p3143
aVnsurlconnection
p3144
aVmake
p3145
aVstring-comparison
p3146
aVextjs4
p3147
aVextjs3
p3148
aVgoogle-spreadsheet
p3149
aVxbap
p3150
aVradiobuttonlist
p3151
aVireport
p3152
aVunicorn
p3153
aVremote-desktop
p3154
aVxjc
p3155
aVcontextmenu
p3156
aVnullreferenceexception
p3157
aVnlog
p3158
aVakka
p3159
aVasihttprequest
p3160
aVbandwidth
p3161
aVagile
p3162
aVcharacter
p3163
aVtuples
p3164
aVsave
p3165
aVintuit-partner-platform
p3166
aVstatic-members
p3167
aVhttp-live-streaming
p3168
aVlinked-list
p3169
aVbackground
p3170
aVmomentjs
p3171
aVclickable
p3172
aVhttpsession
p3173
aVdaemon
p3174
aVdrawrect
p3175
aVform-validation
p3176
aVstress-testing
p3177
aVcentos
p3178
aVautowired
p3179
aVpom.xml
p3180
aVconnection-string
p3181
aVautofill
p3182
aVtabbar
p3183
aVhttpresponse
p3184
aVspring-aop
p3185
aVshapes
p3186
aVbigdecimal
p3187
aVswfupload
p3188
aVmidlet
p3189
aVlocalhost
p3190
aVservicestack
p3191
aVburn
p3192
aVsift
p3193
aVsifr
p3194
aVsuper
p3195
aVcodedom
p3196
aVpostgresql
p3197
aVvb6-migration
p3198
aVazure
p3199
aVcommit
p3200
aVsprites
p3201
aVsugarcrm
p3202
aVparsing
p3203
aVdoctrine
p3204
aVjena
p3205
aVeditor
p3206
aVhttpclient
p3207
aVangularjs-service
p3208
aVimageicon
p3209
aVdelayed-job
p3210
aVpreg-match
p3211
aVcomputational-geometry
p3212
aVedge-detection
p3213
aVdisassembling
p3214
aVstreaming
p3215
aVbounds
p3216
aVcompiler-errors
p3217
aVdelete
p3218
aVcustom-post-type
p3219
aVfacebook-insights
p3220
aVrecommendation-engine
p3221
aVsticky
p3222
aVfloating
p3223
aVexcel
p3224
aVentity-framework-6
p3225
aVentity-framework-5
p3226
aVentity-framework-4
p3227
aVsybase
p3228
aVjinternalframe
p3229
aVorchardcms-1.6
p3230
aVmacports
p3231
aVdidselectrowatindexpath
p3232
aVmouselistener
p3233
aVgetjson
p3234
aVandroid-contentprovider
p3235
aVslf4j
p3236
aVvertex-shader
p3237
aVseparation-of-concerns
p3238
aVempty-string
p3239
aVmanaged
p3240
aVtwitter-bootstrap
p3241
aVskip
p3242
aVthemes
p3243
aVmanager
p3244
aVinformix
p3245
aVskin
p3246
aVprimes
p3247
aVmenubar
p3248
aVcountdown
p3249
aVfoursquare
p3250
aVwix3.7
p3251
aVsmartphone
p3252
aVstring
p3253
aVios6.1
p3254
aVnsfetchedresultscontrolle
p3255
aVx86-64
p3256
aVserver-sent-events
p3257
aVsubprocess
p3258
aVms-access-2010
p3259
aVjqgrid
p3260
aVfreemarker
p3261
aVwowza
p3262
aVfunction-pointers
p3263
aVitem
p3264
aVdiv
p3265
aVround
p3266
aVdir
p3267
aVfont-awesome
p3268
aVnsfilemanager
p3269
aVerd
p3270
aVmfmailcomposeviewcontroll
p3271
aVreporting-services
p3272
aVssis
p3273
aVcomputer-architecture
p3274
aVerb
p3275
aVflexbox
p3276
aVaptana3
p3277
aVbox2d-iphone
p3278
aVxcode4.5
p3279
aVxcode4.3
p3280
aVxcode4.2
p3281
aVwait
p3282
aVshift
p3283
aVmulticast
p3284
aVminecraft
p3285
aVfpdf
p3286
aVasp.net-web-api
p3287
aVftpwebrequest
p3288
aVjquery-select2
p3289
aVlicensing
p3290
aVc-preprocessor
p3291
aVmouseevent
p3292
aVrecursive-query
p3293
aVperl
p3294
aVstylesheet
p3295
aVdbpedia
p3296
aVvisio
p3297
aVencode
p3298
aVcheckout
p3299
aVandroid-activity
p3300
aVdirectx-9
p3301
aVsharing
p3302
aVoop
p3303
aVjlabel
p3304
aVnsmanagedobjectcontext
p3305
aVurl-parameters
p3306
aVtry-catch
p3307
aVflv
p3308
aVdjango-rest-framework
p3309
aVnunit
p3310
aVagent
p3311
aVsample
p3312
aVoracleforms
p3313
aVc++11
p3314
aVavcapturesession
p3315
aVcode-efficiency
p3316
aVsimulink
p3317
aVlandscape-portrait
p3318
aVping
p3319
aVprovisioning
p3320
aVcode-first-migrations
p3321
aVforeach
p3322
aVtile
p3323
aVmap
p3324
aVdesigner
p3325
aVdialog
p3326
aVmax
p3327
aVmembership
p3328
aVclang
p3329
aVmessaging
p3330
aVworkflow-foundation
p3331
aVentity-framework
p3332
aVaudio-recording
p3333
aVfluent
p3334
aVnsis
p3335
aVswitch
p3336
aVlookup-tables
p3337
aVbuddypress
p3338
aVgesture
p3339
aVdojo
p3340
aVentity
p3341
aVgoogle-earth
p3342
aVimage-rotation
p3343
aVmemory-allocation
p3344
aVvirtual-functions
p3345
aVmonitor
p3346
aVpolicy
p3347
aVflex3
p3348
aVmain
p3349
aVflex4
p3350
aVjquery-chosen
p3351
aVfinance
p3352
aVviews
p3353
aVstdvector
p3354
aVpopover
p3355
aVfile-download
p3356
aVsafari
p3357
aVnhibernate-criteria
p3358
aVosx-mavericks
p3359
aVpseudo-element
p3360
aVdirectories
p3361
aVntlm
p3362
aVgerrit
p3363
aVadmob
p3364
aVcode-duplication
p3365
aVx11
p3366
aVxls
p3367
aVbinary-search
p3368
aVecmascript-5
p3369
aVvim-plugin
p3370
aVgoogle-oauth
p3371
aVconventions
p3372
aVreportlab
p3373
aVjsfiddle
p3374
aVjackson
p3375
aVmultiplayer
p3376
aVpoco
p3377
aVnsoutlineview
p3378
aVcode-first
p3379
aVderived-class
p3380
aVsensor
p3381
aVgoto
p3382
aVamazon-web-services
p3383
aVhistory.js
p3384
aVajax
p3385
aVorm
p3386
aVdatabase-administration
p3387
aVphpexcel
p3388
aVdirectory-structure
p3389
aVvbscript
p3390
aVtemplate-specialization
p3391
aVurl-redirection
p3392
aVrtsp
p3393
aVpowerpoint-vba
p3394
aVsounds
p3395
aVoutputcache
p3396
aVvsto
p3397
aVservlet-3.0
p3398
aVstruts2-jquery
p3399
aVwcf-binding
p3400
aVbroadcast
p3401
aVxmppframework
p3402
aVprotected
p3403
aVzsh
p3404
aVcore-text
p3405
aV2d-games
p3406
aVios5.1
p3407
aVmatlab-guide
p3408
aVimage-manipulation
p3409
aVmechanize
p3410
aVcassandra
p3411
aVfilereader
p3412
aVbezier
p3413
aVcordova-3
p3414
aVdouble-click
p3415
aVperformance
p3416
aVmodulus
p3417
aVchannel
p3418
aVwindowbuilder
p3419
aVtrace
p3420
aVartificial-intelligence
p3421
aVazure-web-sites
p3422
aVc99
p3423
aVcorrelation
p3424
aVlibsvm
p3425
aVpair
p3426
aVgeodjango
p3427
aVkendo-ui
p3428
aVflat-file
p3429
aVdurandal
p3430
aVwebbrowser-control
p3431
aVjquery-hover
p3432
aVrating
p3433
aVjquery-masonry
p3434
aVshow
p3435
aVandroid-menu
p3436
aVtridion-2011
p3437
aVc#-2.0
p3438
aVmac-address
p3439
aVranking
p3440
aVmanaged-bean
p3441
aVget
p3442
aVstring-concatenation
p3443
aVbatch-processing
p3444
aVgeo
p3445
aVgem
p3446
aVpdf-generation
p3447
aVmedian
p3448
aVxpages-ssjs
p3449
aVyield
p3450
aVsummary
p3451
aVwiki
p3452
aVkernel
p3453
aVfullcalendar
p3454
aVrelative
p3455
aVseam
p3456
aVcalendar
p3457
aVandroid-animation
p3458
aVlabel
p3459
aVxtext
p3460
aVios-provisioning
p3461
aVfusioncharts
p3462
aVscreen
p3463
aVplupload
p3464
aVgoogle-cloud-storage
p3465
aVparent
p3466
aVparentheses
p3467
aVmagento-1.4
p3468
aVmagento-1.5
p3469
aVmagento-1.6
p3470
aVmagento-1.7
p3471
aVaspect-ratio
p3472
aVphpmyadmin
p3473
aVgooglebot
p3474
aVfirewall
p3475
aVfine-uploader
p3476
aVandroid-scrollview
p3477
aVgit-pull
p3478
aVeventmachine
p3479
aVopentk
p3480
aVcancel
p3481
aVaccess-denied
p3482
aVencryption
p3483
aVadfs
p3484
aV.net-2.0
p3485
aVproduction
p3486
aVpsexec
p3487
aVuser-accounts
p3488
aVvisual-web-developer
p3489
aVtraversal
p3490
aVbmp
p3491
aVembedded-resource
p3492
aVdeclaration
p3493
aVbayesian
p3494
aVencapsulation
p3495
aVgoogle-chrome-app
p3496
aVapi-design
p3497
aVfluent-nhibernate
p3498
aVprofiler
p3499
aVmargin
p3500
aVcq5
p3501
aVvisual-studio-express
p3502
aVwordnet
p3503
aVidisposable
p3504
aVsaml
p3505
aVgroup-by
p3506
aVauthentication
p3507
aVcode-analysis
p3508
aVspeech
p3509
aVarguments
p3510
aVillegalstateexception
p3511
aVocunit
p3512
aVthird-party
p3513
aVhtml-encode
p3514
aVemacs24
p3515
aVcakephp-2.0
p3516
aVcakephp-2.1
p3517
aVcakephp-2.3
p3518
aVsql-server-express
p3519
aVwatin
p3520
aVmarkup
p3521
aVwatir
p3522
aVbottle
p3523
aVtabwidget
p3524
aVjava-web-start
p3525
aVapplicationcontext
p3526
aVjquery-ui-datepicker
p3527
aVmoney
p3528
aVjdom
p3529
aVsitecore
p3530
aVmarker
p3531
aVdisplaytag
p3532
aVautocad
p3533
aVsfinae
p3534
aVgoogle-docs-api
p3535
aVmoq
p3536
aVone-to-many
p3537
aVone-to-one
p3538
aVgrid
p3539
aVdatabase-schema
p3540
aVcredentials
p3541
aVweb2py
p3542
aVavaudioplayer
p3543
aVifstream
p3544
aVanonymous-class
p3545
aVunique-ptr
p3546
aVnose
p3547
aVnsimage
p3548
aVfatal-error
p3549
aVerase
p3550
aVmatching
p3551
aVconfirm
p3552
aVkml
p3553
aVinject
p3554
aVandroid-imageview
p3555
aVspell-checking
p3556
aVcql
p3557
aVxna
p3558
aVandroid-2.3
p3559
aVandroid-2.2
p3560
aVdetailsview
p3561
aVproduction-environment
p3562
aVimage-gallery
p3563
aVfloating-accuracy
p3564
aVxml-validation
p3565
aVmingw32
p3566
aVstyling
p3567
aVdecode
p3568
aVlaravel-3
p3569
aVlaravel-4
p3570
aVipv6
p3571
aVcluster-computing
p3572
aVsvn
p3573
aVshoutcast
p3574
aVcom-interop
p3575
aVandroid-logcat
p3576
aVconditional-operator
p3577
aVself-join
p3578
aVgorm
p3579
aVsvg
p3580
aVsystem.data.sqlite
p3581
aVembed
p3582
aVdeadlock
p3583
aVmoles
p3584
aVnstextfield
p3585
aVfile
p3586
aVfacebook-javascript-sdk
p3587
aVfill
p3588
aVdrivers
p3589
aVjpanel
p3590
aVfield
p3591
aVpython-module
p3592
aVutf-8
p3593
aVopacity
p3594
aVdrawimage
p3595
aVwindows-authentication
p3596
aVvertex
p3597
aVansi
p3598
aVdjango-cms
p3599
aVunit-of-work
p3600
aVdropbox
p3601
aVstr-replace
p3602
aVconcat
p3603
aVassets
p3604
aVnetlogo
p3605
aVextjs-mvc
p3606
aVresolution
p3607
aVreverse-proxy
p3608
aVtibco
p3609
aVduplicates
p3610
aVdrag-and-drop
p3611
aVapplication-pool
p3612
aVfixtures
p3613
aVchildren
p3614
aVsystem.reflection
p3615
aVplesk
p3616
aVwsh
p3617
aVjrubyonrails
p3618
aVnsbundle
p3619
aVwss
p3620
aVstderr
p3621
aVnsobject
p3622
aVgoogle-maps-api-3
p3623
aVstripe-payments
p3624
aVuistoryboard
p3625
aVbeagleboard
p3626
aVphp-cli
p3627
aVzero
p3628
aVurbanairship.com
p3629
aVperspective
p3630
aVplugins
p3631
aVpyodbc
p3632
aVribbon
p3633
aVcentering
p3634
aVbrackets
p3635
aVflash-builder
p3636
aVpublic
p3637
aVmovement
p3638
aVvala
p3639
aVmule
p3640
aVfirebase
p3641
aVmkannotation
p3642
aVdirectshow
p3643
aVjax-ws
p3644
aVhtml-agility-pack
p3645
aVeclipse-plugin
p3646
aVoledbconnection
p3647
aVamazon-rds
p3648
aVjruby
p3649
aVfactory-pattern
p3650
aVcalculated-columns
p3651
aVpretty-print
p3652
aVremember-me
p3653
aVlinear-algebra
p3654
aVcomposite-primary-key
p3655
aVinterface-builder
p3656
aVdistinct
p3657
aVmicrosoft-dynamics
p3658
aVface-detection
p3659
aVlogcat
p3660
aVandroid-service
p3661
aVmozilla
p3662
aVactionlistener
p3663
aVjsonp
p3664
aVandroid-broadcast
p3665
aVpsql
p3666
aVjdo
p3667
aVsalesforce
p3668
aVjdk
p3669
aVdes
p3670
aVparagraph
p3671
aVopenssh
p3672
aVjdt
p3673
aVtail-recursion
p3674
aVcompare
p3675
aVsynchronized
p3676
aVshare
p3677
aVcollision
p3678
aVminimum
p3679
aVnumbers
p3680
aVjackrabbit
p3681
aVcsh
p3682
aVwindows-media-player
p3683
aVmapi
p3684
aVmaps
p3685
aVweb-controls
p3686
aVmutable
p3687
aVcsv
p3688
aVcss
p3689
aVconnectivity
p3690
aVmariadb
p3691
aVresponse
p3692
aVpattern-matching
p3693
aVonresume
p3694
aVentry
p3695
aVscrollto
p3696
aVk-means
p3697
aViis-express
p3698
aVfacebook
p3699
aVnltk
p3700
aVautoload
p3701
aVproducer-consumer
p3702
aVapt-get
p3703
aVforms-authentication
p3704
aVmongodb-query
p3705
aVasp.net-routing
p3706
aVcombobox
p3707
aVuitapgesturerecognizer
p3708
aVcontinuations
p3709
aVpcm
p3710
aVpca
p3711
aVplayframework
p3712
aVtimestamp
p3713
aVframelayout
p3714
aVcgcontext
p3715
aV2d
p3716
aVtoken
p3717
aVgoogle-search-api
p3718
aVwindow.open
p3719
aVjmeter
p3720
aVlaunchd
p3721
aVstored-procedures
p3722
aVfunctor
p3723
aVcore-plot
p3724
aVconnect
p3725
aVnewrelic
p3726
aVsencha
p3727
aVtwitter4j
p3728
aVsqlcommand
p3729
aVdotnetnuke
p3730
aVandroid-pendingintent
p3731
aVforeground
p3732
aVcore-animation
p3733
aVsbt
p3734
aVhashset
p3735
aVnscalendar
p3736
aVmms
p3737
aVlinq-to-objects
p3738
aVgdal
p3739
aVdiv-layouts
p3740
aVyoutube-javascript-api
p3741
aVwebforms
p3742
aVwindows-runtime
p3743
aVjogl
p3744
aVdylib
p3745
aVinternal-server-error
p3746
aVrazor
p3747
aVwss-3.0
p3748
aVmamp
p3749
aVjetty
p3750
aVpaint
p3751
aVstatement
p3752
aVjquery-validation-engine
p3753
aVnsjsonserialization
p3754
aVjsonarray
p3755
aVcross-browser
p3756
aVselector
p3757
aVbubble-sort
p3758
aVrecording
p3759
aVuiapplicationdelegate
p3760
aVinteractive
p3761
aVdebugging
p3762
aVfavicon
p3763
aVsmart-pointers
p3764
aVmonodroid
p3765
aVvisual-c++-2010
p3766
aVencryption-symmetric
p3767
aVteechart
p3768
aVbuild
p3769
aVopenshift
p3770
aVfolders
p3771
aVvnc
p3772
aVlinq-to-xml
p3773
aVcygwin
p3774
aVmoss
p3775
aVsharding
p3776
aVqthread
p3777
aVkey-value
p3778
aVandroid-canvas
p3779
aVhttphandler
p3780
aVgoogle-tv
p3781
aVnode.js
p3782
aVblueimp
p3783
aVrelation
p3784
aVnetworkx
p3785
aVfind
p3786
aVbacktracking
p3787
aVjsch
p3788
aVbase-class
p3789
aVdistributed
p3790
aVbackbone-events
p3791
aVasp.net-ajax
p3792
aVemail-client
p3793
aVtouchscreen
p3794
aVnotation
p3795
aVsubsonic3
p3796
aVexpress
p3797
aVopensuse
p3798
aVandroid-loadermanager
p3799
aVrestart
p3800
aVcontinuous-integration
p3801
aVandroid-tabs
p3802
aVmultilanguage
p3803
aVgit-push
p3804
aVuser-interface
p3805
aVmove-semantics
p3806
aVeclipse-juno
p3807
aVgithooks
p3808
aVuibutton
p3809
aVms-access
p3810
aVpopup
p3811
aVzedgraph
p3812
aVcustom-attributes
p3813
aVmoodle
p3814
aVdesign-time
p3815
aVipython
p3816
aVosx-snow-leopard
p3817
aVreverse
p3818
aVif-statement
p3819
aVwebrick
p3820
aVsilverlight-2.0
p3821
aVpoint
p3822
aVshutdown
p3823
aVfuelphp
p3824
aVbackend
p3825
aVtestflight
p3826
aVsingly-linked-list
p3827
aVexternalinterface
p3828
aVasp.net-mvc-routing
p3829
aVdata-binding
p3830
aVncurses
p3831
aVstandard-library
p3832
aVgac
p3833
aVcomparator
p3834
aVcss-transform
p3835
aVdeferred
p3836
aVblackberry-cascades
p3837
aVclearcase
p3838
aVaccountmanager
p3839
aVvisual-sourcesafe
p3840
aVfacelets
p3841
aVpython-imaging-library
p3842
aVuitableview
p3843
aVjquery-accordion
p3844
aVhtml-entities
p3845
aVupdatepanel
p3846
aVpagemethods
p3847
aVwebgl
p3848
aVphonegap-plugins
p3849
aVthread-sleep
p3850
aVgeoserver
p3851
aVews
p3852
aVext.net
p3853
aVpasswords
p3854
aVdereference
p3855
aVflurry
p3856
aVaggregate
p3857
aVscreen-capture
p3858
aVandroid-softkeyboard
p3859
aVtask
p3860
aVmemoization
p3861
aVworkflow-activity
p3862
aVflags
p3863
aVorganization
p3864
aVdistutils
p3865
aVantlr
p3866
aVshape
p3867
aVatomic
p3868
aVphpbb
p3869
aVopenstack
p3870
aValignment
p3871
aVcut
p3872
aVkeyevent
p3873
aVreturn-type
p3874
aVrestructuredtext
p3875
aVkinect
p3876
aVsource
p3877
aVrgb
p3878
aVexecutorservice
p3879
aVxcodebuild
p3880
aVvarchar
p3881
aVjcomponent
p3882
aVspring-data-neo4j
p3883
aVapt
p3884
aVbit
p3885
aVreusability
p3886
aVsql-server-2012
p3887
aVsurfaceview
p3888
aVautorotate
p3889
aVmapkit
p3890
aVbamboo
p3891
aVbranching-and-merging
p3892
aVclass-diagram
p3893
aVdllimport
p3894
aVback
p3895
aVdelegation
p3896
aVsimple-form
p3897
aVapc
p3898
aVimageview
p3899
aVsizeof
p3900
aVuipagecontrol
p3901
aVscale
p3902
aVcontacts
p3903
aVsaas
p3904
aVintegration
p3905
aVrobotium
p3906
aVellipsis
p3907
aVnotepad++
p3908
aVexport-to-excel
p3909
aVgit-submodules
p3910
aVcastle-windsor
p3911
aVfacebook-fanpage
p3912
aVwsdl
p3913
aVreadability
p3914
aVusb
p3915
aVhudson
p3916
aVtiff
p3917
aVframes
p3918
aVbindingsource
p3919
aVfindcontrol
p3920
aVhudson-plugins
p3921
aVopenerp
p3922
aVdynamics-ax-2009
p3923
aVforward
p3924
aVtranslate
p3925
aVc#-5.0
p3926
aVnavigation-drawer
p3927
aVswingworker
p3928
aVsdl
p3929
aVsdk
p3930
aVgroovy
p3931
aVgstreamer
p3932
aVjavascript-objects
p3933
aVlabview
p3934
aVrubymotion
p3935
aVquickfix
p3936
aVbusiness-intelligence
p3937
aVresearch
p3938
aVoauth-2.0
p3939
aVcurl
p3940
aVuser-experience
p3941
aVcmake
p3942
aVigraph
p3943
aVslick2d
p3944
aVllvm
p3945
aVillegalargumentexception
p3946
aVvisibility
p3947
aVdrupal-views
p3948
aVsudoku
p3949
aVntfs
p3950
aVsystem-calls
p3951
aVvirtualhost
p3952
aVsftp
p3953
aVnaming-conventions
p3954
aVxstream
p3955
aVhittest
p3956
aVpattern-recognition
p3957
aVnsxmlparser
p3958
aVjava-2d
p3959
aVasp.net-identity
p3960
aVkeep-alive
p3961
aVdatabase-migration
p3962
aVtree-traversal
p3963
aVcss3pie
p3964
aVistream
p3965
aVlabels
p3966
aVvlc
p3967
aVlocal-storage
p3968
aVloadlibrary
p3969
aVversioning
p3970
aVelisp
p3971
aVcrop
p3972
aVcron
p3973
aVsmlnj
p3974
aVinsertion
p3975
aVappend
p3976
aVappendchild
p3977
aVd2
p3978
aVpipes
p3979
aVjboss
p3980
aVuser-controls
p3981
aVclipboard
p3982
aVmathjax
p3983
aVcordova
p3984
aVmagento-admin
p3985
aVbinary-search-tree
p3986
aVtext-files
p3987
aVxml-deserialization
p3988
aVspacing
p3989
aVimplicit
p3990
aVc++-cli
p3991
aVdoctrine2
p3992
aVcomposite-key
p3993
aVuicollectionview
p3994
aVxdocument
p3995
aVnsoperation
p3996
aVtalend
p3997
aVphone-number
p3998
aVprivate
p3999
aVnth-child
p4000
aVnames
p4001
aVgateway
p4002
aVchm
p4003
aVpowershell-remoting
p4004
aViis
p4005
aVcakephp-1.3
p4006
aVcakephp-1.2
p4007
aVjavascript-library
p4008
aVsubscription
p4009
aVaccount
p4010
aVopenjdk
p4011
aVfetch
p4012
aVunobtrusive-validation
p4013
aVsqlite
p4014
aVparser-generator
p4015
aVnative
p4016
aVgcc
p4017
aVfilepath
p4018
aVboxing
p4019
aVgcm
p4020
aVprestashop
p4021
aVlamp
p4022
aVattachment
p4023
aVuinavigationcontroller
p4024
aVprofile
p4025
aVjquery-ui-sortable
p4026
aVgoogle-drive-sdk
p4027
aVmultiplication
p4028
aVbind
p4029
aVbing
p4030
aVsubdirectory
p4031
aVlines
p4032
aVgitolite
p4033
aVmustache
p4034
aVjira
p4035
aVdoctrine-1.2
p4036
aVsymbols
p4037
aVhbase
p4038
aVgalaxy
p4039
aVld
p4040
aVtext-parsing
p4041
aVls
p4042
aVandroid-fragmentactivity
p4043
aVyeoman
p4044
aVcode-signing
p4045
aVdomdocument
p4046
aVdao
p4047
aVautorelease
p4048
aVactionbarsherlock
p4049
aVjsf-1.2
p4050
aVdbus
p4051
aVscrollbar
p4052
aVpolymorphic-associations
p4053
aVidentifier
p4054
aVjquery-file-upload
p4055
aValphablending
p4056
aVdatabase-project
p4057
aVstrip
p4058
aVmsdn
p4059
aVflex-mobile
p4060
aVopenni
p4061
aVdatabase-partitioning
p4062
aVssas
p4063
aVstub
p4064
aVspring-mvc
p4065
aVref
p4066
aVmath
p4067
aVsafari-extension
p4068
aVworkflow
p4069
aVtrigger.io
p4070
aVwcf-web-api
p4071
aVfirefox-addon
p4072
aVlaravel
p4073
aVinteraction
p4074
aVindent
p4075
aVmidi
p4076
aVnavbar
p4077
aVsms-gateway
p4078
aVcname
p4079
aVelasticsearch
p4080
aVzend-form
p4081
aVretain
p4082
aVmidp
p4083
aVjcheckbox
p4084
aVsencha-touch-2
p4085
aVkeyboard-shortcuts
p4086
aVsmartcard
p4087
aVandroid-view
p4088
aVhtml5boilerplate
p4089
aVpuppet
p4090
aVsockets
p4091
aVright-click
p4092
aVepplus
p4093
aVscanf
p4094
aVibaction
p4095
aVcarrierwave
p4096
aVmybatis
p4097
aVwebdeploy
p4098
aVipv4
p4099
aVflume
p4100
aVudp
p4101
aVmemorystream
p4102
aVdynamic-programming
p4103
aVperforce
p4104
aVcomposite-component
p4105
aVjndi
p4106
aVstrongly-typed-dataset
p4107
aVlinkbutton
p4108
aVwhile-loop
p4109
aVtextfield
p4110
aVandroid-gridview
p4111
aVipad
p4112
aVnetwork-programming
p4113
aVpointers
p4114
aVphp-mail
p4115
aVcompass-css
p4116
aVvirtual-directory
p4117
aVplaintext
p4118
aVexcel-vba
p4119
aVparamiko
p4120
aVtemplate-engine
p4121
aVmin
p4122
aVuisplitviewcontroller
p4123
aVgravity
p4124
aVworksheet-function
p4125
aVjaas
p4126
aVmod-python
p4127
aVwpfdatagrid
p4128
aVspecflow
p4129
aVoozie
p4130
aVpayment
p4131
aVbaseadapter
p4132
aVrequest
p4133
aVreachability
p4134
aVworkspace
p4135
aVdllexport
p4136
aVselection
p4137
aVbrute-force
p4138
aVpolynomial-math
p4139
aVtext
p4140
aVsetter
p4141
aVserial-port
p4142
aVxmlwriter
p4143
aVcontrols
p4144
aVhttp-redirect
p4145
aVksh
p4146
aVuitabbar
p4147
aVjquery-ui-droppable
p4148
aVcsrf
p4149
aVtiming
p4150
aVnetsuite
p4151
aVlotus-domino
p4152
aVfixed
p4153
aVdreamhost
p4154
aVexists
p4155
aVdatalist
p4156
aVsubreport
p4157
aVracket
p4158
aVjni
p4159
aVuialertview
p4160
aVxcode3.2
p4161
aVsoapui
p4162
aVprogress
p4163
aVad-hoc-distribution
p4164
aVjquery-ui-accordion
p4165
aVcmd.exe
p4166
aVtranspose
p4167
aVtkinter
p4168
aVwpftoolkit
p4169
aVioexception
p4170
aVattributes
p4171
aVssrs-reports
p4172
aVgnu-screen
p4173
aVphonegap-build
p4174
aVwebsphere-mq
p4175
aVcompile-time
p4176
aVscientific-computing
p4177
aVrdbms
p4178
aVjson
p4179
aVhttpconnection
p4180
aVuidatepicker
p4181
aVpaperclip
p4182
aVevent-bubbling
p4183
aVpicturebox
p4184
aVassert
p4185
aVnested-loops
p4186
aVcypher
p4187
aVfault
p4188
aVboost-serialization
p4189
aVintellisense
p4190
aVdatacontext
p4191
aVcherrypy
p4192
aVsquid
p4193
aVlinkedin
p4194
aVarabic
p4195
aVregression
p4196
aVcjk
p4197
aVproductivity
p4198
aVjsf-2.2
p4199
aVadministration
p4200
aVremote-server
p4201
aVgoogle-adwords
p4202
aVmousewheel
p4203
aVmyfaces
p4204
aVreporting
p4205
aVcode-organization
p4206
aVdealloc
p4207
aVjboss-arquillian
p4208
aVsetcookie
p4209
aVcodemirror
p4210
aVcenter
p4211
aVbuilder
p4212
aVposition
p4213
aVparallel-processing
p4214
aVsql-server
p4215
aVsubtraction
p4216
aVmultiple-tables
p4217
aVproximity
p4218
aVunordered-map
p4219
aVabap
p4220
aVtoggleclass
p4221
aVxml-serialization
p4222
aVwmi-query
p4223
aVintrospection
p4224
aVadt
p4225
aVads
p4226
aVprism
p4227
aVadf
p4228
aVadd
p4229
aVadb
p4230
aVada
p4231
aVado
p4232
aVgmp
p4233
aVvisual-studio-lightswitch
p4234
aVmatch
p4235
aVc#-3.0
p4236
aVandroid-location
p4237
aVmessage-queue
p4238
aVtouch-event
p4239
aVdeployment
p4240
aVdotnetopenauth
p4241
aVinsert
p4242
aVlike
p4243
aVpayment-processing
p4244
aVmobile-phones
p4245
aVboost-spirit
p4246
aVandroid-mapview
p4247
aVcrawler
p4248
aVpropel
p4249
aVmschart
p4250
aVpolyline
p4251
aVrubymine
p4252
aVboost-thread
p4253
aVpaypal-adaptive-payments
p4254
aVcllocation
p4255
aVhighlighting
p4256
aVstatic-variables
p4257
aVesb
p4258
aVfacebook-login
p4259
aVtimertask
p4260
aVmode
p4261
aVat-command
p4262
aVnoise
p4263
aVbar-chart
p4264
aVhost
p4265
aVpanel
p4266
aVdatareader
p4267
aVglade
p4268
aVguice
p4269
aVpowerpoint
p4270
aVfacebook-oauth
p4271
aVsocks
p4272
aVdataset
p4273
aVguard
p4274
aVrenderer
p4275
aVrcp
p4276
aVandroid-spinner
p4277
aVglib
p4278
aVrepeater
p4279
aVsequel
p4280
aVpy.test
p4281
aVantlr3
p4282
aVantlr4
p4283
aVoauth
p4284
aVediting
p4285
aVscrollable
p4286
aVweb-scraping
p4287
aVvariadic-templates
p4288
aVlync
p4289
aVflip
p4290
aVstring-parsing
p4291
aVblackberry-10
p4292
aVdatepicker
p4293
aVandroid-tabhost
p4294
aVinternals
p4295
aVpid
p4296
aVpig
p4297
aVmime-types
p4298
aVpip
p4299
aVupnp
p4300
aVresharper
p4301
aVretina-display
p4302
aVsubsonic
p4303
aVspring-ws
p4304
aVbundle
p4305
aVinputstream
p4306
aVreadline
p4307
aVbing-maps
p4308
aVextjs
p4309
aVstatusbar
p4310
aVsharepoint-designer
p4311
aVpythonpath
p4312
aVfloating-point-precision
p4313
aVweb-browser
p4314
aVnsdate
p4315
aVsleep
p4316
aVnsdata
p4317
aVios4.3
p4318
aVtween
p4319
aVquicktime
p4320
aVtostring
p4321
aVprepared-statement
p4322
aVopen-source
p4323
aVdjango-tastypie
p4324
aVnstableview
p4325
aVruntime.exec
p4326
aVnetbeans
p4327
aVguidelines
p4328
aVmultiple-databases
p4329
aVcustom-view
p4330
aVkivy
p4331
aVexpressions
p4332
aVboost-python
p4333
aVhide
p4334
aVselected
p4335
aVtablelayout
p4336
aVblur
p4337
aVgyroscope
p4338
aVcode-contracts
p4339
aVnslog
p4340
aVdelegates
p4341
aVandroid-networking
p4342
aVpath
p4343
aVforward-declaration
p4344
aVdigits
p4345
aVdistributed-computing
p4346
aVforum
p4347
aVoracle9i
p4348
aVgoogle-plus
p4349
aVvisible
p4350
aVproject-management
p4351
aVmysqldump
p4352
aVprintf
p4353
aVjoomla1.7
p4354
aVscaffolding
p4355
aVswingx
p4356
aVwindows-mobile-6.5
p4357
aVback-button
p4358
aVpreview
p4359
aVannotations
p4360
aVvps
p4361
aVphone
p4362
aVreal-time
p4363
aVvpn
p4364
aVjoin
p4365
aVpharo
p4366
aVml
p4367
aVhas-many-through
p4368
aVrails-engines
p4369
aVcompiler-optimization
p4370
aVnine-patch
p4371
aVmq
p4372
aVinstall
p4373
aVeager-loading
p4374
aVcruisecontrol.net
p4375
aVcaptcha
p4376
aVavplayer
p4377
aVfile-conversion
p4378
aVscheduling
p4379
aVxdebug
p4380
aVlinker-error
p4381
aVvertical-alignment
p4382
aVvagrant
p4383
aV.net-3.5
p4384
aVnusoap
p4385
aVgdata-api
p4386
aVx509
p4387
aVyesod
p4388
aVyii-extensions
p4389
aVibm-midrange
p4390
aVmesh
p4391
aVyql
p4392
aVbootstrap
p4393
aVe-commerce
p4394
aVenter
p4395
aVfrontend
p4396
aVjpeg
p4397
aVsyntax-error
p4398
aVdijkstra
p4399
aVweblogic11g
p4400
aVrestful-architecture
p4401
aVgoogle-search
p4402
aVsendkeys
p4403
aVtextbox
p4404
aVappstore-approval
p4405
aVime
p4406
aVcli
p4407
aVemail-attachments
p4408
aVfwrite
p4409
aVfade
p4410
aVchromecast
p4411
aVclr
p4412
aVjava-util-scanner
p4413
aVindexeddb
p4414
aVfonts
p4415
aVodbc
p4416
aVexplode
p4417
aVhql
p4418
aVeach
p4419
aVorchardcms
p4420
aVgprs
p4421
aVsigning
p4422
aVinterop
p4423
aVsemantic-web
p4424
aVhandlebars.js
p4425
aVrule-engine
p4426
aVghci
p4427
aVtype-erasure
p4428
aVfree
p4429
aVgoogle-maps-api-2
p4430
aVrestful-url
p4431
aVacrobat
p4432
aVstd
p4433
aVscala-2.10
p4434
aVactiverecord
p4435
aVopenssl
p4436
aVfilter
p4437
aVextjs4.2
p4438
aVextjs4.1
p4439
aVazure-mobile-services
p4440
aVglsl
p4441
aVwpf-4.0
p4442
aVrank
p4443
aVgridview
p4444
aVjava-7
p4445
aVjava-6
p4446
aVjava-8
p4447
aVandroid-theme
p4448
aVbatch-file
p4449
aVcstring
p4450
aVbitcoin
p4451
aVpercentage
p4452
aVknockout-validation
p4453
aVoracle-sqldeveloper
p4454
aVmulti-touch
p4455
aVsync
p4456
aVhttp-headers
p4457
aVroles
p4458
aVandroid-3.0
p4459
aVzend-framework
p4460
aVkernel-module
p4461
aVpage-refresh
p4462
aVrad
p4463
aVram
p4464
aVcloudfoundry
p4465
aVplpgsql
p4466
aVconfigure
p4467
aVhigh-availability
p4468
aVclient
p4469
aVsbcl
p4470
aVxfbml
p4471
aVqooxdoo
p4472
aVglob
p4473
aVsharekit
p4474
aVbsd
p4475
aVmouseleave
p4476
aVpaintcomponent
p4477
aVclassloader
p4478
aVflow
p4479
aVjquery-ui-slider
p4480
aVflot
p4481
aVenterprise
p4482
aVscreensaver
p4483
aVxampp
p4484
aVrandom
p4485
aVmediawiki
p4486
aVcolors
p4487
aVradio
p4488
aVqstring
p4489
aVprettyphoto
p4490
aVpki
p4491
aVoci
p4492
aVjava-ee-6
p4493
aVhttp-status-code-302
p4494
aVocr
p4495
aVelmah
p4496
aVfactory-girl
p4497
aVwatch
p4498
aVfluid
p4499
aVc3p0
p4500
aVpop3
p4501
aVamazon
p4502
aVfadein
p4503
aVreport
p4504
aVcouchbase
p4505
aVbulkinsert
p4506
aVcruisecontrol
p4507
aVclickonce
p4508
aVisolation-level
p4509
aVwpf-controls
p4510
aVpseudo-class
p4511
aVjquery-plugins
p4512
aVdetection
p4513
aVhash
p4514
aVcgaffinetransform
p4515
aVload-testing
p4516
aVactionlink
p4517
aVurllib
p4518
aVcompilation
p4519
aVvisualization
p4520
aVaccess-modifiers
p4521
aVonkeydown
p4522
aVhtml5
p4523
aVssrs-2008
p4524
aVgdi+
p4525
aVtemplate-meta-programming
p4526
aVcredit-card
p4527
aVfacet
p4528
aVhttp-get
p4529
aVwtforms
p4530
aVeaseljs
p4531
aVmaster-pages
p4532
aVchar-array
p4533
aVflexslider
p4534
aVimage-uploading
p4535
aVcrystal-reports-xi
p4536
aVcontainers
p4537
aVsprite
p4538
aVsearch
p4539
aVcore-data-migration
p4540
aVlook-and-feel
p4541
aVqueryover
p4542
aVdashboard
p4543
aVexchangewebservices
p4544
aVprocedure
p4545
aVhas-many
p4546
aVpyramid
p4547
aVslideup
p4548
aVquartz-scheduler
p4549
aVhttprequest
p4550
aVcgimage
p4551
aVrecursion
p4552
aVfxml
p4553
aVcss-float
p4554
aVenvironment-variables
p4555
aVmoose
p4556
aVinstrumentation
p4557
aVnumerical
p4558
aVwordpress-loop
p4559
aVsymfony-1.4
p4560
aVportal
p4561
aVnormalization
p4562
aVcycle
p4563
aVjframe
p4564
aVfbconnect
p4565
aVuploading
p4566
aVandroid-support-library
p4567
aVtestng
p4568
aVbugzilla
p4569
aVremoting
p4570
aVglsurfaceview
p4571
aVmemory-address
p4572
aVelf
p4573
aVdataprovider
p4574
aVcasting
p4575
aVjailbreak
p4576
aVrecaptcha
p4577
aVconsole-application
p4578
aV960.gs
p4579
aVdelphi-xe
p4580
aVseekbar
p4581
aVzoom
p4582
aVcode-review
p4583
aVbpm
p4584
aVtexture-mapping
p4585
aVjunit4
p4586
aVauto-increment
p4587
aVrollover
p4588
aVdataframes
p4589
aVrhino
p4590
aVwampserver
p4591
aVlistitem
p4592
aVarmv7
p4593
aVandroid-4.2
p4594
aVandroid-4.0
p4595
aVicu
p4596
aVandroid-4.4
p4597
aVcore
p4598
aVquaternion
p4599
aVcors
p4600
aVdelphi-xe4
p4601
aVdelphi-xe5
p4602
aVspring-annotations
p4603
aVlightbox
p4604
aVontouchlistener
p4605
aVmod-perl
p4606
aVdelphi-xe3
p4607
aVruntime
p4608
aVprimitive
p4609
aVjavac
p4610
aVpuzzle
p4611
aVmodalviewcontroller
p4612
aV32-bit
p4613
aVgis
p4614
aVtransform
p4615
aVgif
p4616
aVtfs2008
p4617
aVhead
p4618
aVwireless
p4619
aVsubclassing
p4620
aVapache-poi
p4621
aVheap
p4622
aVselenium2
p4623
aVandroid-linearlayout
p4624
aVfosuserbundle
p4625
aVattr
p4626
aVjtextpane
p4627
aVdevexpress
p4628
aVbids
p4629
aVfilepicker.io
p4630
aVpaging
p4631
aVautoconf
p4632
aVtrigonometry
p4633
aVtrim
p4634
aVobfuscation
p4635
aVoutlook-2007
p4636
aVtrie
p4637
aVdecrypt
p4638
aVwinsock2
p4639
aVhaml
p4640
aVcheck
p4641
aV7zip
p4642
aVwebos
p4643
aVreadonly
p4644
aVpymongo
p4645
aVtoad
p4646
aVjaxb
p4647
aVwebserver
p4648
aVbackbone-routing
p4649
aVsql
p4650
aVsrc
p4651
aVbitbucket
p4652
aVhibernate-search
p4653
aViterator
p4654
aVrails-migrations
p4655
aVfocus
p4656
aVext-gwt
p4657
aVgraphing
p4658
aVdate-formatting
p4659
aVguava
p4660
aVrow
p4661
aVinline-block
p4662
aVenvironment
p4663
aVstrategy-pattern
p4664
aVexcel-formula
p4665
aVnesting
p4666
aVubuntu-11.10
p4667
aVgoogle-earth-plugin
p4668
aVposts
p4669
aVstandards
p4670
aVnhibernate-mapping
p4671
aVpmd
p4672
aVaptana
p4673
aVuiscrollview
p4674
aVpinvoke
p4675
aVport
p4676
aVcorba
p4677
aV64bit
p4678
aVbeautifulsoup
p4679
aVajax4jsf
p4680
aVwindows-server-2012
p4681
aVwcf-client
p4682
aVduplicate-data
p4683
aVbrowser-detection
p4684
aVtoolbar
p4685
aVinotify
p4686
aVheredoc
p4687
aVdelimiter
p4688
aVquickblox
p4689
aVuilocalnotification
p4690
aVstatic-methods
p4691
aVnavigation
p4692
aVconvolution
p4693
aVpriority-queue
p4694
aVhandler
p4695
aVjquery-autocomplete
p4696
aViphone
p4697
aVmsi
p4698
aVmemory
p4699
aVexpressionengine
p4700
aVudpclient
p4701
aVnettcpbinding
p4702
aVsoap-client
p4703
aVfacebook-iframe
p4704
aVdhtml
p4705
aVuicollectionviewcell
p4706
aVwinforms
p4707
aVnsmutablearray
p4708
aVpickle
p4709
aVusability
p4710
aVbouncycastle
p4711
aVfigure
p4712
aVsilverlight-3.0
p4713
aVbackslash
p4714
aVgoogle-chrome-extension
p4715
aVcounting
p4716
aVfacebook-social-plugins
p4717
aVinheritance
p4718
aVweblogic-10.x
p4719
aVeloquent
p4720
aVtic-tac-toe
p4721
aVxulrunner
p4722
aVapple-push-notifications
p4723
aVclone
p4724
aVzend-route
p4725
aVghostscript
p4726
aVdynamic-arrays
p4727
aVliquid
p4728
aVstructuremap
p4729
aVd3.js
p4730
aVtypeahead.js
p4731
aVrecordset
p4732
aVblackberry-webworks
p4733
aVsession-state
p4734
aVdefault-value
p4735
aVvtk
p4736
aVgtk
p4737
aVcoordinates
p4738
aVplatform
p4739
aVuitabbarcontroller
p4740
aVpermissions
p4741
aVexecute
p4742
aVequality
p4743
aVtridion
p4744
aVopera
p4745
aVrandom-forest
p4746
aVejabberd
p4747
aVmysql2
p4748
aVlistadapter
p4749
aVpublic-key-encryption
p4750
aVjquery-isotope
p4751
aVdigital-signature
p4752
aVwinjs
p4753
aVfactory
p4754
aVejb
p4755
aVparallax
p4756
aVbarcode-scanner
p4757
aVuikeyboard
p4758
aVejs
p4759
aVhttp-referer
p4760
aVtheory
p4761
aVresultset
p4762
aVgit
p4763
aVmarionette
p4764
aVmysqli
p4765
aVdispatcher
p4766
aVraster
p4767
aVdatabase-normalization
p4768
aVsession-variables
p4769
aVyuv
p4770
aVyui
p4771
aVlockscreen
p4772
aVyum
p4773
aVswing
p4774
aVtelerik-mvc
p4775
aVview
p4776
aVwindows-explorer
p4777
aVredhat
p4778
aVironruby
p4779
aVpseudocode
p4780
aVclient-side
p4781
aVmodulo
p4782
aVios5
p4783
aVios4
p4784
aVios7
p4785
aVios6
p4786
aViad
p4787
aVappcelerator
p4788
aVmonkeypatching
p4789
aVsilverlight-toolkit
p4790
aVcontactscontract
p4791
aVpyqt4
p4792
aVquery-builder
p4793
aVpragma
p4794
aVctags
p4795
aVcopy
p4796
aVfindbugs
p4797
aVrequire
p4798
aVr
p4799
aVspring-integration
p4800
aVeclipse-plugin-dev
p4801
aVant
p4802
aVjquery-selectors
p4803
aVsharepoint-2007
p4804
aVanimation
p4805
aVxtragrid
p4806
aVsurf
p4807
aVmeta-tags
p4808
aVinternet-explorer-9
p4809
aVinternet-explorer-8
p4810
aVtornado
p4811
aVinternet-explorer-7
p4812
aVinternet-explorer-6
p4813
aVc#-4.0
p4814
aVsoftware-engineering
p4815
aVwhere-clause
p4816
aVraytracing
p4817
aVdojox
p4818
aVselenium-grid
p4819
aVkey-bindings
p4820
aVzend-db
p4821
aVuitextfield
p4822
aVgoogle-cloud-messaging
p4823
aVnlp
p4824
aVnspredicate
p4825
aVpermission-denied
p4826
aVdatagrid
p4827
aVmonads
p4828
aVspaces
p4829
aVmarkerclusterer
p4830
aVhack
p4831
aVdll
p4832
aVlua
p4833
aVjsoup
p4834
aV32bit-64bit
p4835
aVactionview
p4836
aVreset
p4837
aVquery-string
p4838
aVmongoengine
p4839
aVssl
p4840
aVssh
p4841
aVsse
p4842
aVnetty
p4843
aVflickr
p4844
aVhttpd.conf
p4845
aVbison
p4846
aVrelease-management
p4847
aVclosures
p4848
aVconnections
p4849
aVcom+
p4850
aVrmi
p4851
aVdetect
p4852
aVbackbone.js
p4853
aVwindows-forms-designer
p4854
aVquartz-graphics
p4855
aVgmail-imap
p4856
aV.net-4.5
p4857
aV.net-4.0
p4858
aVbitset
p4859
aVnsnumber
p4860
aVvimrc
p4861
aVuipageviewcontroller
p4862
aVregion
p4863
aVdatagridview
p4864
aVgoogle-docs
p4865
aVbroadcastreceiver
p4866
aVrace-condition
p4867
aVfiltering
p4868
aVcabal
p4869
aVkey
p4870
aVbitmapdata
p4871
aVauthlogic
p4872
aVpop
p4873
aVsampling
p4874
aVcolorbox
p4875
aVassertions
p4876
aVhomebrew
p4877
aVjnlp
p4878
aVthinking-sphinx
p4879
aVjbpm
p4880
aVsql-server-2008-express
p4881
aVvisual-foxpro
p4882
aVdirection
p4883
aVcopy-paste
p4884
aVapache-felix
p4885
aVmocking
p4886
aVcommon-table-expression
p4887
aVaudio-streaming
p4888
aVironpython
p4889
aVprotocols
p4890
aVcase
p4891
aVwith-statement
p4892
aVpostscript
p4893
aVmount
p4894
aVcoldfusion
p4895
aVmysql-connector
p4896
aVconfigurationmanager
p4897
aVtelephony
p4898
aVjface
p4899
aVreshape
p4900
aVlocking
p4901
aVcommand-line-arguments
p4902
aVhtml
p4903
aVservice-broker
p4904
aVevents
p4905
aVstatus
p4906
aVscreenshot
p4907
aVdynamics-crm-2011
p4908
aVdriver
p4909
aVsamsung-smart-tv
p4910
aVsubmenu
p4911
aVminimize
p4912
aVcomponents
p4913
aVmodel
p4914
aVmodem
p4915
aVcompact-framework
p4916
aVclob
p4917
aVradio-button
p4918
aVkill
p4919
aVunicode
p4920
aVmongoose
p4921
aVinternationalization
p4922
aVsymbolic-math
p4923
aValphabetical
p4924
aVsamba
p4925
aVsql-server-ce
p4926
aVmetaprogramming
p4927
aVazure-storage-blobs
p4928
aVapache2
p4929
aVdecompression
p4930
aVblob
p4931
aVrdlc
p4932
aVlibreoffice
p4933
aVstyles
p4934
aVscheduler
p4935
aVsilverlight
p4936
aVargument-passing
p4937
aVjfreechart
p4938
aVtemplating
p4939
aVsimulator
p4940
aVbackground-process
p4941
aVoperating-system
p4942
aVreturn-value
p4943
aVrsync
p4944
aVdynamic-linking
p4945
aVliterals
p4946
aVgearman
p4947
aVrpm
p4948
aVredis
p4949
aVslick
p4950
aVlegal
p4951
aVautomake
p4952
aVprovider
p4953
aVkvm
p4954
aVshared-hosting
p4955
aVelementtree
p4956
aVclass-method
p4957
aVfirebird
p4958
aVsqldatasource
p4959
aVworksheet
p4960
aVspss
p4961
aVwebsphere-6.1
p4962
aVcuda
p4963
aVnullpointerexception
p4964
aVknitr
p4965
aVcurses
p4966
aVcommunication
p4967
aVnumber-formatting
p4968
aVliferay
p4969
aVcode-snippets
p4970
aVodata
p4971
aVmatlab-toolbox
p4972
aVvb.net-2010
p4973
aVcrontab
p4974
aVframebuffer
p4975
aVactivemq
p4976
aVioc-container
p4977
aVwcf-data-services
p4978
aVandroid-ksoap2
p4979
aVentity-attribute-value
p4980
aVexcel-2003
p4981
aVsqoop
p4982
aVexcel-2007
p4983
aVrvm
p4984
aVasynchronous
p4985
aVfirebug
p4986
aVcoded-ui-tests
p4987
aVfiddler
p4988
aVclearcase-ucm
p4989
aVamazon-sqs
p4990
aVgettext
p4991
aVmatrix-multiplication
p4992
aVvirtual-memory
p4993
aVwindows-xp
p4994
aVtype-conversion
p4995
aVrspec-rails
p4996
aVhttpmodule
p4997
aVjavafx-2
p4998
aVjavafx-8
p4999
aVsymbol
p5000
aVqtablewidget
p5001
aVattached-properties
p5002
aVnswindow
p5003
aVraspbian
p5004
aVn-tier
p5005
aVwifi
p5006
aVcurve
p5007
aVvisual-c++
p5008
aVclasscastexception
p5009
aVdirectory
p5010
aVcollision-detection
p5011
aVtelerik-grid
p5012
aVbytearray
p5013
aVlua-table
p5014
aVx509certificate
p5015
aVscalaz
p5016
aVdisk
p5017
aVfluentvalidation
p5018
aVinit
p5019
aVwebgrid
p5020
aVkeydown
p5021
aVical
p5022
aVsony
p5023
aVdapper
p5024
aVpush-notification
p5025
aVlisp
p5026
aVevaluation
p5027
aVlist
p5028
aVpicasa
p5029
aVdomain-driven-design
p5030
aVwebdav
p5031
aVbuilt-in
p5032
aVjeditorpane
p5033
aVsyslog
p5034
aVdesign
p5035
aVshared-libraries
p5036
aVlistbox
p5037
aVpinterest
p5038
aVsum
p5039
aVversion
p5040
aVsession-timeout
p5041
aVimage-resizing
p5042
aVmemcached
p5043
aVjsf-2
p5044
aVstandards-compliance
p5045
aVtags
p5046
aVmediaelement.js
p5047
aVweb-security
p5048
aVmongodb-java
p5049
aVhashtable
p5050
aVswi-prolog
p5051
aVlinux-device-driver
p5052
aVmediastore
p5053
aVthrift
p5054
aVmicrodata
p5055
aVgrails-plugin
p5056
aVanonymous-function
p5057
aVrequirejs
p5058
aVviewflipper
p5059
aVonbeforeunload
p5060
aVoptions
p5061
aVrename
p5062
aVrenderpartial
p5063
aVtfsbuild
p5064
aVword-vba
p5065
aVjbutton
p5066
aVcrystal-reports-2008
p5067
aVgame-center
p5068
aVrazor-2
p5069
aVdeque
p5070
aVoperators
p5071
aVopenframeworks
p5072
aVdom-manipulation
p5073
aVssis-data-transformations
p5074
aVgeneric-programming
p5075
aVspeech-recognition
p5076
aVsymfony-2.3
p5077
aVsymfony-2.1
p5078
aVrestsharp
p5079
aVradgrid
p5080
aVcircular-dependency
p5081
aVlarge-files
p5082
aVequation
p5083
aVfor-loop
p5084
aVcpu-architecture
p5085
aVavi
p5086
aVdivision
p5087
aVvirtuemart
p5088
aVrvalue-reference
p5089
aVcapistrano
p5090
aVwebsphere-7
p5091
aVwebsphere-8
p5092
aValgebra
p5093
aVlighting
p5094
aVlazy-loading
p5095
aVinvalidoperationexception
p5096
aVshort
p5097
aVandroid-dialog
p5098
aVfooter
p5099
aVpostfix
p5100
aVtelephonymanager
p5101
aVcallback
p5102
aVblackberry-playbook
p5103
aVhandlebars
p5104
aVxmpp
p5105
aVcode-generation
p5106
aVtypedef
p5107
aVphantomjs
p5108
aVsvcutil.exe
p5109
aValter
p5110
aVreturn
p5111
aVresizable
p5112
aVmemory-management
p5113
aVshow-hide
p5114
aVgetelementbyid
p5115
aVscipy
p5116
aVms-office
p5117
aVgame-engine
p5118
aVamazon-ec2
p5119
aVstring-array
p5120
aVnservicebus
p5121
aVrefresh
p5122
aVinnodb
p5123
aVoutputstream
p5124
aVandroid-facebook
p5125
aVshared-objects
p5126
aVaddressbook
p5127
aVgoogle-gdk
p5128
aVexpect
p5129
aVloops
p5130
aVauthorize.net
p5131
aVimpersonation
p5132
aVdirectx-11
p5133
aVetag
p5134
aVhibernate-mapping
p5135
aVbing-maps-api
p5136
aVsqldatatypes
p5137
aVstrong-parameters
p5138
aVmodularity
p5139
aVimacros
p5140
aVmissing-data
p5141
aVcomplex-numbers
p5142
aVfeed
p5143
aVnotify
p5144
aVservicebus
p5145
aVxml-namespaces
p5146
aVbluetooth-lowenergy
p5147
aVdbunit
p5148
aVgpg
p5149
aVrailo
p5150
aVspock
p5151
aVstorm
p5152
aVgpu
p5153
aVstore
p5154
aVgps
p5155
aVjquery-tools
p5156
aVsegue
p5157
aVoption
p5158
aVpolymorphism
p5159
aVsilex
p5160
aVmediarecorder
p5161
aVbbcode
p5162
aVdouble
p5163
aVdevice-driver
p5164
aVvariable-scope
p5165
aVbitwise
p5166
aVjasper-reports
p5167
aVscatter-plot
p5168
aVobjective-c-runtime
p5169
aVcharacter-encoding
p5170
aVfile-get-contents
p5171
aVwindows-phone-8
p5172
aVtransactional
p5173
aVwindows-phone-7
p5174
aVquicksort
p5175
aVcentos6
p5176
aVeasy-install
p5177
aVjsf
p5178
aVpopulate
p5179
aVwarnings
p5180
aVdata.frame
p5181
aVsearchview
p5182
aVzend-form-element
p5183
aVsaxparser
p5184
aVsql-server-2008-r2
p5185
aVpdfbox
p5186
aVrunnable
p5187
aVcrosstab
p5188
aVmathematical-optimization
p5189
aVwindows
p5190
aVandroid-video-player
p5191
aVwebclient
p5192
aVcaching
p5193
aVpublic-key
p5194
aVandroid-arrayadapter
p5195
aVrtf
p5196
aVcdn
p5197
aVcdi
p5198
aVcdt
p5199
aVarea
p5200
aVrtp
p5201
aVtypo3
p5202
aViis-7.5
p5203
aVcheckboxlist
p5204
aVtriangle
p5205
aVinvoke
p5206
aVpjsip
p5207
aVhid
p5208
aVrelational
p5209
aVpython-c-api
p5210
aVcompiler
p5211
aVactiviti
p5212
aVactivity
p5213
aVfacebook-access-token
p5214
aVequinox
p5215
aVdump
p5216
aVweb-services
p5217
aVandroid-tablelayout
p5218
aVarm
p5219
aVfullscreen
p5220
aVlibraries
p5221
aVunions
p5222
aVoffline-caching
p5223
aVformatter
p5224
aVgoogle-translate
p5225
aVcorruption
p5226
aVhexadecimal-notation
p5227
aVprofiling
p5228
aVappwidget
p5229
aVcode-smell
p5230
aVconsole
p5231
aVsolr
p5232
aVsonata-admin
p5233
aVc
p5234
aVberkeley-db
p5235
aVcontext
p5236
aVfile-io
p5237
aVmultiple-columns
p5238
aVgroups
p5239
aVhtml5-appcache
p5240
aVzurb-foundation
p5241
aVkeytool
p5242
aVexc-bad-access
p5243
aVswf
p5244
aVpc
p5245
aVpg
p5246
aVpe
p5247
aVswt
p5248
aVresttemplate
p5249
aVprecision
p5250
aVrspec
p5251
aVdql
p5252
aVz-index
p5253
aVgridpanel
p5254
aVosx-mountain-lion
p5255
aVautomator
p5256
aVreflection.emit
p5257
aVproject-euler
p5258
aVdirectoryservices
p5259
aVscreen-size
p5260
aVbehavior
p5261
aVspring-webflow
p5262
aVtreenode
p5263
aVcode-completion
p5264
aVandroid-textview
p5265
aVcamera-calibration
p5266
aVactivesupport
p5267
aVria
p5268
aVhadoop
p5269
aVcoffeescript
p5270
aVsqlite3
p5271
aVshiro
p5272
aVfacebook-timeline
p5273
aVx86
p5274
aVhidden-field
p5275
aVgoogle-code
p5276
aVtriangulation
p5277
aVmips
p5278
aVbackground-image
p5279
aVtabactivity
p5280
aVblackberry-simulator
p5281
aVanalysis
p5282
aVedge
p5283
aVcpan
p5284
aVelastic-map-reduce
p5285
aVjtree
p5286
aVmarshalling
p5287
aVeclipse-cdt
p5288
aVintervals
p5289
aVhuffman
p5290
aVloading
p5291
aVhello-world
p5292
aVtablet
p5293
aVenvdte
p5294
aVfinder
p5295
aVjquery-datatables
p5296
aVlinked-server
p5297
aVaggregation
p5298
aVinteger
p5299
aVjfilechooser
p5300
aVlinqpad
p5301
aVignore
p5302
aVsitemap
p5303
aVouter-join
p5304
aVmodernizr
p5305
aVgoogle-api
p5306
aVtraits
p5307
aVgoogle-play-services
p5308
aVnewsletter
p5309
aVebean
p5310
aVcommand-prompt
p5311
aVread-eval-print-loop
p5312
aVglibc
p5313
aVwkhtmltopdf
p5314
aVkendo-grid
p5315
aVgenetic-algorithm
p5316
aVhibernate-annotations
p5317
aVxsd
p5318
aVvbulletin
p5319
aVkeycode
p5320
aVconfluence
p5321
aVpipeline
p5322
aVgrand-central-dispatch
p5323
aVbounding-box
p5324
aVsymfony1
p5325
aVsymfony2
p5326
aVrange
p5327
aVtogglebutton
p5328
aVliferay-6
p5329
aVmcrypt
p5330
aVwebview
p5331
aVxmlnode
p5332
aVpageload
p5333
aVmyisam
p5334
aVhottowel
p5335
aVfopen
p5336
aVellipse
p5337
aVrows
p5338
aVmvccontrib
p5339
aVlldb
p5340
aVxps
p5341
aVtwitter
p5342
aVwindows-8.1
p5343
aVcriteria
p5344
aVisolatedstorage
p5345
aVpaypal-sandbox
p5346
aVpopupwindow
p5347
aVpartitioning
p5348
aVflash-player
p5349
aVhighlight
p5350
aVshortcuts
p5351
aVfread
p5352
aVtomcat7
p5353
aVtomcat6
p5354
aVrally
p5355
aVdataadapter
p5356
aVspring-social
p5357
aVerror-reporting
p5358
aVlucene.net
p5359
aVfile-extension
p5360
aVgoogle-calendar
p5361
aVquartz-core
p5362
aVoutlook-vba
p5363
aVsystem-tray
p5364
aVuploadify
p5365
aVoverlay
p5366
aVkarma
p5367
aVtextmate
p5368
aVscroll
p5369
aVnasm
p5370
aVgoogle-api-java-client
p5371
aVdependency-injection
p5372
aVggplot2
p5373
aVtooltip
p5374
aVdialogbox
p5375
aVbase64
p5376
aVlanguages
p5377
aVarchlinux
p5378
aVeclipse-rcp
p5379
aVinclude
p5380
aVjunit
p5381
aVconfirmation
p5382
aVsymfony-sonata
p5383
aVtransactionscope
p5384
aVstackoverflow
p5385
aVkinect-sdk
p5386
aVibm
p5387
aVfadeout
p5388
aVrobotframework
p5389
aVpackage-managers
p5390
aVpolling
p5391
aVembedded-database
p5392
aVcfc
p5393
aVfold
p5394
aVtortoisesvn
p5395
aVuinavigationitem
p5396
aVbdd
p5397
aVuitabbaritem
p5398
aVnsnotificationcenter
p5399
aVisapi
p5400
aVeventtrigger
p5401
aVcx-freeze
p5402
aVember-data
p5403
aVjson-encode
p5404
aVin-app-billing
p5405
aVjqtouch
p5406
aVjquery-ui
p5407
aVfirefox-addon-sdk
p5408
aVgoogle-chrome
p5409
aVshader
p5410
aVnsstring
p5411
aVwebrequest
p5412
aVhelpers
p5413
aVenterprise-library
p5414
aVlanguage-design
p5415
aVapple
p5416
aVuiviewanimation
p5417
aVapk
p5418
aVapi
p5419
aVgoogle-cast
p5420
aVapply
p5421
aVwindows-azure-storage
p5422
aVlnk2019
p5423
aVstream
p5424
aVnexus
p5425
aVportable-class-library
p5426
aVweb-deployment-project
p5427
aVgeneric-list
p5428
aVred5
p5429
aVepoll
p5430
aVsql-like
p5431
aVxaml
p5432
aVeditable
p5433
aVoverride
p5434
aVtableview
p5435
aVenterprise-architect
p5436
aVthymeleaf
p5437
aVphpstorm
p5438
aVeclipse-wtp
p5439
aVtap
p5440
aVtar
p5441
aVserial
p5442
aVapex-code
p5443
aVdwr
p5444
aVsip
p5445
aVarcgis
p5446
aVscala-collections
p5447
aVtextblock
p5448
aVoracle-adf
p5449
aVadministrator
p5450
aVpostback
p5451
aVrequirements
p5452
aVmultiple-inheritance
p5453
aVwindows-services
p5454
aVauto-generate
p5455
aVlight
p5456
aVfailover
p5457
aVnamed-pipes
p5458
aVdjango-class-based-views
p5459
aVsubdomains
p5460
aVfreebsd
p5461
aVcrawling
p5462
aVmouseover
p5463
aVinterpreter
p5464
aVoperator-keyword
p5465
aVspotify
p5466
aVdisqus
p5467
aVsqlexception
p5468
aVglew
p5469
aVmultithreading
p5470
aVflex
p5471
aVmultimap
p5472
aVcrash
p5473
aVindexing
p5474
aVa-star
p5475
aVfingerprint
p5476
aVsignals-slots
p5477
aVnfc
p5478
aVtrac
p5479
aVedit
p5480
aV.net
p5481
aVbitwise-operators
p5482
aVnfs
p5483
aVvideoview
p5484
aVwinrt-xaml
p5485
aVcascading-deletes
p5486
aVmaven-plugin
p5487
aVregistration
p5488
aVsimpledateformat
p5489
aVmxml
p5490
aVxlrd
p5491
aVvimscript
p5492
aVhttpurlconnection
p5493
aVout
p5494
aVcategory
p5495
aVfckeditor
p5496
aVcommand-line
p5497
aVvcl
p5498
aVfriendly-url
p5499
aVmetaclass
p5500
aVmoxy
p5501
aVpixelsense
p5502
aVdictionary
p5503
aVipod
p5504
aVachartengine
p5505
aVimplode
p5506
aVmulti-tenant
p5507
aVonclicklistener
p5508
aVsimplexml
p5509
aVvc6
p5510
aVxml-schema
p5511
aVmaven-3
p5512
aVmaven-2
p5513
aVindesign
p5514
aVecho
p5515
aVcolor-picker
p5516
aVweka
p5517
aVcolor-scheme
p5518
aVmakefile
p5519
aVpriority
p5520
aVunhandled-exception
p5521
aVcompiler-warnings
p5522
aVshell
p5523
aVslider
p5524
aVsessionid
p5525
aVquantmod
p5526
aVdelphi-2009
p5527
aVadfs2.0
p5528
aVpojo
p5529
aVdelphi-2007
p5530
aVunmarshalling
p5531
aVrepository-pattern
p5532
aVsimplemembership
p5533
aVmigration
p5534
aVprotocol-buffers
p5535
aVtwitter-api
p5536
aVclip
p5537
aVapache-commons
p5538
aVlinker
p5539
aVqueryset
p5540
aVtypeahead
p5541
aVlinked
p5542
aVangle
p5543
aVcontact
p5544
aVscons
p5545
aVlanguage-lawyer
p5546
aVautomated-tests
p5547
aVcollaboration
p5548
aVclass
p5549
aVvolume
p5550
aVgoogle-maps-sdk-ios
p5551
aVpipe
p5552
aVgodaddy
p5553
aVjcr
p5554
aVef-code-first
p5555
aVgrails-domain-class
p5556
aVweb.py
p5557
aVpyparsing
p5558
aVrouting
p5559
aVstrtok
p5560
aVdatarow
p5561
aVlocal
p5562
aVurlconnection
p5563
aVcube
p5564
aVdiacritics
p5565
aVwords
p5566
aVcustom-action
p5567
aVdesign-patterns
p5568
aVqt
p5569
aVdynamic-data
p5570
aVpython-requests
p5571
aVjava.util.concurrent
p5572
aVqa
p5573
aVsql-management-studio
p5574
aVmenuitem
p5575
aVstylecop
p5576
aVsaml-2.0
p5577
aVcheckstyle
p5578
aVgoogle-cloud-endpoints
p5579
aVmodule
p5580
aVpinchzoom
p5581
aVmultipart
p5582
aVgmail
p5583
aVbreakpoints
p5584
aVnested-lists
p5585
aVg++
p5586
aVuielement
p5587
aVteamcity
p5588
aVzend-framework2
p5589
aVp2p
p5590
aVtypeclass
p5591
aVios
p5592
aVuserform
p5593
aVlogin-control
p5594
aVwebservice-client
p5595
aVdeserialization
p5596
aVbean-validation
p5597
aVchmod
p5598
aVpackaging
p5599
aVrpc
p5600
aVcxf
p5601
aVsequences
p5602
aVtable
p5603
aVgoogle-talk
p5604
aVqemu
p5605
aVoffice365
p5606
aVcharts
p5607
aVsemaphore
p5608
aVporting
p5609
aVjlist
p5610
aVresteasy
p5611
aVstring-matching
p5612
aVpartials
p5613
aVvimeo
p5614
aVcursor
p5615
aVarraylist
p5616
aVargv
p5617
aVlayer
p5618
aVdjango-modelform
p5619
aVfacebook-page
p5620
aVavr
p5621
aVdo-while
p5622
aVlinq-to-entities
p5623
aVstringtokenizer
p5624
aVexchange-server-2010
p5625
aVavd
p5626
aVprivileges
p5627
aVclasspath
p5628
aVenumeration
p5629
aVmember
p5630
aVunity
p5631
aVslickgrid
p5632
aVautomation
p5633
aVconnection-pooling
p5634
aVsingle-table-inheritance
p5635
aVcoding-style
p5636
aVdynamics-ax-2012
p5637
aVjpql
p5638
aVsnmp
p5639
aVkaminari
p5640
aVuisegmentedcontrol
p5641
aVmfc
p5642
aVtcp
p5643
aVdata-visualization
p5644
aVtcl
p5645
aVjava-ee
p5646
aVunsigned
p5647
aVwso2esb
p5648
aVusage
p5649
aVjython
p5650
aVbox-api
p5651
aVusing-statement
p5652
aVmatlab-deployment
p5653
aVjboss-weld
p5654
aVandroid-camera-intent
p5655
aVhosts
p5656
aVandroid-listfragment
p5657
aVmod-rewrite
p5658
aVsequence
p5659
aVkde
p5660
aVsettext
p5661
aVjquery-cycle
p5662
aVtumblr
p5663
aVexport
p5664
aVsuperclass
p5665
aVbuildout
p5666
aVleak
p5667
aVondraw
p5668
aVdynamically-generated
p5669
aVcross-domain
p5670
aVphalcon
p5671
aVartifactory
p5672
aVpyrocms
p5673
aVsprite-kit
p5674
aVstax
p5675
aVdjango-celery
p5676
aVpaste
p5677
aVslug
p5678
aVshopify
p5679
aVshipping
p5680
aVdatagram
p5681
aVashx
p5682
aVconstructor
p5683
aVclojure
p5684
aVowl
p5685
aVclustered-index
p5686
aVmyeclipse
p5687
aVskydrive
p5688
aVumbraco
p5689
aVweather
p5690
aVpromise
p5691
aVfreeze
p5692
aVtransfer
p5693
aVfilesize
p5694
aVdatabase-restore
p5695
aVvar
p5696
aVlog4net
p5697
aVdjango-admin
p5698
aVhyper-v
p5699
aVappdelegate
p5700
aVphusion-passenger
p5701
aVtaglib
p5702
aVrecord
p5703
aVbig-o
p5704
aVdjango-templates
p5705
aVcustomvalidator
p5706
aVandroid-preferences
p5707
aVoffice-2007
p5708
aVreloaddata
p5709
aVcss-transition
p5710
aVboot
p5711
aVmongodb-php
p5712
aVbranch
p5713
aVphp4
p5714
aVriak
p5715
aVmobile-application
p5716
aVjung
p5717
aVasset-pipeline
p5718
aVunix-timestamp
p5719
aVdebian
p5720
aVsencha-architect
p5721
aVsass
p5722
aVjscript
p5723
aVpython-idle
p5724
a.