(dp0
Vh.264
p1
NsVscreen-resolution
p2
Vandroid
p3
sVuserscripts
p4
Vjavascript
p5
sVprefix
p6
NsVtcp-ip
p7
NsVdropbox-api
p8
NsVtypeerror
p9
NsVxts
p10
Vr
p11
sVwindows-ce
p12
NsVcreatejs
p13
NsVopenmpi
p14
Vc
p15
sVonsubmit
p16
Vjavascript
p17
sVjquery-callback
p18
NsVfilenotfoundexception
p19
Vjava
p20
sVhttp-authentication
p21
NsVrhomobile
p22
NsVlegacy-code
p23
Vjava
p24
sVrabbitmq
p25
NsVlistview
p26
NsVcufon
p27
NsVdynamics-crm
p28
NsVmsysgit
p29
NsVbittorrent
p30
NsVdbcontext
p31
NsVdevelopment-environment
p32
NsVsolrnet
p33
Vsolr
p34
sVwindow.location
p35
Vjavascript
p36
sVtcpclient
p37
NsVwidget
p38
Vandroid
p39
sVcustom-adapter
p40
NsVviewcontroller
p41
NsVjasmine
p42
Vjavascript
p43
sVsunspot
p44
Vruby-on-rails
p45
sVfacebook-opengraph
p46
NsVtravis-ci
p47
NsVcurve-fitting
p48
Vmatlab
p49
sVjquery-ajax
p50
Vjavascript
p51
sVprojection
p52
NsVclassification
p53
g53
sVcontact-form
p54
Vphp
p55
sVreplace
p56
Vphp
p57
sVsubstr
p58
Vphp
p59
sVunix
p60
g60
sVsilverlight-5.0
p61
NsValter-table
p62
Vmysql
p63
sVfstream
p64
Vc++
p65
sVdata-warehouse
p66
g66
sVmusic
p67
Vandroid
p68
sVdns
p69
g69
sVtokenize
p70
Vjava
p71
sVmonomac
p72
NsVjmx
p73
Vjava
p74
sVjms
p75
g75
sVkineticjs
p76
Vjavascript
p77
sVjmf
p78
Vjava
p79
sVdatanucleus
p80
NsVuiprogressview
p81
Vios
p82
sVspring-jms
p83
NsVdroppable
p84
Vjquery
p85
sVsmtp
p86
g86
sVtitanium
p87
Vandroid
p88
sVfibonacci
p89
NsVsignal-processing
p90
g90
sVabsolute
p91
Vcss
p92
sVmotion
p93
NsVsybase-ase
p94
Vsql
p95
sVgeojson
p96
Vjavascript
p97
sVavfoundation
p98
Vios
p99
sVplayback
p100
Vaudio
p101
sVactionscript
p102
g102
sVremote-access
p103
NsVnhibernate
p104
NsVwinsock
p105
NsViboutlet
p106
Vios
p107
sVabstraction
p108
NsVlonglistselector
p109
NsVsidekiq
p110
Vruby-on-rails
p111
sVdiagram
p112
Vjava
p113
sVplyr
p114
Vr
p115
sViis-7
p116
Vasp.net
p117
sViis-6
p118
Vasp.net
p119
sViis-8
p120
Viis
p121
sVtypes
p122
NsVfsockopen
p123
Vphp
p124
sVdijit
p125
Vjavascript
p126
sVwebfonts
p127
NsValias
p128
Vsql
p129
sVvideo-capture
p130
Vandroid
p131
sVjenkins-plugins
p132
NsVpresentmodalviewcontrolle
p133
Vios
p134
sVjquery-tabs
p135
Vjquery
p136
sVsendgrid
p137
NsVbit-fields
p138
Vc
p139
sVrestriction
p140
Vphp
p141
sVxlib
p142
NsVbootstrapper
p143
NsVhtml-table
p144
Vhtml
p145
sVforce-layout
p146
Vjavascript
p147
sVspring-data-jpa
p148
Vspring
p149
sVconcurrency
p150
g150
sVlistactivity
p151
Vandroid
p152
sVuuid
p153
Vjava
p154
sVandroid-ndk
p155
NsVdynamic-language-runtime
p156
NsVhidden
p157
Vjquery
p158
sVautosuggest
p159
Vjquery
p160
sVslicing
p161
Vpython
p162
sVcloud-hosting
p163
Vcloud
p164
sVeffects
p165
Vjquery
p166
sVmpmovieplayer
p167
NsVinterrupt
p168
g15
sVmultidimensional
p169
Vphp
p170
sVrepaint
p171
NsVselenium-ide
p172
Vselenium
p173
sVria-services
p174
NsVtimeout
p175
Vphp
p176
sVgoogle-analytics
p177
g177
sVcss-position
p178
NsVphoto-gallery
p179
NsVazure-storage-tables
p180
NsVmdi
p181
NsVdjango-authentication
p182
Vdjango
p183
sVfunctional-programming
p184
g184
sVandroid-manifest
p185
NsVmdx
p186
NsVmongoid
p187
NsVgreatest-n-per-group
p188
NsVoverwrite
p189
Vjava
p190
sVdst
p191
NsVsms
p192
Vandroid
p193
sVsmo
p194
NsVdsl
p195
NsVsml
p196
NsVdatacontractserializer
p197
NsVado.net
p198
NsVfoundation
p199
g199
sVgunicorn
p200
Vdjango
p201
sVpaypal-ipn
p202
Vphp
p203
sVmd5
p204
NsVxargs
p205
Vbash
p206
sVvisualvm
p207
Vjava
p208
sVatl
p209
NsVjavafx
p210
Vjava
p211
sVwindows-mobile
p212
NsVmingw
p213
NsVformview
p214
Vasp.net
p215
sVcustomization
p216
NsVxib
p217
NsVsmartgwt
p218
NsVservice
p219
Vandroid
p220
sVddms
p221
Vandroid
p222
sVtsql
p223
Vsql
p224
sVwsdl2java
p225
Vjava
p226
sVsqlcmd
p227
g224
sVmaster
p228
Vgit
p229
sVwindbg
p230
NsVcdata
p231
Vxml
p232
sVedmx
p233
NsVandroid-drawable
p234
Vandroid
p235
sVtree
p236
Vjava
p237
sVdynamics-crm-4
p238
NsVfile-upload
p239
Vphp
p240
sVhierarchical-data
p241
Vsql
p242
sVtreeview
p243
NsVnopcommerce
p244
NsVbuild-automation
p245
NsVdozer
p246
Vjava
p247
sVwebsocket
p248
NsVfilemaker
p249
Vphp
p250
sVincrement
p251
Vjavascript
p252
sVcompareto
p253
NsVblazeds
p254
NsVoffice-interop
p255
NsVmkmapview
p256
Vios
p257
sVthree.js
p258
Vjavascript
p259
sVtransactions
p260
NsVobject
p261
NsVmetrics
p262
Vjava
p263
sVicloud
p264
Vios
p265
sVvarargs
p266
NsVasp.net-mvc
p267
NsVangular-ui-router
p268
NsVplayframework-1.x
p269
NsVfabricjs
p270
Vjavascript
p271
sVjson-decode
p272
NsVcaml
p273
Vsharepoint
p274
sVlanguage-agnostic
p275
Valgorithm
p276
sViphone-web
p277
NsVsoundpool
p278
Vandroid
p279
sVhibernate-validator
p280
NsVautoit
p281
NsVunmanaged
p282
NsVgitignore
p283
Vgit
p284
sVlayout
p285
Vandroid
p286
sVmenu
p287
Vcss
p288
sVcriteria-api
p289
Vjava
p290
sVuser-agent
p291
NsVform-for
p292
Vruby-on-rails
p293
sVqwidget
p294
NsVwebrtc
p295
NsVqgraphicsview
p296
Vc++
p297
sVshortest-path
p298
NsVpass-by-reference
p299
NsVsendmessage
p300
NsVxmlreader
p301
NsVsymfony-forms
p302
Vphp
p303
sVrelease
p304
NsVrestkit-0.20
p305
NsVjaxb2
p306
NsVresult
p307
Vphp
p308
sVdelphi
p309
g309
sVstackoverflowexception
p310
NsVwikipedia
p311
NsVclass-design
p312
NsVdjango-testing
p313
NsVdata.table
p314
g11
sVspring-integration
p315
NsVirb
p316
NsVirc
p317
Vpython
p318
sVextend
p319
Vjavascript
p320
sVwcf-security
p321
Vwcf
p322
sVmultipartform-data
p323
NsVjquery-validate
p324
NsVmobile-website
p325
NsVconstexpr
p326
Vc++
p327
sVgnu-make
p328
NsVopengl-es
p329
Vandroid
p330
sVcarbon
p331
Vcocoa
p332
sVrtti
p333
Vdelphi
p334
sVsd-card
p335
NsVtriggers
p336
NsVdalvik
p337
NsVadapter
p338
Vandroid
p339
sVsyntax-highlighting
p340
NsVlogic
p341
Vphp
p342
sVglobal-variables
p343
Vjavascript
p344
sVlogin
p345
Vphp
p346
sVinnerhtml
p347
NsVgxt
p348
Vgwt
p349
sVduplicate-removal
p350
Vsql
p351
sVkohana
p352
Vphp
p353
sVdiff
p354
NsVbilling
p355
NsVunion
p356
Vsql
p357
sVdicom
p358
NsVextraction
p359
Vpython
p360
sVdreamweaver
p361
g361
sVpartial-classes
p362
NsVsencha-touch
p363
NsVautocompletetextview
p364
NsVhardware-acceleration
p365
Vandroid
p366
sVtelnet
p367
NsVprimitive-types
p368
Vjava
p369
sVlift
p370
Vscala
p371
sVweb-hosting
p372
NsVrobolectric
p373
Vandroid
p374
sVosx-leopard
p375
NsVdatatable
p376
NsVboost-bind
p377
Vc++
p378
sVdecisiontrees
p379
NsVgeoip
p380
NsVtyposcript
p381
NsVjplayer
p382
Vjquery
p383
sVvisual-studio-2013
p384
NsVvisual-studio-2012
p385
NsVvisual-studio-2010
p386
NsVdata-structures
p387
g387
sVtoolkit
p388
Vwpf
p389
sVplayer
p390
NsVognl
p391
NsVlinechart
p392
NsVjquery-live
p393
Vjquery
p394
sVlinq-to-nhibernate
p395
NsVsplit
p396
Vjava
p397
sVmaven-release-plugin
p398
NsVtemplates
p399
NsVvectorization
p400
Vmatlab
p401
sVfilenames
p402
Vphp
p403
sVternary-operator
p404
Vphp
p405
sVwebstorm
p406
Vjavascript
p407
sVgzip
p408
NsVsettimeout
p409
NsVbing-api
p410
NsVdependency-properties
p411
Vwpf
p412
sVopengl-3
p413
Vopengl
p414
sVgarbage-collection
p415
NsVms-access-2007
p416
Vms-access
p417
sVxmlhttprequest
p418
NsVms-access-2003
p419
Vms-access
p420
sVquartz-scheduler
p421
NsVfortran
p422
g422
sVcollections
p423
Vjava
p424
sVnssortdescriptor
p425
NsVservicemix
p426
NsVbnf
p427
NsVeasymock
p428
NsVfind-and-replace
p429
g57
sVshadow
p430
Vcss
p431
sVunique
p432
Vmysql
p433
sVcase-sensitive
p434
Vmysql
p435
sVapp-store
p436
Vios
p437
sVmemory-leaks
p438
Vmemory-management
p439
sVui-automation
p440
NsVfancybox
p441
Vjquery
p442
sVole
p443
NsVonchange
p444
Vjavascript
p445
sVxmlserializer
p446
NsVfop
p447
NsVmonogame
p448
NsVjavax.imageio
p449
Vjava
p450
sVandroid-studio
p451
NsVsubclass
p452
Vjava
p453
sVuml
p454
g113
sVactivemodel
p455
Vruby-on-rails
p456
sVbarcode
p457
Vandroid
p458
sVsubfolder
p459
NsVforeign-keys
p460
Vmysql
p461
sVjoomla
p462
NsVwordpress-plugin
p463
Vwordpress
p464
sVsoa
p465
g465
sVvlookup
p466
NsVmocha
p467
g467
sVemgu
p468
NsVwrap
p469
Vjquery
p470
sVdirect3d
p471
Vc++
p472
sVfabric
p473
Vpython
p474
sVcombinatorics
p475
g475
sVsupport
p476
Vandroid
p477
sVbootstrap-typeahead
p478
Vcss
p479
sVcss-box-shadow
p480
Vcss
p481
sVwidth
p482
Vcss
p483
sVrebol
p484
NsVwordpress
p485
g485
sVrcpp
p486
g11
sVpassport
p487
NsVfpga
p488
g488
sVlatex
p489
g115
sVsql-loader
p490
Voracle
p491
sVpaypal
p492
g203
sVnotifications
p493
NsVeclipse-pdt
p494
NsVamazon-simpledb
p495
Vamazon-web-services
p496
sVarrays
p497
g170
sVmongomapper
p498
Vmongodb
p499
sVdevices
p500
Vandroid
p501
sVaccess-vba
p502
Vms-access
p503
sVtweepy
p504
Vpython
p505
sVgoogle-maps-markers
p506
Vjavascript
p507
sVpowershell
p508
g508
sVyoutube-api
p509
NsVpassenger
p510
Vruby-on-rails
p511
sVviewmodel
p512
NsVtimezone
p513
NsVweb-frameworks
p514
Vpython
p515
sVlogical-operators
p516
Vphp
p517
sVuipickerview
p518
Vios
p519
sVkeyup
p520
Vjquery
p521
sVactor
p522
Vscala
p523
sVpacket-capture
p524
NsVjenkins
p525
g525
sVandroid-calendar
p526
NsVmodels
p527
Vdjango
p528
sVasterisk
p529
NsVyahoo
p530
Vphp
p531
sVobjectify
p532
NsVrhino-mocks
p533
NsVtablecellrenderer
p534
Vswing
p535
sVsetinterval
p536
Vjavascript
p537
sVcontacts
p538
NsVtime
p539
NsVpush
p540
NsVcodeblocks
p541
Vc++
p542
sVkendo-mobile
p543
NsVosx
p544
g332
sVjtextarea
p545
Vjava
p546
sVswitch-statement
p547
Vjava
p548
sVsolver
p549
NsVtablerow
p550
Vandroid
p551
sVmultiprocessing
p552
Vpython
p553
sVzebra-printers
p554
NsVedittext
p555
NsVvisual-studio-extensions
p556
NsVprediction
p557
NsVsign
p558
Vandroid
p559
sVrestkit
p560
NsVrspec2
p561
Vruby-on-rails
p562
sVdjango-queryset
p563
Vdjango
p564
sVwindows-installer
p565
NsVgoogle-plus-one
p566
NsVbadge
p567
NsVopencart
p568
NsVmergesort
p569
Valgorithm
p570
sVwindows-8
p571
NsVwindows-7
p572
NsVvb.net
p573
NsVqueue
p574
Vjava
p575
sVobjective-c-2.0
p576
Vobjective-c
p577
sVbreadcrumbs
p578
Vphp
p579
sVipc
p580
g15
sVipa
p581
NsVandroid-widget
p582
Vandroid
p583
sVjeditable
p584
Vjquery
p585
sVcode-access-security
p586
V.net
p587
sVbookmarks
p588
Vjavascript
p589
sVintellij-idea
p590
Vjava
p591
sVcallstack
p592
Vc++
p593
sVwicket
p594
Vjava
p595
sVhttpwebrequest
p596
NsVscope
p597
Vjavascript
p598
sVcommonsware
p599
Vandroid
p600
sVstarling-framework
p601
Vflash
p602
sVlowercase
p603
NsVassociative-array
p604
Vphp
p605
sVcurrency
p606
Vphp
p607
sVentity-framework-4.3
p608
NsVentity-framework-4.1
p609
NsVninject
p610
NsVprinting
p611
NsVtext-mining
p612
g612
sVuse-case
p613
g113
sVprogressdialog
p614
Vandroid
p615
sVslidingmenu
p616
NsVandroid-sensors
p617
Vandroid
p618
sVuiimagepickercontroller
p619
Vios
p620
sVmonitoring
p621
Vjava
p622
sVthreadpool
p623
Vmultithreading
p624
sVsavon
p625
NsVfps
p626
Vandroid
p627
sVload-data-infile
p628
Vmysql
p629
sVxhtml
p630
Vhtml
p631
sVuser-permissions
p632
Vphp
p633
sVexplorer
p634
NsVblobstore
p635
NsVioctl
p636
Vlinux
p637
sVdate
p638
Vphp
p639
sVactionmailer
p640
Vruby-on-rails
p641
sVdata
p642
Vphp
p643
sVgoogle-apps
p644
NsVcfml
p645
NsVhtml-lists
p646
NsVstdio
p647
g15
sVstdin
p648
g15
sVprototypal-inheritance
p649
Vjavascript
p650
sVsandbox
p651
g332
sVsh
p652
Vbash
p653
sVlong-integer
p654
Vjava
p655
sVtty
p656
NsVjquery-dialog
p657
Vjquery
p658
sVwebpage
p659
Vhtml
p660
sVcloudbees
p661
NsVpower-management
p662
Vandroid
p663
sVproguard
p664
Vandroid
p665
sVaccordion
p666
NsVasp.net-membership
p667
NsVmethodology
p668
Vagile
p669
sVjit
p670
NsVcache-control
p671
NsVchaining
p672
Vjquery
p673
sVstringbuilder
p674
NsVrecords
p675
Vmysql
p676
sVmacvim
p677
NsVlwuit
p678
NsVdate-format
p679
Vjava
p680
sVretrieve
p681
Vphp
p682
sVc++
p683
g683
sVcanvas
p684
Vjavascript
p685
sVrounding
p686
NsVmahout
p687
g687
sVinternet
p688
Vandroid
p689
sVformula
p690
NsVlink-to
p691
Vruby-on-rails
p692
sVhibernate
p693
g693
sVmime
p694
Vphp
p695
sVpostsharp
p696
NsVcss-border-radius
p697
Vcss
p698
sVbootloader
p699
Vassembly
p700
sVuser-input
p701
NsVocaml
p702
g702
sVseparator
p703
NsVroutes
p704
NsVrouter
p705
NsVsaving
p706
Vandroid
p707
sVvideo.js
p708
Vjavascript
p709
sVnested
p710
Vpython
p711
sVitextsharp
p712
NsVopen
p713
NsVuniqueidentifier
p714
g224
sVnaudio
p715
NsVflask-sqlalchemy
p716
NsVfms
p717
Vflash
p718
sVparams
p719
Vruby-on-rails
p720
sVconstants
p721
Vphp
p722
sVbits
p723
g15
sVprogress-bar
p724
Vandroid
p725
sVaddeventlistener
p726
Vjavascript
p727
sVcrash-reports
p728
Vios
p729
sVpadding
p730
Vcss
p731
sVuiwindow
p732
Vios
p733
sVplsqldeveloper
p734
NsVflashdevelop
p735
NsVtypography
p736
Vcss
p737
sVlucene
p738
g738
sVfuture
p739
Vscala
p740
sVlinux-kernel
p741
NsVsax
p742
NsVc++0x
p743
Vc++
p744
sVsap
p745
g745
sVfacebook-graph-api
p746
NsVsilverlight-4.0
p747
NsVuipopovercontroller
p748
NsVbackbone-views
p749
Vbackbone.js
p750
sVtcpdf
p751
NsVzoo
p752
g115
sVbackwards-compatibility
p753
Vandroid
p754
sVabsolute-path
p755
NsVdestroy
p756
NsVlocal-variables
p757
Vjava
p758
sVbcrypt
p759
Vphp
p760
sVbuffer
p761
g139
sVpager
p762
NsVgoogle-places-api
p763
g507
sVtextarea
p764
Vjavascript
p765
sVc++-cx
p766
NsVaverage
p767
Vsql
p768
sVdrive
p769
Vwindows
p770
sVtestcase
p771
NsVactionscript-2
p772
Vflash
p773
sVsalt
p774
NsVhmac
p775
Vjava
p776
sVwindow-resize
p777
Vjquery
p778
sVlotus
p779
NsVsynchronous
p780
NsVdatetime
p781
NsVprogramming-languages
p782
g782
sVbytebuffer
p783
NsVxml
p784
g784
sVpython-3.2
p785
Vpython
p786
sVandroid-sdk-2.2
p787
NsVandroid-sdk-2.3
p788
NsVstreet-address
p789
g507
sVuiswitch
p790
NsVappharbor
p791
NsVrounded-corners
p792
Vcss
p793
sVuitextview
p794
Vios
p795
sVzipfile
p796
Vpython
p797
sVandroid-styles
p798
Vandroid
p799
sVinfowindow
p800
g507
sVandroid-layout
p801
NsVsettings
p802
NsVissue-tracking
p803
NsVtika
p804
Vjava
p805
sVwhere
p806
NsVinstallshield
p807
NsVdatatables
p808
Vjquery
p809
sVsocket.io
p810
Vnode.js
p811
sVjavabeans
p812
g812
sVserver-side
p813
NsVowin
p814
NsVsmooth-scrolling
p815
Vjquery
p816
sVjobs
p817
NsVconditional-statements
p818
Vphp
p819
sVuml-modeling
p820
NsVserialization
p821
NsVspark
p822
NsVkendo-asp.net-mvc
p823
NsVrichfaces
p824
Vjsf
p825
sVexchange-server
p826
NsVwindows-applications
p827
NsVinfopath2010
p828
Vsharepoint
p829
sVbufferedreader
p830
NsVmkannotationview
p831
Vios
p832
sVmodal-dialog
p833
NsVnsarraycontroller
p834
Vcocoa
p835
sVexpression
p836
NsVselenium-webdriver
p837
NsVworkflow-foundation-4
p838
NsVurl-scheme
p839
NsVsystem-verilog
p840
Vverilog
p841
sVsearch-engine
p842
Vsearch
p843
sVspring-data
p844
Vspring
p845
sVtwig
p846
g303
sVmessagebox
p847
NsVaccelerometer
p848
Vandroid
p849
sVstretch
p850
NsVprototype
p851
Vjavascript
p852
sVgrid-layout
p853
Vjava
p854
sVlibgdx
p855
Vjava
p856
sVgrayscale
p857
NsVantivirus
p858
NsVphotos
p859
NsVhashtag
p860
Vjquery
p861
sVvariable-assignment
p862
Vc++
p863
sVbonjour
p864
Vios
p865
sVblowfish
p866
Vjava
p867
sVroleprovider
p868
Vasp.net
p869
sValarmmanager
p870
Vandroid
p871
sVparse.com
p872
Vios
p873
sVgoogle-closure
p874
Vjavascript
p875
sVlayout-inflater
p876
NsVoledb
p877
NsVblas
p878
NsVzend-studio
p879
Vphp
p880
sVconcatenation
p881
g397
sVcoordinate-systems
p882
NsVcobol
p883
NsVabstract-syntax-tree
p884
NsVascii
p885
Vpython
p886
sVivy
p887
Vant
p888
sVsmalltalk
p889
NsVbinary
p890
NsVurl-encoding
p891
NsVhostname
p892
Vjava
p893
sVcreateprocess
p894
NsVsubdomain
p895
NsVparcelable
p896
NsVrfid
p897
Vandroid
p898
sVallocation
p899
NsVopenldap
p900
Vldap
p901
sVvirtual-machine
p902
NsVextern
p903
NsVwpf
p904
g904
sVlive-streaming
p905
NsVtracking
p906
Vgoogle-analytics
p907
sVundefined
p908
Vjavascript
p909
sVdata-modeling
p910
g910
sVworklight
p911
NsVdimension
p912
NsVresx
p913
NsVnosql
p914
g914
sVrest
p915
g915
sVsitecore6
p916
NsVgdb
p917
NsVjshint
p918
NsVgdi
p919
NsVgreasemonkey
p920
Vjavascript
p921
sVgenerator
p922
Vpython
p923
sVruby-on-rails
p924
g924
sVdjango-nonrel
p925
Vdjango
p926
sVd3.js
p927
g147
sVadsense
p928
NsVstopwatch
p929
NsVsprockets
p930
NsVbitmapdata
p931
NsVrubygems
p932
NsVlibc
p933
NsVdart
p934
NsVgestures
p935
Vandroid
p936
sVtraffic
p937
Vandroid
p938
sVpreference
p939
Vandroid
p940
sVenums
p941
Vjava
p942
sVaspectj
p943
NsVparent-child
p944
NsVintel
p945
NsVstdmap
p946
NsVjquery-ui-dialog
p947
NsVgrouping
p948
Vsql
p949
sVruntimeexception
p950
NsVconditional
p951
NsVregex-negation
p952
g57
sVshadowbox
p953
NsVprivate-members
p954
NsVdimensions
p955
Vandroid
p956
sVexif
p957
NsVregular-language
p958
NsVstring-literals
p959
NsVmanaged-c++
p960
Vc++
p961
sVexit
p962
NsVddl
p963
NsVarrow
p964
Vcss
p965
sVruby-2.0
p966
NsVqtip2
p967
Vjquery
p968
sVisset
p969
Vphp
p970
sVpackage
p971
NsVacl
p972
Vphp
p973
sVacs
p974
NsVpermalinks
p975
NsVautotools
p976
NsVcontent-type
p977
NsVrelativelayout
p978
Vandroid
p979
sVimage
p980
Vphp
p981
sVstringstream
p982
Vc++
p983
sVpivot
p984
Vsql
p985
sVsencha-touch-2.1
p986
NsVmdm
p987
NsVhex
p988
NsVemacs
p989
NsVuiwebview
p990
NsVseries
p991
NsVspider
p992
NsVlazy-evaluation
p993
NsVandroid-asynctask
p994
Vandroid
p995
sVtaskbar
p996
NsVuiimage
p997
Vios
p998
sVutf-16
p999
NsVopenxml
p1000
NsVviewport
p1001
NsVpull
p1002
Vgit
p1003
sVwindows-phone-7.1
p1004
NsVcastle-activerecord
p1005
NsVviewpagerindicator
p1006
Vandroid
p1007
sVgraph-theory
p1008
Valgorithm
p1009
sVviewdidload
p1010
NsVdelphi-7
p1011
NsVdelphi-5
p1012
NsVmigrate
p1013
NsVvirtualhost
p1014
Vapache
p1015
sVnagios
p1016
g1016
sVcryptoapi
p1017
Vcryptography
p1018
sVobjective-c
p1019
g1019
sVquickbooks
p1020
NsVajaxcontroltoolkit
p1021
NsVsimple-html-dom
p1022
Vphp
p1023
sVspatial
p1024
g11
sVnomethoderror
p1025
Vruby-on-rails
p1026
sVopenid
p1027
NsVrichtextbox
p1028
NsVautoresize
p1029
Vios
p1030
sVrpy2
p1031
Vpython
p1032
sVwxwidgets
p1033
NsVmasm
p1034
NsVmask
p1035
NsVraphael
p1036
Vjavascript
p1037
sVcpu
p1038
Vjava
p1039
sVstrtotime
p1040
Vphp
p1041
sVscp
p1042
Vssh
p1043
sVmessage-driven-bean
p1044
Vjms
p1045
sVdatabase-backups
p1046
Vmysql
p1047
sVwindows-mobile-6.5
p1048
NsVtk
p1049
NsVsympy
p1050
Vpython
p1051
sVbasic-authentication
p1052
NsVjava-me
p1053
NsVcheckin
p1054
NsVresults
p1055
Vphp
p1056
sVgfortran
p1057
Vfortran
p1058
sVcondition
p1059
Vphp
p1060
sViphone-4
p1061
NsViphone-5
p1062
NsVt4
p1063
NsVmicrosoft-sync-framework
p1064
NsVtoggle
p1065
Vjquery
p1066
sVsails.js
p1067
NsVpostmessage
p1068
Vjavascript
p1069
sVgridview
p1070
Vasp.net
p1071
sVbuild-process
p1072
NsVsync
p1073
NsVqml
p1074
NsVomniauth
p1075
Vruby-on-rails
p1076
sVschema.org
p1077
NsVlinear
p1078
NsVxor
p1079
g867
sVclock
p1080
NsVinline-assembly
p1081
NsVhomescreen
p1082
NsVescaping
p1083
NsVobjectcontext
p1084
NsVorg-mode
p1085
NsVsql-insert
p1086
Vsql
p1087
sVlegend
p1088
NsVsubview
p1089
NsVemulator
p1090
NsVsocial
p1091
NsVaction
p1092
Vjava
p1093
sVtesseract
p1094
NsVopenfire
p1095
NsVtmux
p1096
NsVvim
p1097
NsVselect
p1098
Vmysql
p1099
sVesri
p1100
NsVoracle-apex
p1101
NsVexecutable
p1102
Vjava
p1103
sVfoxpro
p1104
NsVpreloader
p1105
NsVplayframework-2.0
p1106
Vjava
p1107
sVplayframework-2.1
p1108
g1107
sVplayframework-2.2
p1109
g1107
sVrhel
p1110
NsVtestunit
p1111
NsVasyncsocket
p1112
NsVgsm
p1113
NsVbxslider
p1114
Vjquery
p1115
sVappdomain
p1116
NsVwebkit
p1117
NsVfancybox-2
p1118
Vjquery
p1119
sVendpoint
p1120
NsVsql-azure
p1121
NsVautocomplete
p1122
Vjquery
p1123
sVazure-web-roles
p1124
NsVuiactivityviewcontroller
p1125
NsVprompt
p1126
NsVscan
p1127
Vjava
p1128
sVthread-sleep
p1129
Vjava
p1130
sVvisual-studio-debugging
p1131
Vc++
p1132
sVcllocationmanager
p1133
Vios
p1134
sVtapestry
p1135
Vjava
p1136
sVaxis
p1137
Vjava
p1138
sVgit-commit
p1139
NsVaxis2
p1140
NsVmachine-learning
p1141
g1141
sVresultset
p1142
NsVmapping
p1143
Vjava
p1144
sVxilinx
p1145
g1145
sVbioinformatics
p1146
g1146
sVfreepascal
p1147
NsVlifecycle
p1148
NsVargparse
p1149
NsVappcelerator-mobile
p1150
g88
sVgithub
p1151
NsVparameterized
p1152
NsVdjango
p1153
g1153
sVnvidia
p1154
NsVcheckbox
p1155
Vjquery
p1156
sVinstaller
p1157
NsVstreamwriter
p1158
NsVexit-code
p1159
Vbash
p1160
sVstackpanel
p1161
NsVdynamic-linq
p1162
NsVinternet-explorer
p1163
NsVbuffering
p1164
Vphp
p1165
sVassemblies
p1166
NsVgitlab
p1167
Vgit
p1168
sVhotkeys
p1169
NsVgradle
p1170
NsVasp.net-2.0
p1171
Vasp.net
p1172
sVwindows-phone
p1173
NsVgpu-programming
p1174
Vc++
p1175
sVselectbox
p1176
NsVbluej
p1177
NsVoperator-precedence
p1178
NsVwindows-server
p1179
g1179
sVqr-code
p1180
Vandroid
p1181
sVreduce
p1182
NsVcrontab
p1183
Vcron
p1184
sVexpandablelistview
p1185
Vandroid
p1186
sVcontent-management-system
p1187
NsVpyinstaller
p1188
Vpython
p1189
sVdistributed-transactions
p1190
NsVscribe
p1191
NsVftp
p1192
g1192
sVresearch
p1193
Valgorithm
p1194
sVoffline
p1195
NsVinitialization
p1196
NsVautofac
p1197
NsVintrinsics
p1198
NsVlocalization
p1199
NsVproxy
p1200
g1200
sVandroid-library
p1201
Vandroid
p1202
sVdefinition
p1203
Vc++
p1204
sVwolfram-mathematica
p1205
g115
sVdjango-forms
p1206
NsVpositioning
p1207
Vcss
p1208
sVcastle
p1209
NsVweb-standards
p1210
Vhtml
p1211
sVoperator-overloading
p1212
NsVnewtonsoft
p1213
NsVjet
p1214
NsVfaceted-search
p1215
Vsolr
p1216
sVswipe
p1217
Vandroid
p1218
sVsublimetext2
p1219
NsVsublimetext3
p1220
NsVsilverstripe
p1221
NsVrelationship
p1222
Vruby-on-rails
p1223
sVexpression-trees
p1224
NsVfilesystems
p1225
g1225
sVhtml-select
p1226
NsVserializable
p1227
NsVtortoisehg
p1228
NsVphpmailer
p1229
Vphp
p1230
sVaac
p1231
NsVinput-validation
p1232
Vjquery
p1233
sVbho
p1234
NsVflexigrid
p1235
Vjquery
p1236
sVmootools
p1237
Vjavascript
p1238
sVwysiwyg
p1239
NsVnsurl
p1240
Vios
p1241
sVform-submit
p1242
NsVpyserial
p1243
NsVcollapse
p1244
Vjquery
p1245
sVdrop-down-menu
p1246
Vjquery
p1247
sVpy2exe
p1248
NsVself
p1249
Vpython
p1250
sVdynamics-crm-online
p1251
NsVinternal
p1252
NsVvmware
p1253
g1253
sValsa
p1254
Vlinux
p1255
sVx++
p1256
NsVsts-springsourcetoolsuite
p1257
Veclipse
p1258
sVconditional-formatting
p1259
NsVexe
p1260
NsVphonegap
p1261
NsVgsoap
p1262
Vc++
p1263
sVmicrosoft
p1264
NsVwsgi
p1265
Vpython
p1266
sVxcode
p1267
g1267
sVbinary-tree
p1268
Valgorithm
p1269
sVsql-server-2005
p1270
Vsql
p1271
sVsession
p1272
Vphp
p1273
sVftp-client
p1274
NsVresourcedictionary
p1275
NsVhornetq
p1276
Vjms
p1277
sVblender
p1278
Vpython
p1279
sVdrupal-modules
p1280
NsVkeychain
p1281
NsVin-app-purchase
p1282
Vios
p1283
sVfileapi
p1284
NsVhtml-email
p1285
NsVscala-collections
p1286
Vscala
p1287
sVneon
p1288
NsVsynchronization
p1289
Vjava
p1290
sV.each
p1291
Vjquery
p1292
sVflexbuilder
p1293
NsVhorizontal-scrolling
p1294
NsVbitmap
p1295
NsVbanner
p1296
NsVxml-parsing
p1297
NsV3g
p1298
NsVrake-task
p1299
Vruby-on-rails
p1300
sVcrc
p1301
Vjava
p1302
sVgraph-databases
p1303
NsVmagicalrecord
p1304
NsV3d
p1305
NsVcrm
p1306
g1306
sVset
p1307
NsViteration
p1308
Vpython
p1309
sVjade
p1310
g1310
sVstartup
p1311
NsVipod-touch
p1312
NsVsed
p1313
NsVfileoutputstream
p1314
Vjava
p1315
sVseo
p1316
NsVcontour
p1317
NsVproject
p1318
Veclipse
p1319
sVprotobuf-net
p1320
NsVmovie
p1321
NsVitunesconnect
p1322
NsVliquibase
p1323
NsVmutex
p1324
Vmultithreading
p1325
sVscreen-orientation
p1326
NsVimagemagick
p1327
NsVxslt
p1328
g1328
sVjapplet
p1329
Vjava
p1330
sVselectlist
p1331
NsVjavascript
p1332
g1332
sVintegration-testing
p1333
NsVinterface
p1334
NsVhyperlink
p1335
Vhtml
p1336
sVglkit
p1337
Vios
p1338
sVfacebox
p1339
Vjquery
p1340
sVpdo
p1341
NsVlapack
p1342
NsVconnection
p1343
Vjava
p1344
sVpdf
p1345
NsVksoap2
p1346
Vandroid
p1347
sVload
p1348
NsVgeolocation
p1349
Vandroid
p1350
sVmarkdown
p1351
NsVdatediff
p1352
Vsql
p1353
sVweb-config
p1354
Vasp.net
p1355
sVdata-migration
p1356
g224
sVcompass-geolocation
p1357
NsVpublishing
p1358
NsVextension-methods
p1359
NsVbreadth-first-search
p1360
Valgorithm
p1361
sVangular-ui
p1362
NsVandroid-cursoradapter
p1363
NsVsystem.io
p1364
NsVkerberos
p1365
Vjava
p1366
sVmultidimensional-array
p1367
g170
sVoverloading
p1368
NsVqtableview
p1369
NsVfunc
p1370
NsVhandling
p1371
NsVoptimization
p1372
g1372
sVandroid-browser
p1373
NsVdrawable
p1374
Vandroid
p1375
sVexpander
p1376
Vwpf
p1377
sVnivoslider
p1378
Vjquery
p1379
sVcalculator
p1380
NsVcode-coverage
p1381
Vunit-testing
p1382
sVbinding
p1383
Vwpf
p1384
sVforeign-key-relationship
p1385
NsVbiztalk-2010
p1386
NsVonitemclicklistener
p1387
NsVvaadin
p1388
Vjava
p1389
sVkeystore
p1390
Vjava
p1391
sVx64
p1392
Vc++
p1393
sVangular-ui-bootstrap
p1394
NsVmatlab-figure
p1395
Vmatlab
p1396
sVuniversal-image-loader
p1397
Vandroid
p1398
sVuiactivityindicatorview
p1399
NsValert
p1400
NsVcucumber
p1401
Vruby-on-rails
p1402
sVamf
p1403
NsVpassword-encryption
p1404
Vphp
p1405
sVstack
p1406
NsVdecompiler
p1407
NsVng-grid
p1408
Vangularjs
p1409
sVgoogletest
p1410
Vc++
p1411
sVgoogle-webmaster-tools
p1412
NsVuser-defined-functions
p1413
NsVmysql
p1414
g1414
sVspring-transactions
p1415
NsVconditional-compilation
p1416
NsVsetup-project
p1417
NsVsidebar
p1418
NsVindexof
p1419
Vjavascript
p1420
sVsignals
p1421
NsVsignalr
p1422
NsVlocation
p1423
Vandroid
p1424
sVfacebook-wall
p1425
NsVinput
p1426
NsVgame-physics
p1427
NsVxml-rpc
p1428
Vphp
p1429
sVformat
p1430
NsVheader-files
p1431
Vc++
p1432
sVaugmented-reality
p1433
NsVtire
p1434
NsVenumerable
p1435
NsVprojects
p1436
NsVjava-3d
p1437
NsVsorting
p1438
NsVd
p1439
NsVmarquee
p1440
Vhtml
p1441
sVscapy
p1442
NsVimagick
p1443
Vphp
p1444
sVwindows-store-apps
p1445
NsVclipping
p1446
NsVmethods
p1447
Vjava
p1448
sVspring
p1449
g1449
sVwxpython
p1450
NsVvirtualenv
p1451
NsVnetbeans-platform
p1452
Vjava
p1453
sVlayout-manager
p1454
NsVrails-postgresql
p1455
Vruby-on-rails
p1456
sVtelerik
p1457
NsVteradata
p1458
Vsql
p1459
sVandroid-maps-v2
p1460
NsVmethod-overloading
p1461
NsVgoogle-mirror-api
p1462
NsVwget
p1463
NsVb-tree
p1464
Vdata-structures
p1465
sVrelational-database
p1466
Vdatabase
p1467
sVanti-patterns
p1468
NsVasmack
p1469
NsVjasperserver
p1470
NsVandroid-gradle
p1471
NsVmedia-player
p1472
NsVembedded-jetty
p1473
NsVpcre
p1474
NsVspan
p1475
Vhtml
p1476
sVspam
p1477
g695
sVjax-rs
p1478
Vjava
p1479
sVsubmit
p1480
NsVbios
p1481
Vassembly
p1482
sVfile-rename
p1483
Vphp
p1484
sVodp.net
p1485
NsVeventkit
p1486
NsVxpath
p1487
NsVlint
p1488
Vandroid
p1489
sVlinq
p1490
g1490
sVdata-storage
p1491
Vandroid
p1492
sVatom
p1493
NsVline
p1494
Vjava
p1495
sVcin
p1496
NsVcil
p1497
NsVfile-sharing
p1498
NsVverification
p1499
NsVvisualsvn-server
p1500
Vsvn
p1501
sVpropertygrid
p1502
NsVpgadmin
p1503
NsVunsafe
p1504
NsVchar
p1505
g139
sVduration
p1506
NsVchat
p1507
Vphp
p1508
sVparsec
p1509
NsVamqp
p1510
NsVgnuplot
p1511
NsVscrape
p1512
NsVscrapy
p1513
NsVcodec
p1514
Vandroid
p1515
sVactiveresource
p1516
NsVrevision
p1517
Vsvn
p1518
sVelements
p1519
NsVmemory-mapped-files
p1520
NsVscrum
p1521
NsVslice
p1522
NsVlinq-to-sql
p1523
NsVwindows-phone-7.5
p1524
NsValgorithm
p1525
g1525
sVoracle
p1526
g1526
sVselenium-rc
p1527
NsVhaving
p1528
NsVpartial
p1529
NsVhashmap
p1530
Vjava
p1531
sVkernel-programming
p1532
g1532
sVejb-3.1
p1533
Vjava
p1534
sVgoogle-drive
p1535
NsVclean-urls
p1536
NsVcython
p1537
Vpython
p1538
sVsend
p1539
g695
sVjavascript-library
p1540
NsVmulticore
p1541
NsVlistviewitem
p1542
NsVgetline
p1543
Vc++
p1544
sVresources
p1545
Vandroid
p1546
sVunzip
p1547
NsVmixins
p1548
NsVpagination
p1549
Vphp
p1550
sVspring.net
p1551
NsVgtk3
p1552
NsVgtk+
p1553
NsVnuget-package
p1554
NsVcategories
p1555
Vwordpress
p1556
sVgtk#
p1557
NsVentitymanager
p1558
NsVcontenteditable
p1559
NsViscroll
p1560
Vjquery
p1561
sVrack
p1562
NsVbiztalk
p1563
NsVasp-classic
p1564
NsVsingle-page-application
p1565
Vjavascript
p1566
sVvideo
p1567
g1515
sVicalendar
p1568
Vphp
p1569
sVsql-server-2008
p1570
NsVindex
p1571
g1571
sVhtml-helper
p1572
NsVgit-clone
p1573
Vgit
p1574
sVdirective
p1575
NsVsql-server-2000
p1576
NsVmultimedia
p1577
Vandroid
p1578
sVbirt
p1579
Vjava
p1580
sVbox2d
p1581
NsVheatmap
p1582
NsVremote-debugging
p1583
NsVslidingdrawer
p1584
NsVsoftware-distribution
p1585
NsVwireshark
p1586
NsVwinapi
p1587
NsVoctave
p1588
NsVubuntu
p1589
g1589
sVlex
p1590
NsVopenmp
p1591
Vc++
p1592
sVsunspot-rails
p1593
g45
sVrdp
p1594
NsVreceive
p1595
NsVdate-range
p1596
NsVgetter-setter
p1597
Vjava
p1598
sVwcf-ria-services
p1599
NsVvoice-recognition
p1600
NsVrdf
p1601
NsVsurvey
p1602
Vphp
p1603
sVderby
p1604
Vjava
p1605
sVentity-relationship
p1606
NsVkeylistener
p1607
NsVjava-io
p1608
Vjava
p1609
sVangularjs-scope
p1610
NsVfirefox
p1611
NsVvhosts
p1612
NsVinstantiation
p1613
Vjava
p1614
sVbazaar
p1615
Vgit
p1616
sVzip
p1617
NsVgoogle-app-engine
p1618
NsVnext
p1619
Vjquery
p1620
sVcss-sprites
p1621
NsVlcdui
p1622
NsVslim
p1623
NsVviewgroup
p1624
Vandroid
p1625
sVbezier-curve
p1626
NsVscheduled-tasks
p1627
NsVbundling-and-minification
p1628
NsVjob-scheduling
p1629
Vjava
p1630
sVportability
p1631
NsVthis
p1632
NsVtwitter-oauth
p1633
NsVthin
p1634
NsVworksheet
p1635
NsVactiveadmin
p1636
Vruby-on-rails
p1637
sVbusiness-objects
p1638
NsVrefinerycms
p1639
NsVnative-code
p1640
Vandroid
p1641
sVprocess
p1642
NsVfile-descriptor
p1643
g139
sVjavadoc
p1644
NsVfprintf
p1645
NsVimage-scaling
p1646
g981
sVmalware
p1647
Vphp
p1648
sVkey-value-observing
p1649
Vobjective-c
p1650
sVfacebook-sdk-3.0
p1651
NsVnvd3.js
p1652
g147
sVdelay
p1653
NsVclient-side-validation
p1654
NsVnpm
p1655
Vnode.js
p1656
sVsession-cookies
p1657
NsVtcsh
p1658
NsVurl-rewriting
p1659
NsVwallpaper
p1660
NsVqtwebkit
p1661
NsVout-of-memory
p1662
Vandroid
p1663
sVcounter
p1664
NsVelement
p1665
Vjquery
p1666
sVnancy
p1667
NsVosgi
p1668
Vjava
p1669
sVface-recognition
p1670
NsVjqgrid-asp.net
p1671
NsVmove
p1672
NsVjoptionpane
p1673
Vjava
p1674
sVcomma
p1675
Vphp
p1676
sVfacebook-c#-sdk
p1677
NsVofstream
p1678
Vc++
p1679
sVdirectx
p1680
g472
sVdispose
p1681
NsVgoogle-charts-api
p1682
Vjavascript
p1683
sVinstruments
p1684
Vios
p1685
sVhttpcontext
p1686
NsVdata-type-conversion
p1687
NsVdocx
p1688
NsVpython
p1689
g1689
sVsystem.reactive
p1690
NsVdock
p1691
g332
sVrotation
p1692
NsVtransparent
p1693
NsVpostgresql-9.1
p1694
Vpostgresql
p1695
sVpostgresql-9.2
p1696
NsVeventtrigger
p1697
NsVruby-1.9
p1698
NsVmerge
p1699
Vgit
p1700
sVoncreate
p1701
Vandroid
p1702
sVcomplexity-theory
p1703
g1703
sVsubset
p1704
g11
sVapp-config
p1705
NsVmeta
p1706
NsVstatic
p1707
NsVcpanel
p1708
NsVknockout-2.0
p1709
Vknockout.js
p1710
sVbpel
p1711
NsVankhsvn
p1712
Vsvn
p1713
sVmatrix
p1714
Vmatlab
p1715
sVkohana-3
p1716
NsVandroid-gcm
p1717
Vandroid
p1718
sVspecifications
p1719
NsVunderscore.js
p1720
NsVcore-bluetooth
p1721
NsVdhcp
p1722
g1722
sVsendmail
p1723
NsVsubclipse
p1724
Vsvn
p1725
sVthrust
p1726
NsVmule-studio
p1727
NsVgit-merge
p1728
NsVlexer
p1729
NsVandroid-image
p1730
Vandroid
p1731
sVuibezierpath
p1732
Vios
p1733
sVunobtrusive-javascript
p1734
NsVstruts-1
p1735
NsVweb.xml
p1736
NsVabstract-class
p1737
NsVpyside
p1738
NsVordering
p1739
Vmysql
p1740
sVundefined-behavior
p1741
NsVsticky-footer
p1742
Vcss
p1743
sVcore-foundation
p1744
Vobjective-c
p1745
sVcontextmenu
p1746
NsVgwt-rpc
p1747
Vgwt
p1748
sVlibusb
p1749
Vusb
p1750
sVsubroutine
p1751
NsVsimd
p1752
NsVjscrollpane
p1753
NsVtimepicker
p1754
NsVviewer
p1755
NsVgrails
p1756
NsVcobertura
p1757
Vjava
p1758
sVreverse-geocoding
p1759
NsVsysadmin
p1760
NsVlike-operator
p1761
NsVselectors
p1762
Vjquery
p1763
sVasp.net
p1764
g1764
sVlotusscript
p1765
NsVsinatra
p1766
g1766
sVjboss7.x
p1767
Vjava
p1768
sVsoap
p1769
g1769
sVpersistence
p1770
NsVimplicit-conversion
p1771
NsVobserver-pattern
p1772
NsVwso2carbon
p1773
NsVcipher
p1774
Vjava
p1775
sVsimplecursoradapter
p1776
Vandroid
p1777
sVdevice
p1778
NsVcomparison
p1779
NsVindexoutofboundsexception
p1780
Vjava
p1781
sVanimated-gif
p1782
NsVdata-transfer
p1783
NsVdbi
p1784
NsVatmosphere
p1785
NsVterminate
p1786
NsVdbf
p1787
NsVforceclose
p1788
NsVredirect
p1789
NsVrestlet
p1790
Vjava
p1791
sVremoveclass
p1792
NsVjar
p1793
Vjava
p1794
sVjstree
p1795
NsVterminal
p1796
g332
sVentities
p1797
Vphp
p1798
sVarcgis
p1799
Vpython
p1800
sVdjango-urls
p1801
Vdjango
p1802
sVhandle
p1803
NsVlistener
p1804
Vandroid
p1805
sVtableadapter
p1806
NsVeclipse-kepler
p1807
NsVdb2
p1808
g1808
sVmemcpy
p1809
NsVandroid-camera
p1810
Vandroid
p1811
sVaes
p1812
g867
sVrebase
p1813
NsVdefault
p1814
Vandroid
p1815
sVhmvc
p1816
NsVqtp
p1817
NsVframe
p1818
Vjava
p1819
sVpacket
p1820
NsVdialog
p1821
Vandroid
p1822
sVjqplot
p1823
NsVms-dos
p1824
Vwindows
p1825
sVsql-update
p1826
NsVverilog
p1827
g1827
sVemail
p1828
g695
sVqt4
p1829
NsVqt5
p1830
NsVsuperfish
p1831
NsVjsdoc
p1832
Vjavascript
p1833
sVconfiguration
p1834
NsVcocoapods
p1835
NsVtls
p1836
NsVdoxygen
p1837
NsVvalgrind
p1838
g15
sVitertools
p1839
NsVuiactionsheet
p1840
NsVetl
p1841
g1841
sVandroid-wifi
p1842
Vandroid
p1843
sVnstimer
p1844
Vobjective-c
p1845
sVevent-handling
p1846
NsVchromium
p1847
Vjavascript
p1848
sVmailto
p1849
Vhtml
p1850
sVlist-comprehension
p1851
NsVandroid-dialogfragment
p1852
Vandroid
p1853
sVfiremonkey
p1854
NsVsweave
p1855
g11
sVimage-recognition
p1856
NsVurl-routing
p1857
NsVobjective-c++
p1858
NsVc#
p1859
NsVopenvpn
p1860
NsVtycho
p1861
NsVjquery-templates
p1862
NsVblackberry-eclipse-plugin
p1863
NsVgraphics
p1864
g1864
sVcocos2d-android
p1865
NsVcvs
p1866
g1616
sVframeworks
p1867
Vphp
p1868
sVintranet
p1869
NsVlibxml2
p1870
NsVhardware
p1871
NsVimagemap
p1872
Vhtml
p1873
sVpassbook
p1874
Vios
p1875
sVstdstring
p1876
Vc++
p1877
sVdataview
p1878
NsVdompdf
p1879
NsVrailstutorial.org
p1880
NsVandroid
p1881
g1881
sVopenoffice-calc
p1882
Vjava
p1883
sVmailchimp
p1884
Vphp
p1885
sVinfinite
p1886
NsVphp
p1887
g1887
sVidentity
p1888
g224
sVxcode4
p1889
Vxcode
p1890
sVaudit
p1891
g224
sVcode-reuse
p1892
NsVrelative-path
p1893
NsVpatterns
p1894
NsVcommand
p1895
Vwpf
p1896
sVaudio
p1897
g1897
sVdrawing
p1898
NsVipad-splitview
p1899
NsVless
p1900
NsVxen
p1901
g1901
sVsearch-and-replace
p1902
g57
sVweb
p1903
Vjavascript
p1904
sVpath-finding
p1905
NsVnstextview
p1906
NsVspinner
p1907
Vandroid
p1908
sVlattice
p1909
NsVscriptmanager
p1910
Vasp.net
p1911
sVccsprite
p1912
NsVprimefaces
p1913
NsVcss3
p1914
NsVhabtm
p1915
NsVmorphia
p1916
NsVcrud
p1917
Vphp
p1918
sVbit-manipulation
p1919
NsVheight
p1920
NsVsamsung-mobile
p1921
Vandroid
p1922
sVdatabase-replication
p1923
NsVlambda-functions
p1924
NsVvisualsvn
p1925
NsVmsbuild-task
p1926
NsVdoubly-linked-list
p1927
NsVvsx
p1928
NsVgcc-warning
p1929
NsVgevent
p1930
NsVflush
p1931
Vphp
p1932
sVdatabase-connection
p1933
Vmysql
p1934
sVnested-attributes
p1935
Vruby-on-rails
p1936
sVmarklogic
p1937
NsVpreload
p1938
Vjquery
p1939
sVschedule
p1940
NsVcustom-data-attribute
p1941
Vjquery
p1942
sVieee-754
p1943
NsVsymlink
p1944
NsVmaven
p1945
g1945
sVdataannotations
p1946
NsVsqlconnection
p1947
NsVsigabrt
p1948
Vios
p1949
sVstage
p1950
g602
sVhaproxy
p1951
NsVtrue-type-fonts
p1952
NsVrichtext
p1953
NsVconstraints
p1954
NsVuiviewcontroller
p1955
Vios
p1956
sVpassword-protection
p1957
Vphp
p1958
sVafnetworking-2
p1959
Vios
p1960
sVqmake
p1961
NsVnavigationbar
p1962
Vcss
p1963
sVvirtualbox
p1964
g1964
sVflash-cs3
p1965
NsVjodatime
p1966
Vjava
p1967
sVflash-cs6
p1968
NsVpython-3.3
p1969
Vpython
p1970
sVflash-cs4
p1971
NsVflash-cs5
p1972
g602
sVpie-chart
p1973
Vjavascript
p1974
sVappfabric
p1975
NsVdynamic-sql
p1976
NsVstreamreader
p1977
NsVfunction
p1978
Vjavascript
p1979
sVnumerical-methods
p1980
g1980
sVoverlapping
p1981
NsVautomapper
p1982
NsVcount
p1983
Vmysql
p1984
sVhtmlunit
p1985
NsVpython-3.x
p1986
NsVsmooth
p1987
Vjquery
p1988
sVcocos2d-iphone
p1989
NsVr.java-file
p1990
NsVfrequency
p1991
Vaudio
p1992
sVcocoa-touch
p1993
NsVdistribution
p1994
NsVjdialog
p1995
Vjava
p1996
sVsscanf
p1997
NsVtimespan
p1998
NsVint
p1999
NsVhibernate-criteria
p2000
Vhibernate
p2001
sVini
p2002
NsVxpages-extlib
p2003
NsVvector-graphics
p2004
NsVlookup
p2005
NsVhpc
p2006
g15
sVunit-testing
p2007
g2007
sVweb-sql
p2008
NsVrepeat
p2009
Vandroid
p2010
sVworker
p2011
Vmultithreading
p2012
sVaddthis
p2013
Vjavascript
p2014
sVinstall4j
p2015
Vjava
p2016
sVrich-text-editor
p2017
Vjavascript
p2018
sVxamarin
p2019
NsVeof
p2020
NsVios-ui-automation
p2021
NsVms-project
p2022
g2022
sVuitableviewcontroller
p2023
NsVrule
p2024
NsVhttp-status-code-404
p2025
Vphp
p2026
sVwin32com
p2027
NsVhttp-status-code-401
p2028
Vasp.net
p2029
sVamazon-dynamodb
p2030
Vamazon-web-services
p2031
sVhttp-status-code-403
p2032
Vphp
p2033
sVspring-3
p2034
Vspring
p2035
sVprototypejs
p2036
Vjavascript
p2037
sVinsert-update
p2038
Vmysql
p2039
sVmac-app-store
p2040
NsVaudiounit
p2041
Vios
p2042
sVrelationships
p2043
NsVlgpl
p2044
NsVconst
p2045
NsVmpmovieplayercontroller
p2046
NsVzxing
p2047
Vandroid
p2048
sVmatlab
p2049
g2049
sVmouseout
p2050
Vjquery
p2051
sVfacebook-likebox
p2052
NsVhtml5-canvas
p2053
Vjavascript
p2054
sVassetic
p2055
g303
sVreplication
p2056
g2056
sVm2e
p2057
NsVtagging
p2058
NsVunity3d
p2059
NsVjprogressbar
p2060
NsVcmd
p2061
g1825
sVupload
p2062
Vphp
p2063
sVgoogle-closure-library
p2064
NsVnsarray
p2065
Vobjective-c
p2066
sVatk4
p2067
Vphp
p2068
sVmp3
p2069
Vaudio
p2070
sVlong-polling
p2071
Vajax
p2072
sVchef
p2073
g2073
sVilist
p2074
NsVappsettings
p2075
NsVandroid-intent
p2076
Vandroid
p2077
sVrenderscript
p2078
Vandroid
p2079
sVdecoding
p2080
NsVopenxml-sdk
p2081
NsVtextures
p2082
Vopengl
p2083
sVlinear-regression
p2084
g115
sVfacebook-android-sdk
p2085
Vandroid
p2086
sVwrapping
p2087
NsVequals
p2088
Vjava
p2089
sVpygtk
p2090
NsVprotection
p2091
Vphp
p2092
sVvisual-studio-addins
p2093
NsVplaceholder
p2094
NsVglm
p2095
NsVdebug-symbols
p2096
NsVbitmapimage
p2097
NsVitunes
p2098
NsVtemporary-files
p2099
Vjava
p2100
sVruby-on-rails-plugins
p2101
Vruby-on-rails
p2102
sVlogback
p2103
Vjava
p2104
sVplot
p2105
g115
sVfortran90
p2106
NsVbundler
p2107
Vruby-on-rails
p2108
sVbackgroundworker
p2109
NsVfile-exists
p2110
Vphp
p2111
sVcomposer-php
p2112
NsVcpu-registers
p2113
NsVshopping-cart
p2114
NsVblocking
p2115
Vmultithreading
p2116
sVwebmethod
p2117
Vasp.net
p2118
sVwix3.6
p2119
NsVwix3.5
p2120
NsVword
p2121
NsVangularjs-ng-repeat
p2122
NsVeclipse
p2123
g2123
sVjtable
p2124
NsVtransparency
p2125
NsVscripting
p2126
Vbash
p2127
sVwordpress-theming
p2128
Vwordpress
p2129
sVfacebook-authentication
p2130
NsVmvvmcross
p2131
NsVfmdb
p2132
NsVuac
p2133
NsVplist
p2134
NsVrecovery
p2135
Vandroid
p2136
sVuifont
p2137
Vios
p2138
sViso-8859-1
p2139
NsVcore-graphics
p2140
Vios
p2141
sVlan
p2142
g2142
sVlag
p2143
NsVopenal
p2144
NsVcalayer
p2145
Vios
p2146
sVjboss6.x
p2147
Vjava
p2148
sVcontext-free-grammar
p2149
NsVsparql
p2150
NsVassignment-operator
p2151
NsVorder
p2152
NsVnamed-scope
p2153
Vruby-on-rails
p2154
sVgoogle-checkout
p2155
NsVeigen
p2156
Vc++
p2157
sVoffice
p2158
NsVxsl-fo
p2159
NsVpascal
p2160
g2160
sVbuttonclick
p2161
Vandroid
p2162
sVjquery-ui-autocomplete
p2163
Vjquery
p2164
sVamazon-cloudfront
p2165
NsVjdk1.6
p2166
Vjava
p2167
sVglassfish
p2168
NsVtypescript
p2169
Vjavascript
p2170
sVuipangesturerecognizer
p2171
NsVfragment
p2172
Vandroid
p2173
sVinfinite-scroll
p2174
NsVbreak
p2175
NsVrefactoring
p2176
NsVjinja2
p2177
Vpython
p2178
sVcloudera
p2179
NsVleft-join
p2180
Vmysql
p2181
sVnullable
p2182
NsVthree20
p2183
NsVright-to-left
p2184
Vcss
p2185
sVfeeds
p2186
NsVprawn
p2187
NsVinfragistics
p2188
NsVuicolor
p2189
NsVsprintf
p2190
NsVsliding
p2191
Vjquery
p2192
sVwindows-vista
p2193
NsVputty
p2194
Vssh
p2195
sVsegmentation-fault
p2196
NsVcollation
p2197
NsVsoundcloud
p2198
Vjavascript
p2199
sVwcf-rest
p2200
NsVmvp
p2201
NsVireport
p2202
NsVmvc
p2203
g2203
sVtextinput
p2204
NsVbenchmarking
p2205
NsVobservablecollection
p2206
NsVrender
p2207
Vruby-on-rails
p2208
sVsystem
p2209
Vphp
p2210
sVpython-sphinx
p2211
NsVslidetoggle
p2212
NsVweb-audio
p2213
Vjavascript
p2214
sVcustom-server-controls
p2215
NsVinflate
p2216
Vandroid
p2217
sVfitnesse
p2218
NsVdecompiling
p2219
NsVtex
p2220
g115
sVtarget
p2221
NsVsqlclr
p2222
g224
sVebay
p2223
NsVhacking
p2224
NsVbinary-data
p2225
NsVweb-api
p2226
NsVuiview
p2227
Vios
p2228
sVrewrite
p2229
NsVdiscrete-mathematics
p2230
g2230
sVintentservice
p2231
NsVangularjs
p2232
g2232
sVlatency
p2233
NsVdbms
p2234
NsVawtrobot
p2235
Vjava
p2236
sVyui3
p2237
NsVindexes
p2238
Vmysql
p2239
sVvisual-studio
p2240
NsVreportingservices-2008
p2241
NsVgoogle-analytics-api
p2242
NsVssl-certificate
p2243
NsVwebcam
p2244
NsVgraphics2d
p2245
NsVqt-designer
p2246
NsVleaflet
p2247
NsVjointable
p2248
Vmysql
p2249
sVwildcard
p2250
NsVheuristics
p2251
Valgorithm
p2252
sVhtml-parsing
p2253
Vhtml
p2254
sVimage-segmentation
p2255
NsVogg
p2256
Vaudio
p2257
sVtoast
p2258
NsVpalindrome
p2259
Vjava
p2260
sVcircular-reference
p2261
NsVgraph-algorithm
p2262
Valgorithm
p2263
sVimplementation
p2264
NsVgson
p2265
NsVgoogle-contacts
p2266
NsVuicollectionviewlayout
p2267
NsVspeech-to-text
p2268
Vandroid
p2269
sViptables
p2270
NsVpushviewcontroller
p2271
Vios
p2272
sVcryptography
p2273
g2273
sVuitoolbar
p2274
NsVaspxgridview
p2275
NsVidioms
p2276
NsVasync-await
p2277
NsVienumerable
p2278
NsVabaddressbook
p2279
NsVzookeeper
p2280
Vhbase
p2281
sVshared-memory
p2282
NsVanalytics
p2283
NsVdirectshow.net
p2284
NsVivalueconverter
p2285
Vwpf
p2286
sVopenfiledialog
p2287
NsVlapply
p2288
NsVtype-inference
p2289
NsVctypes
p2290
NsVpreprocessor
p2291
NsVopenjpa
p2292
NsVpackages
p2293
Vjava
p2294
sVwx
p2295
NsVcoq
p2296
NsVclaims-based-identity
p2297
NsVcocos2d-x
p2298
Vc++
p2299
sVtfs2012
p2300
NsVtfs2010
p2301
NsVreceiver
p2302
NsVcom
p2303
NsVandroid-gallery
p2304
NsVhorizontalscrollview
p2305
Vandroid
p2306
sVguid
p2307
NsVlatitude-longitude
p2308
Vandroid
p2309
sVcoredump
p2310
NsVshoulda
p2311
NsVnsfetchrequest
p2312
NsVhtml5-video
p2313
NsVaix
p2314
NsVgnu
p2315
g139
sVlauncher
p2316
NsViqueryable
p2317
NsVzlib
p2318
NsVair
p2319
NsVformatting
p2320
NsVvoice
p2321
NsVrails-admin
p2322
NsVlive-wallpaper
p2323
Vandroid
p2324
sVjoomla1.5
p2325
NsVtext-extraction
p2326
NsVserver-push
p2327
NsVhebrew
p2328
Vandroid
p2329
sVnetbeans-6.9
p2330
Vjava
p2331
sVcouchdb
p2332
Vnosql
p2333
sVgoogle-apps-script
p2334
NsVleiningen
p2335
NsVlog4j
p2336
NsVnio
p2337
NsVnil
p2338
NsVsignalr-hub
p2339
NsVnib
p2340
NsVraii
p2341
Vc++
p2342
sVhang
p2343
NsVfuse
p2344
Vlinux
p2345
sVlevenshtein-distance
p2346
Valgorithm
p2347
sVandroid-fragments
p2348
NsVapache-httpclient-4.x
p2349
Vjava
p2350
sVsystem.diagnostics
p2351
NsVdepth-first-search
p2352
NsVmany-to-many
p2353
NsVcasperjs
p2354
NsVwebsphere-portal
p2355
NsVsolaris
p2356
g2356
sVphoto
p2357
NsVhttp-status-code-301
p2358
NsVquotes
p2359
NsVcurrying
p2360
Vfunctional-programming
p2361
sVonload
p2362
Vjavascript
p2363
sVubuntu-11.04
p2364
NsVmsxml
p2365
NsVopencl
p2366
g1175
sVopencv
p2367
Vc++
p2368
sVasp.net-mvc-areas
p2369
NsVdatabase-design
p2370
g2370
sVmaya
p2371
NsVfilestream
p2372
NsVmicrocontroller
p2373
g2373
sVword-wrap
p2374
NsVjekyll
p2375
NsVsimplemodal
p2376
NsVscikit-learn
p2377
Vpython
p2378
sVwindows-server-2003
p2379
g119
sVsecurity
p2380
g2380
sVwindows-server-2008
p2381
g117
sVdelphi-xe2
p2382
NsVtitlebar
p2383
Vandroid
p2384
sVpreg-match-all
p2385
Vphp
p2386
sVnsmutabledictionary
p2387
Vobjective-c
p2388
sVjtabbedpane
p2389
Vjava
p2390
sVfacebook-php-sdk
p2391
NsVcomments
p2392
NsVplone
p2393
NsVwso2
p2394
NsVuigesturerecognizer
p2395
Vios
p2396
sVgeocoding
p2397
NsVpaypal-api
p2398
Vphp
p2399
sVrepository
p2400
NsVzend-db-table
p2401
NsVdelete-row
p2402
Vmysql
p2403
sVtime-series
p2404
g2404
sVsubstitution
p2405
g57
sVpost
p2406
NsVproperties
p2407
NsVrstudio
p2408
g115
sVsqlplus
p2409
NsVgoogle-maps
p2410
g507
sVasp.net-3.5
p2411
Vasp.net
p2412
sVquery-optimization
p2413
g2413
sVautohotkey
p2414
Vwindows
p2415
sVmsdeploy
p2416
NsVrendering
p2417
Vopengl
p2418
sVhaskell
p2419
g2419
sVsfml
p2420
NsVinitializer-list
p2421
NsVjdbc
p2422
g2422
sVcompression
p2423
NsVconfiguration-files
p2424
NsVredmine
p2425
Vruby-on-rails
p2426
sVoracle11g
p2427
NsVsqldatareader
p2428
NsVwav
p2429
NsVtcpdump
p2430
Vlinux
p2431
sVwar
p2432
Vjava
p2433
sVsqlalchemy
p2434
NsVeclipse-emf
p2435
NsVbelongs-to
p2436
NsVcatalyst
p2437
Vperl
p2438
sVgwt2
p2439
NsVuisearchdisplaycontroller
p2440
NsVandroid-edittext
p2441
NsVsyscall
p2442
NsVthunderbird
p2443
g695
sVabstract
p2444
NsVfulltext
p2445
Vmysql
p2446
sVmysql-error-1064
p2447
NsVfull-text-search
p2448
NsVarchive
p2449
NsVyii-db
p2450
NsVormlite-servicestack
p2451
NsVdouble-quotes
p2452
Vphp
p2453
sVtruncate
p2454
NsVdotnet-httpclient
p2455
NsVnotepad
p2456
NsVurllib2
p2457
NsVavaudiorecorder
p2458
NsVpushstate
p2459
Vjavascript
p2460
sVapplescript
p2461
g332
sVglobal
p2462
Vphp
p2463
sVpadrino
p2464
NsVrectangles
p2465
NsVscrollviewer
p2466
Vwpf
p2467
sVgoogle-fusion-tables
p2468
g507
sVvarnish
p2469
Vphp
p2470
sVflask
p2471
Vpython
p2472
sVgraph
p2473
g2473
sVflash
p2474
g2474
sVjvm
p2475
NsVhttp-post
p2476
Vandroid
p2477
sVandroid-testing
p2478
Vandroid
p2479
sVpredicate
p2480
NsVfunctional-testing
p2481
Vtesting
p2482
sVnsdictionary
p2483
NsVglobal-asax
p2484
NsVanonymous
p2485
g1979
sVgui
p2486
Vjava
p2487
sVfftw
p2488
Vc++
p2489
sVhtc
p2490
NsVhta
p2491
NsVphpunit
p2492
NsVhdfs
p2493
Vhadoop
p2494
sViphone-sdk-3.0
p2495
NsVrelational
p2496
Vdatabase
p2497
sVgawk
p2498
NsVapache
p2499
g2499
sVhdf5
p2500
Vpython
p2501
sVtreemap
p2502
Vjava
p2503
sVdb4o
p2504
Vjava
p2505
sVbehat
p2506
NsVxcode5
p2507
NsVgrails-controller
p2508
NsVapache-camel
p2509
NsVfilezilla
p2510
NsVgsub
p2511
NsVtabpanel
p2512
NsVmongodb-csharp
p2513
NsVandroid-actionbar
p2514
Vandroid
p2515
sVmarket
p2516
NsVregex
p2517
g57
sVhttpd
p2518
NsVrails-activerecord
p2519
Vruby-on-rails
p2520
sVshared-ptr
p2521
NsVgoogle-street-view
p2522
g507
sVlive
p2523
Vjquery
p2524
sVhttps
p2525
g2525
sVquartz.net
p2526
NsVruby-1.9.3
p2527
NsVavaudiosession
p2528
Vios
p2529
sVcoldfusion-10
p2530
NsVaforge
p2531
NsVmonotouch
p2532
Vios
p2533
sVnested-class
p2534
NsVwindows-7-x64
p2535
NsVselectonemenu
p2536
Vjsf
p2537
sVlogarithm
p2538
NsVgoogle-closure-compiler
p2539
NsVgraphic
p2540
NsVmemory-alignment
p2541
NsVquartz-2d
p2542
Vios
p2543
sVcas
p2544
NsVcat
p2545
NsViframe
p2546
NsVsql-injection
p2547
Vphp
p2548
sVsubstring
p2549
g397
sVphpstorm
p2550
Vphp
p2551
sVspl
p2552
Vphp
p2553
sVcopy-constructor
p2554
NsVlxml
p2555
Vpython
p2556
sVmsmq
p2557
NsVandroid-alarms
p2558
Vandroid
p2559
sVaccess-control
p2560
Vphp
p2561
sVproduct
p2562
Vmagento
p2563
sVoutlook-2010
p2564
NsVjquery-ui-draggable
p2565
Vjquery
p2566
sVnearest-neighbor
p2567
NsVaop
p2568
NsVcompatibility
p2569
Vandroid
p2570
sVgoogle-cloud-sql
p2571
NsVhtml.dropdownlistfor
p2572
NsVinclude-path
p2573
Vphp
p2574
sVgoogle-bigquery
p2575
NsVcorona
p2576
NsVscala-2.8
p2577
Vscala
p2578
sVghc
p2579
Vhaskell
p2580
sVzen-cart
p2581
NsVrails-routing
p2582
NsVneural-network
p2583
g2583
sVexcel-interop
p2584
NsVxmldocument
p2585
NsVgraphviz
p2586
NsVeclipse-indigo
p2587
NsVevent-dispatch-thread
p2588
NsVstack-trace
p2589
Vjava
p2590
sVpackage-managers
p2591
NsVarduino
p2592
g2592
sVuilabel
p2593
Vios
p2594
sVforms
p2595
NsVyaml
p2596
NsVwindow
p2597
NsVmultiline
p2598
NsVsaxon
p2599
Vxslt
p2600
sVfxcop
p2601
NsVerror-logging
p2602
Vjava
p2603
sVember.js
p2604
g2604
sVerror-handling
p2605
NsVpass-by-value
p2606
NsVrake
p2607
g2607
sVscaling
p2608
NsVcqrs
p2609
NsVwix3
p2610
NsVdrop
p2611
NsVxmlpullparser
p2612
NsVtypetraits
p2613
Vc++
p2614
sVpycharm
p2615
Vpython
p2616
sVel
p2617
Vjsp
p2618
sVjquery-animate
p2619
Vjquery
p2620
sVcairo
p2621
NsVhttpwebresponse
p2622
NsVgaussian
p2623
Vmatlab
p2624
sVhighstock
p2625
Vjavascript
p2626
sVphp-5.4
p2627
NsVphp-5.3
p2628
NsVnaming
p2629
NsVtask-parallel-library
p2630
NsVspace
p2631
NsVelastic-beanstalk
p2632
NsVsoftware-design
p2633
Vsoftware-engineering
p2634
sVxamarin-studio
p2635
NsVfilewriter
p2636
NsVuwsgi
p2637
Vpython
p2638
sVcart
p2639
g2639
sVandroid-ui
p2640
Vandroid
p2641
sVdependencies
p2642
Vmaven
p2643
sVtransition
p2644
Vjquery
p2645
sVstring-formatting
p2646
NsVnsmanagedobject
p2647
NsVlambda
p2648
NsVandroid-resources
p2649
Vandroid
p2650
sVvariables
p2651
g2463
sVsavefiledialog
p2652
NsVmessage
p2653
NsVforwarding
p2654
Vdns
p2655
sVangular
p2656
NsVsize
p2657
Vandroid
p2658
sVchecked
p2659
NsVyii
p2660
NsVcarousel
p2661
Vjquery
p2662
sVcrash-dumps
p2663
NsVfriend
p2664
Vc++
p2665
sVminitest
p2666
NsVpecl
p2667
Vphp
p2668
sVpng
p2669
g981
sVthumbnails
p2670
NsVmysql-management
p2671
Vmysql
p2672
sVrobots.txt
p2673
NsVgpgpu
p2674
g1175
sVapplet
p2675
Vjava
p2676
sVtitanium-mobile
p2677
NsVdjango-orm
p2678
NsVamazon-s3
p2679
Vamazon-web-services
p2680
sVbrowser
p2681
NsVdependency-management
p2682
NsVfork
p2683
g15
sVmvvm
p2684
Vwpf
p2685
sVbufferedimage
p2686
NsVgesture-recognition
p2687
Vandroid
p2688
sVresponse.redirect
p2689
NsVwcf
p2690
g2690
sVandengine
p2691
Vandroid
p2692
sVwatir-webdriver
p2693
NsVmobile-safari
p2694
NsVubercart
p2695
Vdrupal
p2696
sVsql-order-by
p2697
Vmysql
p2698
sVnsnotifications
p2699
NsVcarriage-return
p2700
NsVscreen-scraping
p2701
Vpython
p2702
sVip-address
p2703
NsVqwebview
p2704
NsVupgrade
p2705
Vandroid
p2706
sVtitle
p2707
NsVmonkeyrunner
p2708
NsVhierarchy
p2709
NsVadobe-illustrator
p2710
g2710
sVdatatemplate
p2711
NsVlocationmanager
p2712
NsVboolean-logic
p2713
NsVfft
p2714
NsVjtextfield
p2715
NsVdatamapper
p2716
NsVandroid-bluetooth
p2717
NsVwebapp2
p2718
NsVpostgis
p2719
NsVitemscontrol
p2720
Vwpf
p2721
sVsonar
p2722
Vjava
p2723
sVformtastic
p2724
Vruby-on-rails
p2725
sVgoogle-geocoder
p2726
g507
sVadd-in
p2727
NsVtablesorter
p2728
Vjquery
p2729
sVgdata
p2730
NsVnslayoutconstraint
p2731
NsVactionscript-3
p2732
g602
sVbetween
p2733
NsVimport
p2734
Vpython
p2735
sVjta
p2736
NsVwebsphere
p2737
NsVpthreads
p2738
g15
sVanalyzer
p2739
NsVarticle
p2740
NsVpixels
p2741
NsVexpression-blend
p2742
Vwpf
p2743
sVinstallation
p2744
NsVvideo-encoding
p2745
g1515
sVmono
p2746
NsVindy10
p2747
Vdelphi
p2748
sVgwt
p2749
g2749
sVembedding
p2750
NsVcomet
p2751
Vajax
p2752
sVinversion-of-control
p2753
NsVcodeigniter-2
p2754
NsVframeset
p2755
Vhtml
p2756
sVosx-lion
p2757
g332
sVdispatch
p2758
Vscala
p2759
sVnokogiri
p2760
NsVexploit
p2761
Vsecurity
p2762
sVcaret
p2763
NsVruntime-error
p2764
NsVruby-on-rails-3.1
p2765
NsVruby-on-rails-3.2
p2766
NsVgridfs
p2767
Vmongodb
p2768
sVaero
p2769
NsVexternal
p2770
NsVcodeigniter-url
p2771
NsVnsurlrequest
p2772
NsVruby
p2773
NsVpayment-gateway
p2774
NsVlog4net-configuration
p2775
NsVkey-value-coding
p2776
NsVuitouch
p2777
Vios
p2778
sVsharepoint-workflow
p2779
Vsharepoint
p2780
sVyahoo-api
p2781
NsVorientation
p2782
NsVstdout
p2783
NsVdatastore
p2784
NsVmedia
p2785
Vandroid
p2786
sVservlets
p2787
g2787
sVmsdtc
p2788
NsVepoch
p2789
NsVcapybara
p2790
NsVdocument
p2791
Vjavascript
p2792
sVavl-tree
p2793
NsVhadoop-streaming
p2794
Vhadoop
p2795
sVmedia-queries
p2796
Vcss
p2797
sVandroid-viewpager
p2798
Vandroid
p2799
sVscrolltop
p2800
NsVcrystal-reports
p2801
NsV8086
p2802
Vassembly
p2803
sVcore-image
p2804
Vios
p2805
sValfresco
p2806
NsVdata-mining
p2807
g2807
sVsystem.drawing
p2808
NsVbreeze
p2809
NsVsharepoint-2010
p2810
g829
sVcck
p2811
NsVprocessbuilder
p2812
NsVsqliteopenhelper
p2813
Vandroid
p2814
sVsublimetext
p2815
NsVcocos2d
p2816
NsVtouch
p2817
Vandroid
p2818
sVaction-filter
p2819
NsVstruct
p2820
g15
sVimagebutton
p2821
Vandroid
p2822
sVmmap
p2823
Vlinux
p2824
sVdesktop
p2825
Vjava
p2826
sVhover
p2827
Vjquery
p2828
sVandroid-lifecycle
p2829
NsVrules
p2830
NsVswig
p2831
Vc++
p2832
sVamd
p2833
Vjavascript
p2834
sVmousemove
p2835
NsVlwjgl
p2836
Vjava
p2837
sVappkit
p2838
NsVexecution
p2839
Vphp
p2840
sVdeep-copy
p2841
Vjava
p2842
sVandroid-listview
p2843
Vandroid
p2844
sVblackberry
p2845
NsVoutput
p2846
Vjava
p2847
sVcomputer-science
p2848
Valgorithm
p2849
sVdjango-queries
p2850
Vdjango
p2851
sVstrcmp
p2852
g139
sVcisco
p2853
g2853
sVuppercase
p2854
NsVandroid-c2dm
p2855
Vandroid
p2856
sVfgets
p2857
NsVejb-3.0
p2858
Vjava
p2859
sVbigdata
p2860
g2860
sVinno-setup
p2861
NsVuser-profile
p2862
Vdjango
p2863
sVassembly
p2864
g2864
sVpylons
p2865
NsVdatabase-performance
p2866
Vmysql
p2867
sVtdd
p2868
g2868
sVontology
p2869
NsVthrow
p2870
NsVmovieclip
p2871
g602
sVcrystal-reports-2010
p2872
NsVsrc
p2873
NsVazureservicebus
p2874
NsVstruts2
p2875
NsVbackup
p2876
Vmysql
p2877
sVprocessor
p2878
NsVoutlook
p2879
NsVprovisioning-profile
p2880
Vios
p2881
sVsplash-screen
p2882
NsVsuppress-warnings
p2883
Vjava
p2884
sVweight
p2885
Vandroid
p2886
sVopengl
p2887
g2887
sVarel
p2888
Vruby-on-rails
p2889
sVnpapi
p2890
Vjquery
p2891
sVmouseenter
p2892
Vjquery
p2893
sVwindows-server-2008-r2
p2894
Vasp.net
p2895
sVmultitasking
p2896
NsVembedded
p2897
g2897
sVasp.net-mvc-2
p2898
NsVasp.net-mvc-3
p2899
NsVasp.net-mvc-4
p2900
NsVasp.net-mvc-5
p2901
NsVdefine
p2902
NsVandroid-alertdialog
p2903
Vandroid
p2904
sVcakephp-appmodel
p2905
Vphp
p2906
sVinner-classes
p2907
Vjava
p2908
sVboost-spirit-qi
p2909
Vc++
p2910
sVibatis
p2911
Vjava
p2912
sVminify
p2913
NsVstorage
p2914
g2914
sVringtone
p2915
NsVpear
p2916
NsVregistry
p2917
NsVpool
p2918
Vjava
p2919
sVbulk
p2920
NsVandroid-progressbar
p2921
Vandroid
p2922
sVpowershell-v2.0
p2923
Vpowershell
p2924
sVxcopy
p2925
g1825
sVvalidator
p2926
Vjquery
p2927
sVdigital-certificate
p2928
NsVsemantic
p2929
Vhtml
p2930
sVgoogle-spreadsheet-api
p2931
NsVsplitting
p2932
g397
sVmp4
p2933
g1515
sVweb-worker
p2934
Vjavascript
p2935
sVopenlayers
p2936
NsVsharepoint2013
p2937
NsVandroid-mediaplayer
p2938
NsViconv
p2939
NsVicons
p2940
NsVandroid-cursor
p2941
Vandroid
p2942
sVwmi
p2943
NsVnodes
p2944
Vxml
p2945
sVportforwarding
p2946
NsVmpi
p2947
g15
sVsortable
p2948
Vjquery
p2949
sVdatatrigger
p2950
Vwpf
p2951
sVswiftmailer
p2952
NsVmapreduce
p2953
g2953
sVurlencode
p2954
Vphp
p2955
sVandroid-permissions
p2956
Vandroid
p2957
sVcookies
p2958
NsVinstagram
p2959
Vphp
p2960
sVmojarra
p2961
Vjsf
p2962
sVpivot-table
p2963
NsVreportingservices-2005
p2964
NsVcertificates
p2965
NsVnant
p2966
NsVmodify
p2967
NsVgrails-2.0
p2968
NsVcaliburn.micro
p2969
Vwpf
p2970
sVpopen
p2971
NsVundefined-reference
p2972
Vc++
p2973
sVadvertising
p2974
Vandroid
p2975
sVpermutation
p2976
Valgorithm
p2977
sVinvalidate
p2978
NsVjre
p2979
Vandroid
p2980
sVshuffle
p2981
NsVhlsl
p2982
NsVcustom-fields
p2983
Vwordpress
p2984
sVjoomla2.5
p2985
NsVhref
p2986
Vhtml
p2987
sVadd-on
p2988
NsVhelper
p2989
NsVjavascript-framework
p2990
Vjavascript
p2991
sVjcarousel
p2992
Vjquery
p2993
sVcontains
p2994
NsVvi
p2995
NsVauthorization
p2996
NsVquickbooks-online
p2997
NsVtemp-tables
p2998
Vsql
p2999
sVhashcode
p3000
NsVitext
p3001
Vjava
p3002
sVgit-branch
p3003
NsVmodalpopupextender
p3004
NsVazure-worker-roles
p3005
NsVgql
p3006
NsVnetbeans-7
p3007
Vjava
p3008
sVmvvm-light
p3009
g2685
sVhistory
p3010
NsVswfobject
p3011
NsVf#
p3012
NsVmagento
p3013
g3013
sVexclude
p3014
g57
sVdjango-models
p3015
NsVspreadsheet
p3016
NsVoracle10g
p3017
Voracle
p3018
sVpygame
p3019
Vpython
p3020
sVshell-exec
p3021
NsVpiglatin
p3022
NsVopengl-es-2.0
p3023
NsVtextview
p3024
NsVpowerbuilder
p3025
NsVexcel-2010
p3026
NsVcoldfusion-9
p3027
NsVcoldfusion-8
p3028
NsVfirebreath
p3029
Vc++
p3030
sVgruntjs
p3031
Vjavascript
p3032
sVtext-editor
p3033
Vjavascript
p3034
sVscss
p3035
Vcss
p3036
sVapplication-settings
p3037
NsVdocumentation
p3038
Vpython
p3039
sVhsqldb
p3040
Vjava
p3041
sVinline
p3042
Vc++
p3043
sVuninstall
p3044
NsVphotoshop
p3045
g3045
sV2d-array
p3046
NsVasp.net-4.5
p3047
Vasp.net
p3048
sVtaxonomy
p3049
Vwordpress
p3050
sVmockito
p3051
Vjava
p3052
sVasp.net-4.0
p3053
Vasp.net
p3054
sVssh-keys
p3055
Vssh
p3056
sVskinning
p3057
NsVios-simulator
p3058
NsVffi
p3059
NsVcustom-controls
p3060
NsVinfinite-loop
p3061
NsVaggregation-framework
p3062
NsVpsycopg2
p3063
NsVselenium
p3064
g3064
sVaccess-token
p3065
NsVdynamic-memory-allocation
p3066
Vc++
p3067
sVterrain
p3068
NsVio-redirection
p3069
Vbash
p3070
sVtextwrapping
p3071
Vcss
p3072
sVfile-handling
p3073
g139
sVreferrer
p3074
NsVdecimal
p3075
NsVpreferenceactivity
p3076
NsVcordova-2.0.0
p3077
NsVfluent-interface
p3078
NsVsingle-sign-on
p3079
Vjava
p3080
sVtext-processing
p3081
NsVgemfile
p3082
Vruby-on-rails
p3083
sVpreg-replace
p3084
Vphp
p3085
sVpublish
p3086
NsVtask-queue
p3087
NsVjquery-effects
p3088
NsVast
p3089
Vjava
p3090
sVtimeline
p3091
Vjavascript
p3092
sVsymbian
p3093
g297
sVbase
p3094
NsVput
p3095
Vrest
p3096
sVfluid-layout
p3097
Vcss
p3098
sVrecv
p3099
NsVbash
p3100
g3100
sVlaunch
p3101
NsVdrupal
p3102
g3102
sVcaption
p3103
Vjquery
p3104
sVshellexecute
p3105
Vc++
p3106
sVassign
p3107
NsVtabitem
p3108
Vwpf
p3109
sVsingleton
p3110
Vjava
p3111
sVacts-as-taggable-on
p3112
NsVprobability
p3113
g3113
sVencoding
p3114
NsVv8
p3115
Vjavascript
p3116
sVlarge-data
p3117
NsVfile-transfer
p3118
Vandroid
p3119
sVlucene-index
p3120
Vlucene
p3121
sVbinaryfiles
p3122
Vc++
p3123
sVweblogic
p3124
Vjava
p3125
sVexpand
p3126
NsVcluster-analysis
p3127
NsVzeromq
p3128
NsVscheme
p3129
g3129
sVslidedown
p3130
Vjquery
p3131
sVschema
p3132
NsVascx
p3133
Vasp.net
p3134
sVgetter
p3135
NsVbower
p3136
NsVmultiple-instances
p3137
NsVtranslation
p3138
NsVtfs
p3139
NsVstd
p3140
NsVdto
p3141
NsVffmpeg
p3142
g1515
sVstl
p3143
NsV.htaccess
p3144
NsVdtd
p3145
NsVgedit
p3146
Vpython
p3147
sVnull
p3148
Vjava
p3149
sVfacebook-canvas
p3150
NsVkoala
p3151
NsVpython-2.7
p3152
Vpython
p3153
sVpython-2.6
p3154
Vpython
p3155
sVpython-2.5
p3156
Vpython
p3157
sVboxplot
p3158
NsVzepto
p3159
NsVraspberry-pi
p3160
g3160
sVbug-tracking
p3161
NsVquote
p3162
Vphp
p3163
sVmultilingual
p3164
Vphp
p3165
sVnsoperationqueue
p3166
Vios
p3167
sValpha
p3168
NsVpython-2.x
p3169
Vpython
p3170
sVexecutable-jar
p3171
Vjava
p3172
sVmobile
p3173
NsVclear
p3174
NsVnsdateformatter
p3175
Vobjective-c
p3176
sVvelocity
p3177
Vjava
p3178
sVblend
p3179
Vwpf
p3180
sVflicker
p3181
NsVtastypie
p3182
NsVscrollview
p3183
NsVlanguage-features
p3184
NsVparameters
p3185
NsVgoogle-play
p3186
Vandroid
p3187
sVcontroltemplate
p3188
NsVcircle
p3189
NsVglut
p3190
Vopengl
p3191
sVjquery
p3192
g3192
sVhotmail
p3193
NsVdata-access-layer
p3194
NsVcombinations
p3195
Valgorithm
p3196
sVgrep
p3197
Vbash
p3198
sVfacebook-ios-sdk
p3199
NsVegit
p3200
Veclipse
p3201
sVboost
p3202
Vc++
p3203
sVgit-rebase
p3204
NsVbusiness-logic
p3205
NsVlocale
p3206
Vjava
p3207
sVcore-audio
p3208
g2042
sVculture
p3209
NsVrtmp
p3210
NsVportrait
p3211
NsVqtip
p3212
Vjquery
p3213
sVkeypress
p3214
Vjquery
p3215
sVxna-4.0
p3216
NsVscalability
p3217
g1039
sVcore-location
p3218
NsVknockout.js
p3219
g3219
sVboto
p3220
NsVbox2d-iphone
p3221
NsVprimary-key
p3222
NsVfileinputstream
p3223
Vjava
p3224
sVbots
p3225
NsVruby-on-rails-4
p3226
NsVruby-on-rails-2
p3227
NsVruby-on-rails-3
p3228
NsVbattery
p3229
Vandroid
p3230
sVheader
p3231
NsVlinux
p3232
g3232
sVfacebook-fql
p3233
NsVdestructor
p3234
Vc++
p3235
sVhtml-form
p3236
Vhtml
p3237
sVspecial-characters
p3238
Vphp
p3239
sVmaintenance
p3240
g224
sVwill-paginate
p3241
Vruby-on-rails
p3242
sVshortcode
p3243
Vwordpress
p3244
sVandroid-maps
p3245
NsVbrowser-cache
p3246
g2470
sVcovariance
p3247
NsVserversocket
p3248
NsVtwitter-bootstrap-3
p3249
NsVwakelock
p3250
Vandroid
p3251
sVimap
p3252
NsVfloating-point
p3253
NsVpublish-subscribe
p3254
NsVresponsive-design
p3255
NsVmainframe
p3256
NsVchecksum
p3257
g1302
sVbookmarklet
p3258
Vjavascript
p3259
sVprolog
p3260
g3260
sVmalloc
p3261
NsVjpa
p3262
g290
sVskype
p3263
NsVgimp
p3264
NsVautosize
p3265
NsVfedora
p3266
g3266
sVlibcurl
p3267
NsVtext-to-speech
p3268
Vandroid
p3269
sVjpa-2.0
p3270
Vjava
p3271
sVmodel-binding
p3272
NsVzope
p3273
NsVcomposition
p3274
NsVconflict
p3275
NsVinterpolation
p3276
Vpython
p3277
sVstorekit
p3278
NsVandroid-sqlite
p3279
Vandroid
p3280
sVbrowser-history
p3281
Vjavascript
p3282
sVmshtml
p3283
NsVgsp
p3284
NsVsha1
p3285
NsVdojox.grid.datagrid
p3286
g126
sVdatabase
p3287
g3287
sVdocker
p3288
NsVrbenv
p3289
NsVgsl
p3290
NsVc++builder
p3291
Vc++
p3292
sVpacket-sniffers
p3293
NsVcout
p3294
NsVtinymce
p3295
Vjavascript
p3296
sVpywin32
p3297
NsVunique-constraint
p3298
Vsql
p3299
sVjdeveloper
p3300
Vjava
p3301
sVlibpcap
p3302
g139
sVormlite
p3303
NsVshortcut
p3304
Vandroid
p3305
sVvsix
p3306
NsVreportviewer
p3307
NsVtransformation
p3308
Vxslt
p3309
sVpython-multithreading
p3310
Vpython
p3311
sVnginx
p3312
g3312
sVoverriding
p3313
Vjava
p3314
sVactivex
p3315
NsVsubmission
p3316
NsVnsview
p3317
NsVmanifest
p3318
NsVwordpress-plugin-dev
p3319
Vwordpress
p3320
sVwininet
p3321
NsVterminology
p3322
Vjava
p3323
sVfreebase
p3324
NsVcreation
p3325
Vjava
p3326
sVsame-origin-policy
p3327
NsVdocusignapi
p3328
NsVwarnings
p3329
NsVid3
p3330
NsVmaven-assembly-plugin
p3331
NsVcgi
p3332
g3332
sVrun
p3333
Vjava
p3334
sVprocessing
p3335
Vjava
p3336
sVbitmapfactory
p3337
Vandroid
p3338
sVjdbctemplate
p3339
NsVwindows-store
p3340
NsVgnome
p3341
NsVtracing
p3342
NsVgithub-api
p3343
NsVsimulation
p3344
NsVidl
p3345
NsVdatasource
p3346
NsVjsp
p3347
g3347
sVide
p3348
NsVshiny
p3349
NsVandroid-contacts
p3350
Vandroid
p3351
sVblock
p3352
NsVactive-directory
p3353
NsVgtkmm
p3354
NsVweb-crawler
p3355
NsVperl
p3356
g3356
sVperformancecounter
p3357
NsVstatistics
p3358
g3358
sVinstance-variables
p3359
NsVapp-engine-ndb
p3360
NsVheroku
p3361
NsVandroid-file
p3362
Vandroid
p3363
sVstatic-linking
p3364
Vc++
p3365
sVinjection
p3366
NsVrequestfactory
p3367
NsVfacebook-sharer
p3368
NsVutc
p3369
NsVutf
p3370
NsVmiddleware
p3371
NsVviewbag
p3372
NsVaccessibility
p3373
Vhtml
p3374
sVxslt-1.0
p3375
NsVflowplayer
p3376
Vjavascript
p3377
sVnsuserdefaults
p3378
NsVgecko
p3379
NsVcross-compiling
p3380
NsVpolygon
p3381
NsVfirst-responder
p3382
NsVnan
p3383
NsVnav
p3384
NsVnat
p3385
g3385
sVload-balancing
p3386
g3386
sVpandas
p3387
NsVdraw
p3388
NsVmongodb
p3389
g3389
sVcaching
p3390
g2470
sVdrag
p3391
NsVeval
p3392
Vjavascript
p3393
sVstructure
p3394
NsVnsdocument
p3395
Vcocoa
p3396
sVwebdriver
p3397
Vjava
p3398
sVsvm
p3399
g3399
sVzooming
p3400
NsVphysics
p3401
NsVdjango-registration
p3402
Vdjango
p3403
sVrequired
p3404
NsVyoutube
p3405
NsVdepth
p3406
Vopengl
p3407
sVcustom-component
p3408
NsVblackberry-jde
p3409
NsVaccess-violation
p3410
Vc++
p3411
sVmsbuild
p3412
NsVjson.net
p3413
NsVgd
p3414
Vphp
p3415
sVgo
p3416
NsVuistoryboardsegue
p3417
NsVinformation-retrieval
p3418
g3418
sVwizard
p3419
Vasp.net
p3420
sVtext-alignment
p3421
NsVrollback
p3422
NsVgamekit
p3423
NsVflickr-api
p3424
NsVdrupal-theming
p3425
Vdrupal
p3426
sVtortoisegit
p3427
NsVbit-shift
p3428
NsVmercurial
p3429
NsVbutton
p3430
NsVspring-jdbc
p3431
NsVhive
p3432
g3432
sVolap
p3433
g3433
sVgeospatial
p3434
NsVglfw
p3435
NsVtidesdk
p3436
Vjavascript
p3437
sVpicker
p3438
NsVzk
p3439
NsVdownload
p3440
Vphp
p3441
sVclick
p3442
Vjquery
p3443
sVphpdoc
p3444
NsVresque
p3445
Vruby-on-rails
p3446
sVcell
p3447
NsVimporterror
p3448
NsVvolatile
p3449
NsVvb6
p3450
NsVplayn
p3451
NsVdrools
p3452
Vjava
p3453
sVdrupal-7
p3454
NsVdrupal-6
p3455
NsVmatplotlib
p3456
Vpython
p3457
sVlogout
p3458
Vphp
p3459
sVaccessor
p3460
NsVz3
p3461
NsVinfopath
p3462
Vsharepoint
p3463
sVvba
p3464
NsVuikit
p3465
NsVvbo
p3466
NsVproducts
p3467
Vmagento
p3468
sVautomatic-ref-counting
p3469
Vobjective-c
p3470
sVperl-module
p3471
NsVwif
p3472
NsVoutlook-addin
p3473
NsVrealloc
p3474
NsVnsattributedstring
p3475
Vios
p3476
sVreadfile
p3477
Vphp
p3478
sVontouchevent
p3479
NsVboolean
p3480
NsVteam-foundation-service
p3481
NsVstatic-analysis
p3482
NsVcloud
p3483
g3483
sVwix
p3484
NsVdjango-haystack
p3485
NsVdelphi-2010
p3486
Vdelphi
p3487
sVnuget
p3488
NsVcamera
p3489
Vandroid
p3490
sVqunit
p3491
g3491
sVmod-proxy
p3492
NsVpowermock
p3493
NsVresize
p3494
Vjquery
p3495
sVemail-validation
p3496
g57
sVanonymous-types
p3497
NsVphing
p3498
NsVperformance-testing
p3499
g1039
sVinternet-explorer-11
p3500
NsVinternet-explorer-10
p3501
Vjavascript
p3502
sVnetwork-protocols
p3503
NsVcontrol
p3504
NsVlinks
p3505
Vhtml
p3506
sVsocketexception
p3507
NsVsudo
p3508
Vlinux
p3509
sVsuds
p3510
Vpython
p3511
sVwebmatrix
p3512
NsVevent-log
p3513
NsVuibarbuttonitem
p3514
NsVjoomla-extensions
p3515
NsVuibinder
p3516
Vgwt
p3517
sVpyqt
p3518
Vpython
p3519
sVscriptaculous
p3520
Vjavascript
p3521
sVjwplayer
p3522
Vjavascript
p3523
sVgalleria
p3524
NsVdesktop-application
p3525
NsValertdialog
p3526
Vandroid
p3527
sVpydev
p3528
Veclipse
p3529
sVxmlns
p3530
Vxml
p3531
sVexport-to-csv
p3532
NsVvisual-studio-team-system
p3533
NsVthread-safety
p3534
NsVasmx
p3535
Vjava
p3536
sVjna
p3537
NsVgpuimage
p3538
NsVinterceptor
p3539
Vjava
p3540
sVrestful-authentication
p3541
NsVsubversive
p3542
Vsvn
p3543
sVphpbb3
p3544
NsVsmtpclient
p3545
NsVclient-certificates
p3546
Vssl
p3547
sVpaperclip
p3548
NsVpixel
p3549
g981
sVfactorial
p3550
Vjava
p3551
sVauto
p3552
Vc++
p3553
sVnokia
p3554
NsVms-word
p3555
NsVsmarty
p3556
Vphp
p3557
sVqgraphicsitem
p3558
NsVcakephp
p3559
g2906
sVxpcom
p3560
NsVstoryboard
p3561
Vios
p3562
sVmodx
p3563
NsVweak-references
p3564
NsVslide
p3565
Vjquery
p3566
sViphone-privateapi
p3567
Vios
p3568
sVtabcontrol
p3569
NsVjsp-tags
p3570
NsVbluetooth
p3571
g3571
sVimage-processing
p3572
g3572
sVcitrix
p3573
g3573
sVmargins
p3574
NsVtransitions
p3575
Vcss
p3576
sVobjectdatasource
p3577
Vasp.net
p3578
sVios-4.2
p3579
NsVreboot
p3580
Vandroid
p3581
sVcritical-section
p3582
NsVnsregularexpression
p3583
NsVnstask
p3584
Vobjective-c
p3585
sViostream
p3586
Vc++
p3587
sVwatermark
p3588
NsVhl7
p3589
NsVeventlistener
p3590
Vjavascript
p3591
sVundo
p3592
NsVqt-creator
p3593
g297
sVgeometry
p3594
g3594
sVdeprecated
p3595
NsVroute
p3596
Vphp
p3597
sVspoj
p3598
Valgorithm
p3599
sVtimer
p3600
NsVblogger
p3601
NsVm2eclipse
p3602
Veclipse
p3603
sVjcombobox
p3604
NsVeclipse-adt
p3605
NsVgoogle-chrome-devtools
p3606
g1848
sVplaylist
p3607
NsVprivacy
p3608
NsVmkdir
p3609
Vphp
p3610
sVwrapper
p3611
NsVattach
p3612
Vandroid
p3613
sVhttp-status-codes
p3614
Vjava
p3615
sVphp-extension
p3616
Vphp
p3617
sVfinal
p3618
NsVnsnumberformatter
p3619
Vobjective-c
p3620
sVws-security
p3621
g3536
sVrsa
p3622
NsVmanipulation
p3623
NsVrequiredfieldvalidator
p3624
Vasp.net
p3625
sVupdating
p3626
Vandroid
p3627
sVrss
p3628
NsVandroid-custom-view
p3629
NsVfscanf
p3630
g15
sVfragment-shader
p3631
NsVvideo-processing
p3632
g1515
sVtabs
p3633
NsVunpivot
p3634
NsVborder
p3635
Vcss
p3636
sVfluent
p3637
NsVmicrophone
p3638
NsVcascade
p3639
NsVinstance
p3640
NsVcocoa-bindings
p3641
Vcocoa
p3642
sVjavacv
p3643
NsVmongrel
p3644
NsVjboss5.x
p3645
Vjava
p3646
sVuiinterfaceorientation
p3647
Vios
p3648
sVawt
p3649
NsVvalue-type
p3650
NsVawk
p3651
g3651
sVoptional-parameters
p3652
NsVframe-rate
p3653
NsVgallery
p3654
Vandroid
p3655
sVepub
p3656
NsVurl
p3657
NsVindy
p3658
Vdelphi
p3659
sVuri
p3660
Vandroid
p3661
sVspam-prevention
p3662
NsVsnapshot
p3663
NsVclass-library
p3664
NsVloadrunner
p3665
g3665
sVeclipselink
p3666
g290
sVcss-selectors
p3667
Vcss
p3668
sVrmagick
p3669
NsVdotnetopenauth
p3670
NsVhector
p3671
Vcassandra
p3672
sVangularjs-routing
p3673
NsVspring-security
p3674
Vspring
p3675
sVauto-update
p3676
Vandroid
p3677
sVubuntu-12.04
p3678
Vubuntu
p3679
sVitemrenderer
p3680
NsVstrpos
p3681
NsVtwilio
p3682
Vphp
p3683
sVtbb
p3684
NsVscrolling
p3685
NsVprocesses
p3686
NsVnskeyedarchiver
p3687
NsVnsbutton
p3688
Vcocoa
p3689
sVcoronasdk
p3690
NsVsha
p3691
NsVdatetime-format
p3692
NsVgit-svn
p3693
Vgit
p3694
sVdpi
p3695
Vandroid
p3696
sVcognos
p3697
g3697
sVopenoffice.org
p3698
g1883
sVmulti-select
p3699
NsVpreventdefault
p3700
NsVjavasound
p3701
Vjava
p3702
sVsetup-deployment
p3703
NsVandroid-adapter
p3704
Vandroid
p3705
sVresourcebundle
p3706
Vjava
p3707
sVlegacy
p3708
Vjava
p3709
sVafnetworking
p3710
Vios
p3711
sVreverse-engineering
p3712
Vjava
p3713
sVxerces
p3714
Vxml
p3715
sVstanford-nlp
p3716
Vnlp
p3717
sVlua
p3718
NsVstate
p3719
NsVstata
p3720
g3720
sVmasking
p3721
NsVflickr
p3722
NsVcomparable
p3723
NsVangularjs-directive
p3724
Vangularjs
p3725
sVfacebook-apps
p3726
NsVsharedpreferences
p3727
Vandroid
p3728
sVgroup
p3729
NsVadmin
p3730
NsVubuntu-10.04
p3731
Vlinux
p3732
sVandroid-notifications
p3733
NsVdocumentation-generation
p3734
NsVjersey
p3735
Vjava
p3736
sVfbml
p3737
NsVthickbox
p3738
NsVvxworks
p3739
NsVmodel-associations
p3740
NsVversion-control
p3741
g1616
sVemail-integration
p3742
NsVandroid-webview
p3743
NsVandroid-button
p3744
NsVcultureinfo
p3745
NsVaddition
p3746
Vjava
p3747
sVpcap
p3748
NsVcore-data
p3749
NsVuitableviewcell
p3750
Vios
p3751
sVaggregate-functions
p3752
NsVusername
p3753
Vphp
p3754
sVxlsx
p3755
NsVpic
p3756
NsVmysql-real-escape-string
p3757
Vphp
p3758
sVtweets
p3759
NsVcontroller
p3760
Vruby-on-rails
p3761
sVandroid-sdcard
p3762
Vandroid
p3763
sVotp
p3764
NsVboost-graph
p3765
Vc++
p3766
sVxpages
p3767
NsVgoogle-maps-android-api-2
p3768
NsVdvcs
p3769
NsVjquery-deferred
p3770
NsVhttp-status-code-500
p3771
NsVopenstreetmap
p3772
NsVdotnetzip
p3773
NsVsqlbulkcopy
p3774
NsVuiimageview
p3775
NsVsurface
p3776
Vwpf
p3777
sVjquery-events
p3778
NsVcapture
p3779
NsVqgraphicsscene
p3780
g297
sVmatcher
p3781
Vjava
p3782
sVclassnotfoundexception
p3783
Vjava
p3784
sVhttp
p3785
g3615
sVvideo-streaming
p3786
NsVn-tier-architecture
p3787
NsVeffect
p3788
NsVspree
p3789
NsVpolymorphism
p3790
NsVreflection
p3791
NsVandroid-volley
p3792
NsVfluent-nhibernate-mapping
p3793
NsVdraggable
p3794
Vjquery
p3795
sVcase-insensitive
p3796
NsVfacebook-comments
p3797
NsVweb-deployment
p3798
NsVrestore
p3799
NsVlotus-notes
p3800
NsVflyway
p3801
NsVlexical-analysis
p3802
NsVvirtual
p3803
Vc++
p3804
sVlow-level
p3805
g15
sVexception-handling
p3806
NsVextends
p3807
Vjava
p3808
sVfacebook-like
p3809
NsVapplication-server
p3810
Vjava
p3811
sVadodb
p3812
Vphp
p3813
sVravendb
p3814
NsVitemtemplate
p3815
NsVplsql
p3816
g3816
sVemgucv
p3817
NsVonmouseover
p3818
Vjavascript
p3819
sVintersection
p3820
Vjava
p3821
sVuislider
p3822
NsVcountdowntimer
p3823
NsVxss
p3824
NsVcontrollers
p3825
Vruby-on-rails
p3826
sVxquery
p3827
Vxml
p3828
sVobjective-c-blocks
p3829
NsVservlet-filters
p3830
NsVmonotouch.dialog
p3831
NsVandroid-orientation
p3832
Vandroid
p3833
sVandroid-xml
p3834
Vandroid
p3835
sVportlet
p3836
NsVhome
p3837
Vandroid
p3838
sVborland
p3839
Vc++
p3840
sVinner-join
p3841
NsVgoogle-sites
p3842
NsVkettle
p3843
NsVoverlap
p3844
NsVdjango-views
p3845
NsVjcrop
p3846
NsVbackground-color
p3847
NsVoffset
p3848
NsVjava
p3849
g3849
sVboost-asio
p3850
NsVpaypal-subscriptions
p3851
NsVwindows-shell
p3852
Vwindows
p3853
sVfile-system
p3854
NsVh2
p3855
Vjava
p3856
sVnested-forms
p3857
NsVcocoa
p3858
g3858
sVdev-c++
p3859
Vc++
p3860
sVbson
p3861
Vmongodb
p3862
sVw3c
p3863
NsVnetworking
p3864
NsVembedded-linux
p3865
NsVprojects-and-solutions
p3866
NsVhistogram
p3867
g115
sVoverflow
p3868
Vcss
p3869
sVear
p3870
NsVconverter
p3871
NsVcells
p3872
NsVhosting
p3873
g3873
sVsigned
p3874
NsVlimit
p3875
Vmysql
p3876
sVvoid-pointers
p3877
g139
sVdevise
p3878
NsVandroid-emulator
p3879
Vandroid
p3880
sVdatacontract
p3881
Vwcf
p3882
sValassetslibrary
p3883
NsVmod-wsgi
p3884
Vdjango
p3885
sVinotifypropertychanged
p3886
NsVmaster-detail
p3887
NsVmeteor
p3888
Vjavascript
p3889
sVxsd-validation
p3890
Vxml
p3891
sVvtable
p3892
NsVjsni
p3893
Vgwt
p3894
sVssms
p3895
NsVslideshow
p3896
NsVcpu-usage
p3897
NsVbuffer-overflow
p3898
NsVwamp
p3899
NsVfeature-detection
p3900
g2368
sVsphinx
p3901
NsVusing
p3902
NsVantialiasing
p3903
NsVblogs
p3904
Vwordpress
p3905
sVflex4.6
p3906
NsVpersistent
p3907
NsVflex4.5
p3908
NsVfile-type
p3909
Vphp
p3910
sVvalidation
p3911
NsVbcp
p3912
NsVsimilarity
p3913
NsVdynamic
p3914
NsVsparse-matrix
p3915
NsVbytecode
p3916
Vjava
p3917
sVgmaps4rails
p3918
Vruby-on-rails
p3919
sVswap
p3920
Vc++
p3921
sVendianness
p3922
g15
sVnew-operator
p3923
NsVsha256
p3924
NsVfieldset
p3925
NsVclojurescript
p3926
Vclojure
p3927
sVvoid
p3928
g139
sVmonodevelop
p3929
NsVspring-roo
p3930
NsVsmack
p3931
NsVupdates
p3932
NsVnamespaces
p3933
NsVvoip
p3934
NsVknockout-mapping-plugin
p3935
NsVsolution
p3936
NsVasp.net-mvc-partialview
p3937
NsVvector
p3938
Vc++
p3939
sVpartial-views
p3940
NsVvhdl
p3941
g3941
sVyacc
p3942
NsVvirtualization
p3943
g3943
sVpreferences
p3944
NsVnumberformat
p3945
NsVadhoc
p3946
NsVmetadata
p3947
NsVmef
p3948
NsVquirks-mode
p3949
NsVjavamail
p3950
NsVactive
p3951
NsVaxapta
p3952
NsVmex
p3953
Vmatlab
p3954
sVdry
p3955
NsVreactive-programming
p3956
NsVindentation
p3957
NsVpack
p3958
Vphp
p3959
sVgroup-concat
p3960
Vmysql
p3961
sVxelement
p3962
NsVopengraph
p3963
NsVparameter-passing
p3964
NsVbyte
p3965
Vjava
p3966
sVlandscape
p3967
NsVcss-animations
p3968
NsVhard-drive
p3969
NsVado.net-entity-data-model
p3970
NsVfile-format
p3971
Vc++
p3972
sVcommon-lisp
p3973
NsVcall
p3974
NsVfastcgi
p3975
Vphp
p3976
sVnsscrollview
p3977
NsVcomposite
p3978
NsVnavigationcontroller
p3979
NsVlazarus
p3980
NsVvcard
p3981
Vandroid
p3982
sVcomputer-vision
p3983
g3983
sVsetup
p3984
NsVdoctype
p3985
Vhtml
p3986
sVjquery-mobile
p3987
NsVroot
p3988
NsVsocial-networking
p3989
NsVcursors
p3990
NsVosmdroid
p3991
NsVshapefile
p3992
g11
sVsharepoint
p3993
g3993
sV.net-1.1
p3994
NsVline-breaks
p3995
Vphp
p3996
sVglobalization
p3997
NsVconfig
p3998
Vphp
p3999
sVehcache
p4000
Vjava
p4001
sVglassfish-3
p4002
NsVglassfish-4
p4003
NsVcode-behind
p4004
NsVethernet
p4005
g4005
sVtime-complexity
p4006
NsVfifo
p4007
NsVkeyboard
p4008
Vandroid
p4009
sVnonblocking
p4010
NsVerlang
p4011
g4011
sVonclick
p4012
Vjavascript
p4013
sVsemantic-markup
p4014
NsVdecorator
p4015
NsVaddclass
p4016
NsVinstanceof
p4017
NsVlinear-programming
p4018
g4018
sVgrammar
p4019
NsVstate-machines
p4020
NsVsubquery
p4021
Vmysql
p4022
sVorbeon
p4023
NsVmean
p4024
NsVfont-size
p4025
NsVadobe
p4026
NsVaidl
p4027
Vandroid
p4028
sVgridbaglayout
p4029
NsVmysql-python
p4030
Vpython
p4031
sVtcplistener
p4032
NsVextract
p4033
NsVfilesystemwatcher
p4034
NsVwhitespace
p4035
Vhtml
p4036
sVgradient
p4037
NsVcontent
p4038
Vjquery
p4039
sVoscommerce
p4040
NsVgenerics
p4041
NsVjbpm
p4042
NsVresume
p4043
Vandroid
p4044
sVlogging
p4045
g2603
sVckeditor
p4046
Vjavascript
p4047
sVclient-server
p4048
Vjava
p4049
sVmessages
p4050
Vwindows
p4051
sViso
p4052
g4052
sVsignature
p4053
NsVxul
p4054
NsVadvanceddatagrid
p4055
NsVuser
p4056
Vphp
p4057
sVcore-motion
p4058
NsVhook
p4059
Vc++
p4060
sVneo4j
p4061
NsVxslt-2.0
p4062
Vxslt
p4063
sVicefaces
p4064
Vjsf
p4065
sVstruts
p4066
Vjava
p4067
sVtwisted
p4068
NsVvisual-studio-2008
p4069
NsVvisual-studio-2005
p4070
NsVnutch
p4071
g4071
sVlighttpd
p4072
Vphp
p4073
sVfile-permissions
p4074
Vphp
p4075
sVuinavigationbar
p4076
NsVdistance
p4077
NsVbiginteger
p4078
NsVkeyword
p4079
NsVstructures
p4080
NsVpagespeed
p4081
g1039
sVgae-datastore
p4082
NsVdjango-south
p4083
NsVflex-lexer
p4084
NsVseek
p4085
NsVflowdocument
p4086
Vwpf
p4087
sVchess
p4088
NsVmicrosoft-metro
p4089
NsVnetworkstream
p4090
NsVpython-import
p4091
Vpython
p4092
sVuisearchbar
p4093
Vios
p4094
sVnoclassdeffounderror
p4095
Vjava
p4096
sVnewline
p4097
NsVpentaho
p4098
NsViterate
p4099
NsVmany-to-one
p4100
Vhibernate
p4101
sVmstest
p4102
NsVdom
p4103
NsVdoc
p4104
NsValarm
p4105
NsVyahoo-pipes
p4106
NsVnpgsql
p4107
NsVpoints
p4108
NsVheap-memory
p4109
Vjava
p4110
sVdos
p4111
NsVdot
p4112
NsVsigsegv
p4113
Vc++
p4114
sVimmutability
p4115
Vjava
p4116
sVcancan
p4117
NsVsyntax
p4118
NsVvsts2008
p4119
NsVfont-face
p4120
Vcss
p4121
sVcreate-table
p4122
Vmysql
p4123
sVmembership-provider
p4124
NsVvisualforce
p4125
g4125
sVcross-platform
p4126
NsVcelery
p4127
Vpython
p4128
sVldap
p4129
g4129
sVfolder
p4130
NsVtiles
p4131
NsVkeyboard-events
p4132
Vjavascript
p4133
sVselecteditem
p4134
NsVstop
p4135
Vjquery
p4136
sVautolayout
p4137
NsVdatetimepicker
p4138
NsVcgrect
p4139
NsVpowershell-v3.0
p4140
NsVreload
p4141
Vjavascript
p4142
sVarchitecture
p4143
g4143
sVnsthread
p4144
Vobjective-c
p4145
sVreference
p4146
Vc++
p4147
sVtesting
p4148
g4148
sVjquery-ui-tabs
p4149
Vjquery
p4150
sVweb-applications
p4151
NsVspring-batch
p4152
Vspring
p4153
sVenthought
p4154
NsVstatic-libraries
p4155
Vc++
p4156
sVsolr4
p4157
Vsolr
p4158
sVreddit
p4159
Vpython
p4160
sVaddsubview
p4161
NsVw3c-validation
p4162
Vhtml
p4163
sVteam-build
p4164
NsVloading
p4165
Vjquery
p4166
sVmodeling
p4167
g113
sVsolrj
p4168
NsVunc
p4169
NsVxforms
p4170
NsVhighcharts
p4171
g2626
sVloader
p4172
NsVweb-parts
p4173
Vsharepoint
p4174
sVgoogle-glass
p4175
NsVdjango-template-tags
p4176
Vdjango
p4177
sVcodeigniter
p4178
NsVpatch
p4179
NsVpage-lifecycle
p4180
Vasp.net
p4181
sVhaxe
p4182
NsVhtml5-audio
p4183
NsVnumpy
p4184
Vpython
p4185
sVcode-formatting
p4186
Veclipse
p4187
sVwebsite
p4188
NsVonblur
p4189
NsVradio-group
p4190
NsVdismiss
p4191
Vios
p4192
sVremovechild
p4193
NsVmvc-mini-profiler
p4194
NsVsource-code
p4195
NsVnested-sets
p4196
NsVandroid-contentresolver
p4197
Vandroid
p4198
sVexception
p4199
Vjava
p4200
sVprivatekey
p4201
NsVsetuptools
p4202
Vpython
p4203
sVipython-notebook
p4204
NsVanchor
p4205
Vhtml
p4206
sVspawn
p4207
NsVassociations
p4208
NsVip
p4209
g4209
sVjoomla3.0
p4210
NsVsas
p4211
g4211
sVil
p4212
NsVio
p4213
Vjava
p4214
sVmouse
p4215
NsVmako
p4216
NsVuistoryboard
p4217
Vios
p4218
sVmake
p4219
NsVstring-comparison
p4220
g397
sVextjs4
p4221
Vextjs
p4222
sVextjs3
p4223
Vextjs
p4224
sVgoogle-spreadsheet
p4225
NsVxbap
p4226
NsVradiobuttonlist
p4227
Vasp.net
p4228
sVjslint
p4229
NsVunicorn
p4230
Vruby-on-rails
p4231
sVremote-desktop
p4232
g4232
sVxjc
p4233
NsVjstl
p4234
Vjsp
p4235
sVnullreferenceexception
p4236
NsVnlog
p4237
NsVakka
p4238
NsVasihttprequest
p4239
NsVbandwidth
p4240
NsVagile
p4241
g4241
sVcharacter
p4242
NsVtuples
p4243
Vpython
p4244
sVsave
p4245
Vandroid
p4246
sVintuit-partner-platform
p4247
NsVstatic-members
p4248
NsVhttp-live-streaming
p4249
Vios
p4250
sVlinked-list
p4251
g139
sVbackground
p4252
NsVmomentjs
p4253
NsVclickable
p4254
Vandroid
p4255
sVhttpsession
p4256
Vjava
p4257
sVdaemon
p4258
NsVdrawrect
p4259
Vios
p4260
sVform-validation
p4261
Vjquery
p4262
sVstress-testing
p4263
NsVcentos
p4264
g4264
sVautowired
p4265
NsVpom.xml
p4266
Vmaven
p4267
sVconnection-string
p4268
NsVautofill
p4269
NsVtabbar
p4270
NsVhttpresponse
p4271
Vandroid
p4272
sVspring-aop
p4273
NsVshapes
p4274
NsVbigdecimal
p4275
NsVswfupload
p4276
NsVmidlet
p4277
NsVlocalhost
p4278
NsVservicestack
p4279
NsVburn
p4280
NsVsift
p4281
NsVsifr
p4282
NsVsuper
p4283
NsVcodedom
p4284
NsVpostgresql
p4285
g4285
sVvb6-migration
p4286
NsVazure
p4287
NsVcommit
p4288
NsVsprites
p4289
NsVsugarcrm
p4290
Vphp
p4291
sVparsing
p4292
Vjava
p4293
sVdoctrine
p4294
NsVjena
p4295
NsVeditor
p4296
g3034
sVhttpclient
p4297
Vjava
p4298
sVangularjs-service
p4299
Vangularjs
p4300
sVimageicon
p4301
NsVdelayed-job
p4302
Vruby-on-rails
p4303
sVpreg-match
p4304
Vphp
p4305
sVcomputational-geometry
p4306
g4306
sVedge-detection
p4307
Vimage-processing
p4308
sVdisassembling
p4309
NsVstreaming
p4310
Vandroid
p4311
sVbounds
p4312
NsVcompiler-errors
p4313
NsVdelete
p4314
Vc++
p4315
sVcustom-post-type
p4316
NsVfacebook-insights
p4317
NsVrecommendation-engine
p4318
Vmahout
p4319
sVsticky
p4320
Vjquery
p4321
sVfloating
p4322
NsVexcel
p4323
NsVentity-framework-6
p4324
NsVentity-framework-5
p4325
NsVentity-framework-4
p4326
NsVsybase
p4327
g4327
sVjinternalframe
p4328
NsVorchardcms-1.6
p4329
NsVmacports
p4330
g332
sVdidselectrowatindexpath
p4331
NsVmouselistener
p4332
Vjava
p4333
sVgetjson
p4334
Vjquery
p4335
sVandroid-contentprovider
p4336
Vandroid
p4337
sVslf4j
p4338
Vjava
p4339
sVvertex-shader
p4340
Vopengl
p4341
sVseparation-of-concerns
p4342
NsVempty-string
p4343
NsVmanaged
p4344
NsVtwitter-bootstrap
p4345
g479
sVskip
p4346
NsVthemes
p4347
NsVmanager
p4348
NsVinformix
p4349
Vsql
p4350
sVskin
p4351
NsVprimes
p4352
Valgorithm
p4353
sVmenubar
p4354
Vcss
p4355
sVcountdown
p4356
NsVfoursquare
p4357
NsVwix3.7
p4358
NsVsmartphone
p4359
NsVstring
p4360
g397
sVios6.1
p4361
NsVnsfetchedresultscontrolle
p4362
NsVx86-64
p4363
NsVserver-sent-events
p4364
Vjavascript
p4365
sVsubprocess
p4366
Vpython
p4367
sVms-access-2010
p4368
NsVjqgrid
p4369
NsVfreemarker
p4370
NsVfunction-pointers
p4371
Vc++
p4372
sVitem
p4373
NsVdiv
p4374
NsVround
p4375
Vphp
p4376
sVdir
p4377
Vphp
p4378
sVfont-awesome
p4379
NsVnsfilemanager
p4380
NsVerd
p4381
Vdatabase-design
p4382
sVmfmailcomposeviewcontroll
p4383
NsVreporting-services
p4384
NsVssis
p4385
g4385
sVcomputer-architecture
p4386
g4386
sVerb
p4387
Vruby-on-rails
p4388
sVflexbox
p4389
Vcss
p4390
sVaptana3
p4391
NsVxcode4.6
p4392
NsVxcode4.5
p4393
NsVxcode4.3
p4394
NsVxcode4.2
p4395
NsVwait
p4396
NsVshift
p4397
NsVmulticast
p4398
NsVminecraft
p4399
NsVfpdf
p4400
NsVasp.net-web-api
p4401
NsVftpwebrequest
p4402
NsVjquery-select2
p4403
Vjquery
p4404
sVlicensing
p4405
NsVc-preprocessor
p4406
g15
sVmouseevent
p4407
Vjavascript
p4408
sVrecursive-query
p4409
NsVcustom-cell
p4410
NsVstylesheet
p4411
NsVdbpedia
p4412
NsVvisio
p4413
g4413
sVencode
p4414
Vphp
p4415
sVcheckout
p4416
NsVandroid-activity
p4417
NsVdirectx-9
p4418
NsVsharing
p4419
NsVoop
p4420
g4420
sVjlabel
p4421
Vjava
p4422
sVbluetooth-lowenergy
p4423
NsVnsmanagedobjectcontext
p4424
NsVurl-parameters
p4425
NsVtry-catch
p4426
Vjava
p4427
sVflv
p4428
NsVdjango-rest-framework
p4429
NsVranking
p4430
NsVagent
p4431
NsVsample
p4432
Vandroid
p4433
sVoracleforms
p4434
Voracle
p4435
sVc++11
p4436
NsVavcapturesession
p4437
NsVcode-efficiency
p4438
g1039
sVsimulink
p4439
NsVlandscape-portrait
p4440
Vandroid
p4441
sVping
p4442
NsVprovisioning
p4443
NsVcode-first-migrations
p4444
NsVforeach
p4445
Vphp
p4446
sVtile
p4447
Vjava
p4448
sVmap
p4449
NsVdesigner
p4450
NsVliferay-6
p4451
NsVmax
p4452
NsVmembership
p4453
Vasp.net
p4454
sVclang
p4455
Vc++
p4456
sVmessaging
p4457
NsVworkflow-foundation
p4458
NsVentity-framework
p4459
NsVaudio-recording
p4460
NsVq
p4461
NsVnsis
p4462
NsVswitch
p4463
NsVlookup-tables
p4464
NsVbuddypress
p4465
Vwordpress
p4466
sVgesture
p4467
Vandroid
p4468
sVdojo
p4469
g126
sVentity
p4470
NsVgoogle-earth
p4471
g507
sVimage-rotation
p4472
Vandroid
p4473
sVmemory-allocation
p4474
NsVvirtual-functions
p4475
Vc++
p4476
sVmonitor
p4477
NsVpolicy
p4478
Vjava
p4479
sVflex3
p4480
NsVmain
p4481
NsVflex4
p4482
NsVjquery-chosen
p4483
Vjquery
p4484
sVfinance
p4485
g11
sVviews
p4486
Vdrupal
p4487
sVstdvector
p4488
NsVpopover
p4489
g479
sVfile-download
p4490
Vphp
p4491
sVsafari
p4492
NsVnhibernate-criteria
p4493
NsVosx-mavericks
p4494
NsVpseudo-element
p4495
Vcss
p4496
sVdirectories
p4497
NsVntlm
p4498
NsVgerrit
p4499
Vgit
p4500
sVadmob
p4501
Vandroid
p4502
sVcode-duplication
p4503
NsVmysql-workbench
p4504
NsVxls
p4505
NsVbinary-search
p4506
Valgorithm
p4507
sVecmascript-5
p4508
NsVvim-plugin
p4509
NsVgoogle-oauth
p4510
NsVconventions
p4511
Vjava
p4512
sVreportlab
p4513
NsVjsfiddle
p4514
Vjavascript
p4515
sVjackson
p4516
NsVmultiplayer
p4517
Vandroid
p4518
sVpoco
p4519
NsVnsoutlineview
p4520
Vcocoa
p4521
sVcode-first
p4522
NsVderived-class
p4523
NsVsensor
p4524
NsVgoto
p4525
NsVamazon-web-services
p4526
g4526
sVhistory.js
p4527
NsVajax
p4528
g4528
sVorm
p4529
NsVdatabase-administration
p4530
g4530
sVphpexcel
p4531
NsVdirectory-structure
p4532
NsVvbscript
p4533
NsVtemplate-specialization
p4534
NsVurl-redirection
p4535
NsVrtsp
p4536
NsVpowerpoint-vba
p4537
NsVsounds
p4538
NsVoutputcache
p4539
Vasp.net
p4540
sVvsto
p4541
NsVservlet-3.0
p4542
NsVstruts2-jquery
p4543
NsVwcf-binding
p4544
NsVbroadcast
p4545
NsVxmppframework
p4546
NsVprotected
p4547
NsVzsh
p4548
NsVcore-text
p4549
Vios
p4550
sV2d-games
p4551
NsVios5.1
p4552
Vios
p4553
sVmatlab-guide
p4554
Vmatlab
p4555
sVimage-manipulation
p4556
NsVmechanize
p4557
NsVcassandra
p4558
g4558
sVfilereader
p4559
Vjavascript
p4560
sVbezier
p4561
NsVcordova-3
p4562
NsVdouble-click
p4563
Vjavascript
p4564
sVperformance
p4565
g1039
sVmodulus
p4566
NsVchannel
p4567
NsVwindowbuilder
p4568
Vjava
p4569
sVtrace
p4570
NsVartificial-intelligence
p4571
g4571
sVazure-web-sites
p4572
NsVc99
p4573
NsVcorrelation
p4574
NsVlibsvm
p4575
NsVpair
p4576
NsVgeodjango
p4577
Vdjango
p4578
sVkendo-ui
p4579
NsVflat-file
p4580
NsVdurandal
p4581
Vknockout.js
p4582
sVwebbrowser-control
p4583
NsVjquery-hover
p4584
Vjquery
p4585
sVrating
p4586
NsVjquery-masonry
p4587
NsVshow
p4588
NsVandroid-menu
p4589
Vandroid
p4590
sVtridion-2011
p4591
NsVc#-2.0
p4592
NsVmac-address
p4593
NsVnunit
p4594
NsVmanaged-bean
p4595
NsVget
p4596
Vphp
p4597
sVstring-concatenation
p4598
g397
sVbatch-processing
p4599
g1825
sVgeo
p4600
NsVgem
p4601
NsVpdf-generation
p4602
NsVmedian
p4603
NsVxpages-ssjs
p4604
NsVyield
p4605
NsVsummary
p4606
g11
sVwiki
p4607
NsVkernel
p4608
g4608
sVfullcalendar
p4609
Vjquery
p4610
sVrelative
p4611
NsVseam
p4612
Vjava
p4613
sVcalendar
p4614
Vjava
p4615
sVandroid-animation
p4616
NsVlabel
p4617
NsVxtext
p4618
NsVios-provisioning
p4619
Vios
p4620
sVfusioncharts
p4621
Vjavascript
p4622
sVscreen
p4623
Vandroid
p4624
sVplupload
p4625
Vjquery
p4626
sVgoogle-cloud-storage
p4627
NsVparent
p4628
NsVparentheses
p4629
g57
sVmagento-1.4
p4630
Vmagento
p4631
sVmagento-1.5
p4632
NsVmagento-1.6
p4633
Vmagento
p4634
sVmagento-1.7
p4635
NsVaspect-ratio
p4636
Vandroid
p4637
sVphpmyadmin
p4638
NsVgooglebot
p4639
NsVfirewall
p4640
g4640
sVfine-uploader
p4641
Vjavascript
p4642
sVandroid-scrollview
p4643
NsVgit-pull
p4644
NsVeventmachine
p4645
NsVopentk
p4646
NsVcancel
p4647
Vandroid
p4648
sVaccess-denied
p4649
NsVencryption
p4650
g867
sVadfs
p4651
NsV.net-2.0
p4652
NsVproduction
p4653
Vruby-on-rails
p4654
sVpsexec
p4655
g1825
sVuser-accounts
p4656
NsVvisual-web-developer
p4657
Vasp.net
p4658
sVtraversal
p4659
NsVbmp
p4660
g981
sVembedded-resource
p4661
NsVdeclaration
p4662
Vc++
p4663
sVbayesian
p4664
g4664
sVencapsulation
p4665
NsVgoogle-chrome-app
p4666
g1848
sVapi-design
p4667
g2960
sVfluent-nhibernate
p4668
NsVprofiler
p4669
NsVmargin
p4670
Vcss
p4671
sVcq5
p4672
NsVvisual-studio-express
p4673
NsVwordnet
p4674
NsVidisposable
p4675
NsVsaml
p4676
g3080
sVgroup-by
p4677
NsVauthentication
p4678
NsVcode-analysis
p4679
NsVspeech
p4680
NsVarguments
p4681
NsVillegalstateexception
p4682
NsVocunit
p4683
Vunit-testing
p4684
sVthird-party
p4685
NsVhtml-encode
p4686
NsVemacs24
p4687
NsVcakephp-2.0
p4688
NsVcakephp-2.1
p4689
NsVcakephp-2.3
p4690
NsVsql-server-express
p4691
g224
sVwatin
p4692
NsVmarkup
p4693
NsVwatir
p4694
NsVbottle
p4695
NsVtabwidget
p4696
Vandroid
p4697
sVjava-web-start
p4698
NsVapplicationcontext
p4699
Vspring
p4700
sVjquery-ui-datepicker
p4701
NsVmoney
p4702
NsVjdom
p4703
NsVsitecore
p4704
NsVmarker
p4705
NsVdisplaytag
p4706
NsVautocad
p4707
g4707
sVsfinae
p4708
Vc++
p4709
sVgoogle-docs-api
p4710
NsVmoq
p4711
NsVone-to-many
p4712
NsVone-to-one
p4713
Vhibernate
p4714
sVgrid
p4715
NsVdatabase-schema
p4716
Vdatabase-design
p4717
sVcredentials
p4718
NsVweb2py
p4719
Vpython
p4720
sVavaudioplayer
p4721
NsVifstream
p4722
NsVanonymous-class
p4723
Vjava
p4724
sVunique-ptr
p4725
NsVnose
p4726
Vpython
p4727
sVnsimage
p4728
Vcocoa
p4729
sVfatal-error
p4730
NsVerase
p4731
NsVmatching
p4732
NsVconfirm
p4733
NsVkml
p4734
g507
sVinject
p4735
NsVandroid-imageview
p4736
NsVspell-checking
p4737
NsVcql
p4738
Vcassandra
p4739
sVxna
p4740
NsVandroid-2.3
p4741
Vandroid
p4742
sVandroid-2.2
p4743
Vandroid
p4744
sVdetailsview
p4745
NsVproduction-environment
p4746
NsVimage-gallery
p4747
NsVfloating-accuracy
p4748
NsVdatabase-partitioning
p4749
NsVmingw32
p4750
Vc++
p4751
sVstyling
p4752
NsVdecode
p4753
NsVlaravel-3
p4754
Vphp
p4755
sVlaravel-4
p4756
g4755
sVipv6
p4757
g4757
sVcluster-computing
p4758
Vjava
p4759
sVsvn
p4760
g4760
sVshoutcast
p4761
NsVcom-interop
p4762
NsVandroid-logcat
p4763
NsVconditional-operator
p4764
NsVself-join
p4765
NsVgorm
p4766
NsVsvg
p4767
NsVsystem.data.sqlite
p4768
Vandroid
p4769
sVembed
p4770
NsVdeadlock
p4771
Vmultithreading
p4772
sVmoles
p4773
Vunit-testing
p4774
sVnstextfield
p4775
NsVfile
p4776
NsVfacebook-javascript-sdk
p4777
NsVfill
p4778
NsVdrivers
p4779
NsVjpanel
p4780
Vjava
p4781
sVfield
p4782
NsVprism
p4783
NsVutf-8
p4784
NsVopacity
p4785
Vcss
p4786
sVdrawimage
p4787
NsVwindows-authentication
p4788
NsVvertex
p4789
Vopengl
p4790
sVansi
p4791
NsVdjango-cms
p4792
Vdjango
p4793
sVunit-of-work
p4794
NsVdropbox
p4795
NsVstr-replace
p4796
Vphp
p4797
sVconcat
p4798
NsVassets
p4799
Vandroid
p4800
sVnetlogo
p4801
NsVextjs-mvc
p4802
Vextjs
p4803
sVresolution
p4804
NsVreverse-proxy
p4805
g4805
sVtibco
p4806
NsVduplicates
p4807
NsVdrag-and-drop
p4808
Vjquery
p4809
sVapplication-pool
p4810
NsVfixtures
p4811
NsVchildren
p4812
NsVsystem.reflection
p4813
NsVplesk
p4814
Vphp
p4815
sVwsh
p4816
NsVjrubyonrails
p4817
NsVnsbundle
p4818
Vios
p4819
sVwss
p4820
NsVstderr
p4821
NsVnsobject
p4822
NsVgoogle-maps-api-3
p4823
NsVstripe-payments
p4824
Vruby-on-rails
p4825
sVbeagleboard
p4826
NsVzero
p4827
NsVurbanairship.com
p4828
NsVperspective
p4829
NsVplugins
p4830
g2891
sVpyodbc
p4831
Vpython
p4832
sVribbon
p4833
NsVcentering
p4834
Vcss
p4835
sVbrackets
p4836
Vphp
p4837
sVflash-builder
p4838
NsVpublic
p4839
NsVmovement
p4840
NsVvala
p4841
NsVmule
p4842
NsVfirebase
p4843
Vangularjs
p4844
sVmkannotation
p4845
NsVdirectshow
p4846
NsVjax-ws
p4847
Vjava
p4848
sVhtml-agility-pack
p4849
NsVeclipse-plugin
p4850
Veclipse
p4851
sVoledbconnection
p4852
NsVamazon-rds
p4853
NsVjruby
p4854
NsVfactory-pattern
p4855
Vdesign-patterns
p4856
sVcalculated-columns
p4857
NsVpretty-print
p4858
Vpython
p4859
sVremember-me
p4860
g3675
sVlinear-algebra
p4861
g4861
sVcomposite-primary-key
p4862
Vmysql
p4863
sVandroid-source
p4864
Vandroid
p4865
sVinterface-builder
p4866
NsVdistinct
p4867
NsVmicrosoft-dynamics
p4868
NsVface-detection
p4869
NsVlogcat
p4870
Vandroid
p4871
sVandroid-service
p4872
Vandroid
p4873
sVmozilla
p4874
Vjavascript
p4875
sVactionlistener
p4876
NsVjsonp
p4877
NsVandroid-broadcast
p4878
NsVpsql
p4879
NsVjdo
p4880
NsVsalesforce
p4881
g4881
sVjdk
p4882
NsVdes
p4883
g867
sVparagraph
p4884
Vhtml
p4885
sVopenssh
p4886
NsVjdt
p4887
NsVtail-recursion
p4888
g3551
sVcompare
p4889
Vjava
p4890
sVsynchronized
p4891
Vjava
p4892
sVshare
p4893
NsVcollision
p4894
Vjava
p4895
sVminimum
p4896
NsVnumbers
p4897
Vjava
p4898
sVjackrabbit
p4899
NsVcsh
p4900
NsVwindows-media-player
p4901
NsVmapi
p4902
NsVmaps
p4903
Vandroid
p4904
sVweb-controls
p4905
NsVmutable
p4906
g4116
sVcsv
p4907
NsVcss
p4908
g4908
sVconnectivity
p4909
Vandroid
p4910
sVmariadb
p4911
Vmysql
p4912
sVresponse
p4913
NsVpattern-matching
p4914
g57
sVonresume
p4915
NsVentry
p4916
NsVscrollto
p4917
NsVk-means
p4918
NsViis-express
p4919
NsVfacebook
p4920
NsVnltk
p4921
Vpython
p4922
sVautoload
p4923
Vphp
p4924
sVproducer-consumer
p4925
NsVapt-get
p4926
NsVforms-authentication
p4927
Vasp.net
p4928
sVmongodb-query
p4929
Vmongodb
p4930
sVasp.net-routing
p4931
NsVcombobox
p4932
NsVuitapgesturerecognizer
p4933
Vios
p4934
sVcontinuations
p4935
NsVpcm
p4936
Vaudio
p4937
sVviewstate
p4938
Vasp.net
p4939
sVplayframework
p4940
g1107
sVtimestamp
p4941
Vphp
p4942
sVframelayout
p4943
NsVcgcontext
p4944
Vios
p4945
sV2d
p4946
NsVtoken
p4947
Vphp
p4948
sVgoogle-search-api
p4949
NsVwindow.open
p4950
NsVjmeter
p4951
NsVlaunchd
p4952
NsVstored-procedures
p4953
g4953
sVfunctor
p4954
NsVcore-plot
p4955
Vios
p4956
sVconnect
p4957
NsVnewrelic
p4958
Vruby-on-rails
p4959
sVsencha
p4960
Vjavascript
p4961
sVtwitter4j
p4962
NsVsqlcommand
p4963
NsVdotnetnuke
p4964
NsVandroid-pendingintent
p4965
Vandroid
p4966
sVforeground
p4967
NsVcore-animation
p4968
Vios
p4969
sVsbt
p4970
NsVhashset
p4971
Vjava
p4972
sVnscalendar
p4973
g3176
sVmms
p4974
NsVlinq-to-objects
p4975
NsVgdal
p4976
Vpython
p4977
sVdiv-layouts
p4978
Vcss
p4979
sVyoutube-javascript-api
p4980
NsVwebforms
p4981
Vasp.net
p4982
sVwindows-runtime
p4983
NsVjogl
p4984
NsVdylib
p4985
NsVinternal-server-error
p4986
NsVrazor
p4987
NsVwss-3.0
p4988
NsVmamp
p4989
Vphp
p4990
sVjetty
p4991
Vjava
p4992
sVpaint
p4993
Vjava
p4994
sVstatement
p4995
NsVjquery-validation-engine
p4996
NsVnsjsonserialization
p4997
NsVjsonarray
p4998
Vjson
p4999
sVcross-browser
p5000
NsVselector
p5001
Vjquery
p5002
sVbubble-sort
p5003
NsVrecording
p5004
NsVuiapplicationdelegate
p5005
Vios
p5006
sVinteractive
p5007
Vpython
p5008
sVdebugging
p5009
g1132
sVfavicon
p5010
NsVsmart-pointers
p5011
Vc++
p5012
sVmonodroid
p5013
NsVvisual-c++-2010
p5014
Vc++
p5015
sVencryption-symmetric
p5016
NsVteechart
p5017
NsVjquery-datatables
p5018
Vjquery
p5019
sVopenshift
p5020
Vjava
p5021
sVfolders
p5022
NsVvnc
p5023
NsVlinq-to-xml
p5024
NsVcygwin
p5025
Vwindows
p5026
sVmoss
p5027
NsVsharding
p5028
Vmongodb
p5029
sVqthread
p5030
NsVkey-value
p5031
g170
sVandroid-canvas
p5032
Vandroid
p5033
sVhttphandler
p5034
NsVgoogle-tv
p5035
NsVnode.js
p5036
g5036
sVblueimp
p5037
Vjquery
p5038
sVrelation
p5039
Vdatabase
p5040
sVnetworkx
p5041
NsVfind
p5042
NsVbacktracking
p5043
NsVjsch
p5044
Vjava
p5045
sVbase-class
p5046
Vc++
p5047
sVdistributed
p5048
NsVbackbone-events
p5049
Vbackbone.js
p5050
sVasp.net-ajax
p5051
Vasp.net
p5052
sVemail-client
p5053
NsVtouchscreen
p5054
Vandroid
p5055
sVnotation
p5056
Vjava
p5057
sVsubsonic3
p5058
NsVexpress
p5059
Vnode.js
p5060
sVopensuse
p5061
Vlinux
p5062
sVandroid-loadermanager
p5063
NsVrestart
p5064
Vandroid
p5065
sVcontinuous-integration
p5066
NsVandroid-tabs
p5067
NsVmultilanguage
p5068
Vphp
p5069
sVphp-fpm
p5070
Vnginx
p5071
sVgit-push
p5072
NsVuser-interface
p5073
g5073
sVmove-semantics
p5074
NsVeclipse-juno
p5075
NsVgithooks
p5076
NsVuibutton
p5077
NsVms-access
p5078
g5078
sVpopup
p5079
NsVzedgraph
p5080
NsVcustom-attributes
p5081
NsVmoodle
p5082
NsVdesign-time
p5083
NsVipython
p5084
NsVosx-snow-leopard
p5085
g332
sVreverse
p5086
NsVif-statement
p5087
g1060
sVwebrick
p5088
NsVsilverlight-2.0
p5089
NsVpoint
p5090
Vjava
p5091
sVshutdown
p5092
Vjava
p5093
sVfuelphp
p5094
NsVbackend
p5095
NsVtestflight
p5096
NsVsingly-linked-list
p5097
g139
sVexternalinterface
p5098
NsVasp.net-mvc-routing
p5099
NsVdata-binding
p5100
Vwpf
p5101
sVncurses
p5102
NsVstandard-library
p5103
NsVgac
p5104
NsVcomparator
p5105
Vjava
p5106
sVcss-transform
p5107
NsVdeferred
p5108
Vjquery
p5109
sVblackberry-cascades
p5110
NsVclearcase
p5111
NsVaccountmanager
p5112
NsVvisual-sourcesafe
p5113
g1616
sVfacelets
p5114
Vjsf
p5115
sVpython-imaging-library
p5116
Vpython
p5117
sVuitableview
p5118
g3751
sVjquery-accordion
p5119
NsVhtml-entities
p5120
Vphp
p5121
sVupdatepanel
p5122
NsVpagemethods
p5123
NsVwebgl
p5124
g259
sVphonegap-plugins
p5125
NsVgoogle-visualization
p5126
NsVgeoserver
p5127
NsVews
p5128
NsVext.net
p5129
Vasp.net
p5130
sVpasswords
p5131
NsVdereference
p5132
NsVflurry
p5133
NsVaggregate
p5134
g11
sVscreen-capture
p5135
NsVandroid-softkeyboard
p5136
Vandroid
p5137
sVtask
p5138
NsVmemoization
p5139
NsVworkflow-activity
p5140
NsVflags
p5141
NsVorganization
p5142
Vphp
p5143
sVdistutils
p5144
Vpython
p5145
sVantlr
p5146
NsVshape
p5147
Vandroid
p5148
sVatomic
p5149
Vc++
p5150
sVphpbb
p5151
NsVopenstack
p5152
g5152
sValignment
p5153
Vcss
p5154
sVcut
p5155
Vbash
p5156
sVkeyevent
p5157
Vjava
p5158
sVreturn-type
p5159
NsVrestructuredtext
p5160
NsVkinect
p5161
NsVsource
p5162
Vandroid
p5163
sVrgb
p5164
Vandroid
p5165
sVexecutorservice
p5166
NsVxcodebuild
p5167
Vxcode
p5168
sVvarchar
p5169
NsVjcomponent
p5170
Vjava
p5171
sVspring-data-neo4j
p5172
NsVuiviewanimation
p5173
NsVbit
p5174
NsVreusability
p5175
Vandroid
p5176
sVsql-server-2012
p5177
g224
sVsurfaceview
p5178
Vandroid
p5179
sVautorotate
p5180
NsVmapkit
p5181
NsVbamboo
p5182
NsVbranching-and-merging
p5183
Vgit
p5184
sVclass-diagram
p5185
g113
sVdllimport
p5186
NsVback
p5187
Vandroid
p5188
sVdelegation
p5189
Vobjective-c
p5190
sVsimple-form
p5191
Vruby-on-rails
p5192
sVapc
p5193
Vphp
p5194
sVimageview
p5195
NsVsizeof
p5196
g139
sVuipagecontrol
p5197
NsVnsurlconnection
p5198
NsVscale
p5199
NsVscala
p5200
g5200
sVsaas
p5201
NsVintegration
p5202
Vjava
p5203
sVrobotium
p5204
Vandroid
p5205
sVellipsis
p5206
Vcss
p5207
sVnotepad++
p5208
g57
sVexport-to-excel
p5209
NsVgit-submodules
p5210
NsVcastle-windsor
p5211
NsVfacebook-fanpage
p5212
NsVwsdl
p5213
g5213
sVreadability
p5214
NsVusb
p5215
g5215
sVhudson
p5216
NsVtiff
p5217
NsVframes
p5218
NsVbindingsource
p5219
NsVfindcontrol
p5220
NsVhudson-plugins
p5221
NsVopenerp
p5222
Vpython
p5223
sVdynamics-ax-2009
p5224
NsVforward
p5225
g5225
sVtranslate
p5226
Vandroid
p5227
sVc#-5.0
p5228
NsVnavigation-drawer
p5229
Vandroid
p5230
sVswingworker
p5231
NsVsdl
p5232
NsVsdk
p5233
NsVgroovy
p5234
g5234
sVgstreamer
p5235
NsVjavascript-objects
p5236
NsVlabview
p5237
NsVrubymotion
p5238
Vios
p5239
sVquickfix
p5240
NsVbusiness-intelligence
p5241
g5241
sVoauth-2.0
p5242
NsVcurl
p5243
Vphp
p5244
sVuser-experience
p5245
Vuser-interface
p5246
sVcmake
p5247
NsVigraph
p5248
NsVslick2d
p5249
NsVllvm
p5250
NsVillegalargumentexception
p5251
NsVvisibility
p5252
Vandroid
p5253
sVdrupal-views
p5254
Vdrupal
p5255
sVsudoku
p5256
Vjava
p5257
sVntfs
p5258
Vwindows
p5259
sVsystem-calls
p5260
g15
sVcreatefile
p5261
NsVsftp
p5262
Vftp
p5263
sVnaming-conventions
p5264
NsVxstream
p5265
Vjava
p5266
sVhittest
p5267
g602
sVpattern-recognition
p5268
g5268
sVnsxmlparser
p5269
NsVjava-2d
p5270
Vjava
p5271
sVasp.net-identity
p5272
NsVkeep-alive
p5273
g3615
sVdatabase-migration
p5274
NsVtree-traversal
p5275
g237
sVcss3pie
p5276
NsVistream
p5277
Vc++
p5278
sVlabels
p5279
NsVvlc
p5280
NsVlocal-storage
p5281
NsVloadlibrary
p5282
NsVversioning
p5283
NsVelisp
p5284
NsVcrop
p5285
g981
sVcron
p5286
g5286
sVsmlnj
p5287
NsVinsertion
p5288
NsVappend
p5289
Vjquery
p5290
sVappendchild
p5291
Vjavascript
p5292
sVd2
p5293
NsVpipes
p5294
NsVjboss
p5295
g5295
sVuser-controls
p5296
NsVclipboard
p5297
NsVmathjax
p5298
Vjavascript
p5299
sVcordova
p5300
NsVmagento-admin
p5301
NsVbinary-search-tree
p5302
Vc++
p5303
sVtext-files
p5304
NsVxml-deserialization
p5305
NsVspacing
p5306
NsVimplicit
p5307
NsVc++-cli
p5308
Vc++
p5309
sVdoctrine2
p5310
g303
sVcomposite-key
p5311
Vhibernate
p5312
sVuicollectionview
p5313
Vios
p5314
sVxdocument
p5315
NsVnsoperation
p5316
NsVtalend
p5317
Vjava
p5318
sVphone-number
p5319
Vandroid
p5320
sVprivate
p5321
Vc++
p5322
sVnth-child
p5323
Vcss
p5324
sVnames
p5325
g11
sVgateway
p5326
NsVprogress-4gl
p5327
NsVchm
p5328
NsVpowershell-remoting
p5329
Vpowershell
p5330
sViis
p5331
g5331
sVcakephp-1.3
p5332
g2906
sVcakephp-1.2
p5333
g2906
sVsetup.py
p5334
Vpython
p5335
sVsubscription
p5336
NsVaccount
p5337
NsVopenjdk
p5338
Vjava
p5339
sVfetch
p5340
Vphp
p5341
sVunobtrusive-validation
p5342
NsVsqlite
p5343
g4769
sVparser-generator
p5344
g4293
sVnative
p5345
NsVgcc
p5346
NsVfilepath
p5347
Vjava
p5348
sVboxing
p5349
NsVgcm
p5350
NsVprestashop
p5351
Vphp
p5352
sVlamp
p5353
g5353
sVattachment
p5354
NsVuinavigationcontroller
p5355
NsVprofile
p5356
Vasp.net
p5357
sVjquery-ui-sortable
p5358
Vjquery
p5359
sVgoogle-drive-sdk
p5360
NsVmultiplication
p5361
NsVbind
p5362
NsVbing
p5363
NsVlines
p5364
NsVgitolite
p5365
NsVmustache
p5366
Vjavascript
p5367
sVjira
p5368
g5368
sVdoctrine-1.2
p5369
NsVsymbols
p5370
Vc++
p5371
sVhbase
p5372
g5372
sVgalaxy
p5373
Vandroid
p5374
sVld
p5375
NsVtext-parsing
p5376
g4293
sVls
p5377
Vbash
p5378
sVandroid-fragmentactivity
p5379
Vandroid
p5380
sVyeoman
p5381
g3032
sVcode-signing
p5382
NsVdomdocument
p5383
Vphp
p5384
sVdao
p5385
NsVautorelease
p5386
Vobjective-c
p5387
sVactionbarsherlock
p5388
Vandroid
p5389
sVjsf-1.2
p5390
Vjsf
p5391
sVdbus
p5392
Vpython
p5393
sVscrollbar
p5394
Vcss
p5395
sVpolymorphic-associations
p5396
Vruby-on-rails
p5397
sVidentifier
p5398
NsVjquery-file-upload
p5399
NsValphablending
p5400
NsVdatabase-project
p5401
NsVstrip
p5402
NsVmsdn
p5403
NsVflex-mobile
p5404
NsVopenni
p5405
NsVxml-validation
p5406
NsVssas
p5407
NsVstub
p5408
NsVspring-mvc
p5409
Vspring
p5410
sVref
p5411
NsVmath
p5412
NsVsafari-extension
p5413
NsVworkflow
p5414
Vsharepoint
p5415
sV.net-assembly
p5416
NsVtrigger.io
p5417
NsVwcf-web-api
p5418
Vwcf
p5419
sVfirefox-addon
p5420
NsVlaravel
p5421
g4755
sVinteraction
p5422
NsVindent
p5423
NsVmidi
p5424
NsVnavbar
p5425
NsVsms-gateway
p5426
NsVcname
p5427
NsVelasticsearch
p5428
NsVzend-form
p5429
Vphp
p5430
sVretain
p5431
Vobjective-c
p5432
sVmidp
p5433
NsVjcheckbox
p5434
Vjava
p5435
sVsencha-touch-2
p5436
NsVkeyboard-shortcuts
p5437
NsVsmartcard
p5438
NsVandroid-view
p5439
Vandroid
p5440
sVhtml5boilerplate
p5441
NsVpuppet
p5442
g5442
sVsockets
p5443
NsVright-click
p5444
NsVepplus
p5445
NsVscanf
p5446
g139
sVibaction
p5447
Vios
p5448
sVcarrierwave
p5449
NsVmybatis
p5450
Vjava
p5451
sVwebdeploy
p5452
NsVipv4
p5453
Vipv6
p5454
sVflume
p5455
Vhadoop
p5456
sVudp
p5457
NsVmemorystream
p5458
NsVdynamic-programming
p5459
g5459
sVperforce
p5460
NsVcomposite-component
p5461
NsVjndi
p5462
NsVstrongly-typed-dataset
p5463
NsVlinkbutton
p5464
NsVwhile-loop
p5465
NsVtextfield
p5466
NsVandroid-gridview
p5467
NsVipad
p5468
NsVnetwork-programming
p5469
NsVpointers
p5470
Vc++
p5471
sVphp-mail
p5472
NsVcompass-css
p5473
NsVvirtual-directory
p5474
Viis
p5475
sVplaintext
p5476
Vphp
p5477
sVexcel-vba
p5478
NsVparamiko
p5479
NsVtemplate-engine
p5480
NsVmin
p5481
NsVuisplitviewcontroller
p5482
NsVgravity
p5483
Vandroid
p5484
sVworksheet-function
p5485
NsVjaas
p5486
Vjava
p5487
sVmod-python
p5488
NsVwpfdatagrid
p5489
NsVspecflow
p5490
NsVoozie
p5491
NsVpayment
p5492
g203
sVbaseadapter
p5493
Vandroid
p5494
sVrequest
p5495
NsVreachability
p5496
Vios
p5497
sVworkspace
p5498
Veclipse
p5499
sVdllexport
p5500
NsVselection
p5501
NsVbrute-force
p5502
NsVpolynomial-math
p5503
NsVtext
p5504
NsVsetter
p5505
NsVserial-port
p5506
NsVxmlwriter
p5507
NsVcontrols
p5508
NsVhttp-redirect
p5509
NsVksh
p5510
NsVuitabbar
p5511
Vios
p5512
sVjquery-ui-droppable
p5513
Vjquery
p5514
sVcsrf
p5515
Vsecurity
p5516
sVtiming
p5517
Vjavascript
p5518
sVnetsuite
p5519
Vphp
p5520
sVlotus-domino
p5521
NsVfixed
p5522
Vcss
p5523
sVdreamhost
p5524
Vruby-on-rails
p5525
sVexists
p5526
NsVdatalist
p5527
NsVsubreport
p5528
NsVracket
p5529
Vscheme
p5530
sVjni
p5531
NsVuialertview
p5532
NsVxcode3.2
p5533
Vxcode
p5534
sVsoapui
p5535
Vsoap
p5536
sVprogress
p5537
NsVad-hoc-distribution
p5538
Vios
p5539
sVjquery-ui-accordion
p5540
NsVcmd.exe
p5541
NsVtranspose
p5542
NsVtkinter
p5543
Vpython
p5544
sVwpftoolkit
p5545
Vwpf
p5546
sVioexception
p5547
Vjava
p5548
sVattributes
p5549
NsVssrs-reports
p5550
NsVgnu-screen
p5551
NsVphonegap-build
p5552
NsVwebsphere-mq
p5553
Vjava
p5554
sVcompile-time
p5555
NsVscientific-computing
p5556
Vpython
p5557
sVrdbms
p5558
Vdatabase
p5559
sVjson
p5560
g5560
sVhttpconnection
p5561
Vjava
p5562
sVuidatepicker
p5563
NsVlistboxitem
p5564
NsVevent-bubbling
p5565
Vjquery
p5566
sVpicturebox
p5567
NsVassert
p5568
NsVnested-loops
p5569
NsVcypher
p5570
NsVfault
p5571
Vwcf
p5572
sVboost-serialization
p5573
NsVintellisense
p5574
NsVdatacontext
p5575
NsVcherrypy
p5576
NsVsquid
p5577
g5577
sVlinkedin
p5578
NsVarabic
p5579
Vandroid
p5580
sVregression
p5581
g5581
sVcjk
p5582
Vpython
p5583
sVproductivity
p5584
NsVjsf-2.2
p5585
Vjsf
p5586
sVadministration
p5587
NsVremote-server
p5588
Vphp
p5589
sVgoogle-adwords
p5590
NsVmousewheel
p5591
NsVmyfaces
p5592
NsVreporting
p5593
NsVcode-organization
p5594
NsVdealloc
p5595
Vobjective-c
p5596
sVjboss-arquillian
p5597
NsVsetcookie
p5598
NsVcodemirror
p5599
Vjavascript
p5600
sVcenter
p5601
Vcss
p5602
sVbuilder
p5603
Vflash
p5604
sVposition
p5605
NsVparallel-processing
p5606
Vmultithreading
p5607
sVwsimport
p5608
NsVsubtraction
p5609
NsVmultiple-tables
p5610
Vmysql
p5611
sVproximity
p5612
NsVunordered-map
p5613
NsVabap
p5614
NsVtoggleclass
p5615
NsVxml-serialization
p5616
NsVwmi-query
p5617
NsVintrospection
p5618
Vpython
p5619
sVadt
p5620
NsVads
p5621
Vandroid
p5622
sVpython-module
p5623
Vpython
p5624
sVadf
p5625
NsVadd
p5626
NsVadb
p5627
NsVada
p5628
NsVado
p5629
NsVgmp
p5630
Vc++
p5631
sVvisual-studio-lightswitch
p5632
NsVmatch
p5633
NsVc#-3.0
p5634
NsVandroid-location
p5635
NsVmessage-queue
p5636
NsVtouch-event
p5637
Vandroid
p5638
sVdeployment
p5639
Vjava
p5640
sVinsert
p5641
Vmysql
p5642
sVlike
p5643
NsVpayment-processing
p5644
NsVmobile-phones
p5645
NsVboost-spirit
p5646
NsVandroid-mapview
p5647
NsVcrawler
p5648
NsVpropel
p5649
NsVmschart
p5650
NsVpolyline
p5651
NsVrubymine
p5652
NsVboost-thread
p5653
NsVpaypal-adaptive-payments
p5654
NsVcllocation
p5655
NsVhighlighting
p5656
NsVstatic-variables
p5657
Vc++
p5658
sVesb
p5659
NsVfacebook-login
p5660
NsVtimertask
p5661
NsVmode
p5662
Vandroid
p5663
sVat-command
p5664
NsVnoise
p5665
NsVbar-chart
p5666
g115
sVhost
p5667
NsVpanel
p5668
NsVdatareader
p5669
NsVglade
p5670
NsVguice
p5671
NsVpowerpoint
p5672
NsVfacebook-oauth
p5673
NsVsocks
p5674
Vproxy
p5675
sVdataset
p5676
NsVguard
p5677
NsVrenderer
p5678
Vjava
p5679
sVrcp
p5680
NsVandroid-spinner
p5681
NsVglib
p5682
NsVrepeater
p5683
Vasp.net
p5684
sVsequel
p5685
NsVpy.test
p5686
Vpython
p5687
sVantlr3
p5688
NsVantlr4
p5689
NsVoauth
p5690
Vphp
p5691
sVediting
p5692
NsVscrollable
p5693
Vjquery
p5694
sVweb-scraping
p5695
NsVvariadic-templates
p5696
NsVlync
p5697
NsVflip
p5698
Vjquery
p5699
sVstring-parsing
p5700
g397
sVblackberry-10
p5701
NsVdatepicker
p5702
NsVandroid-tabhost
p5703
Vandroid
p5704
sVinternals
p5705
NsVpid
p5706
NsVpig
p5707
NsVmime-types
p5708
NsVpip
p5709
NsVupnp
p5710
NsVresharper
p5711
NsVretina-display
p5712
NsVsubsonic
p5713
NsVspring-ws
p5714
Vjava
p5715
sVbundle
p5716
Vandroid
p5717
sVinputstream
p5718
NsVreadline
p5719
NsVbing-maps
p5720
NsVextjs
p5721
g5721
sVstatusbar
p5722
NsVsharepoint-designer
p5723
NsVpythonpath
p5724
NsVfloating-point-precision
p5725
NsVweb-browser
p5726
NsVnsdate
p5727
g3176
sVsleep
p5728
NsVnsdata
p5729
Vios
p5730
sVios4.3
p5731
NsVtween
p5732
g602
sVquicktime
p5733
NsVtostring
p5734
Vjava
p5735
sVprepared-statement
p5736
Vphp
p5737
sVopen-source
p5738
Vjava
p5739
sVdjango-tastypie
p5740
Vdjango
p5741
sVnstableview
p5742
NsVruntime.exec
p5743
Vjava
p5744
sVnetbeans
p5745
g5745
sVguidelines
p5746
NsVmultiple-databases
p5747
Vmysql
p5748
sVcustom-view
p5749
Vandroid
p5750
sVkivy
p5751
Vpython
p5752
sVexpressions
p5753
NsVboost-python
p5754
NsVhide
p5755
Vjquery
p5756
sVselected
p5757
Vjquery
p5758
sVtablelayout
p5759
Vandroid
p5760
sVblur
p5761
Vjquery
p5762
sVgyroscope
p5763
NsVcode-contracts
p5764
NsVnslog
p5765
Vobjective-c
p5766
sVdelegates
p5767
NsVandroid-networking
p5768
Vandroid
p5769
sVpath
p5770
Vjava
p5771
sVforward-declaration
p5772
Vc++
p5773
sVdigits
p5774
NsVdistributed-computing
p5775
NsVforum
p5776
NsVoracle9i
p5777
NsVgoogle-plus
p5778
NsVvisible
p5779
Vjquery
p5780
sVproject-management
p5781
NsVmysqldump
p5782
NsVprintf
p5783
g15
sVjoomla1.7
p5784
NsVscaffolding
p5785
NsVswingx
p5786
NsVtail
p5787
Vbash
p5788
sVback-button
p5789
NsVpreview
p5790
NsVannotations
p5791
NsVvps
p5792
g5792
sVphone
p5793
NsVreal-time
p5794
NsVvpn
p5795
g5795
sVjoin
p5796
Vmysql
p5797
sVwowza
p5798
NsVml
p5799
NsVhas-many-through
p5800
NsVrails-engines
p5801
Vruby-on-rails
p5802
sVcompiler-optimization
p5803
NsVnine-patch
p5804
Vandroid
p5805
sVmq
p5806
g5554
sVinstall
p5807
NsVeager-loading
p5808
Vruby-on-rails
p5809
sVcruisecontrol.net
p5810
NsVcaptcha
p5811
Vphp
p5812
sVavplayer
p5813
NsVfile-conversion
p5814
NsVscheduling
p5815
NsVxdebug
p5816
NsVlinker-error
p5817
Vc++
p5818
sVvertical-alignment
p5819
NsVvagrant
p5820
NsV.net-3.5
p5821
NsVnusoap
p5822
NsVgdata-api
p5823
NsVx509
p5824
NsVyesod
p5825
Vhaskell
p5826
sVyii-extensions
p5827
NsVibm-midrange
p5828
NsVmesh
p5829
NsVyql
p5830
NsVbootstrap
p5831
g5831
sVe-commerce
p5832
Vphp
p5833
sVenter
p5834
Vjavascript
p5835
sVfrontend
p5836
NsVjpeg
p5837
g981
sVsyntax-error
p5838
NsVdijkstra
p5839
Valgorithm
p5840
sVweblogic11g
p5841
g3125
sVrestful-architecture
p5842
NsVsendkeys
p5843
NsVtextbox
p5844
NsVappstore-approval
p5845
NsVime
p5846
Vandroid
p5847
sVcli
p5848
NsVemail-attachments
p5849
g695
sVfwrite
p5850
Vphp
p5851
sVfade
p5852
Vjquery
p5853
sVchromecast
p5854
NsVclr
p5855
NsVjava-util-scanner
p5856
Vjava
p5857
sVindexeddb
p5858
Vjavascript
p5859
sVfonts
p5860
NsVodbc
p5861
NsVexplode
p5862
NsVhql
p5863
NsVeach
p5864
NsVorchardcms
p5865
NsVgprs
p5866
Vandroid
p5867
sVsigning
p5868
Vandroid
p5869
sVinterop
p5870
NsVsemantic-web
p5871
NsVhandlebars.js
p5872
NsVrule-engine
p5873
NsVghci
p5874
Vhaskell
p5875
sVtype-erasure
p5876
NsVfree
p5877
NsVgoogle-maps-api-2
p5878
NsVrestful-url
p5879
Vrest
p5880
sVacrobat
p5881
NsVscala-2.10
p5882
NsVactiverecord
p5883
NsVopenssl
p5884
NsVfilter
p5885
Vjquery
p5886
sVextjs4.2
p5887
NsVextjs4.1
p5888
NsVazure-mobile-services
p5889
NsVglsl
p5890
NsVwpf-4.0
p5891
Vwpf
p5892
sVrank
p5893
NsVwoocommerce
p5894
NsVjava-7
p5895
Vjava
p5896
sVjava-6
p5897
Vjava
p5898
sVjava-8
p5899
Vjava
p5900
sVandroid-theme
p5901
NsVbatch-file
p5902
g1825
sVcstring
p5903
Vc++
p5904
sVbitcoin
p5905
Vphp
p5906
sVpercentage
p5907
NsVknockout-validation
p5908
NsVoracle-sqldeveloper
p5909
NsVmulti-touch
p5910
Vandroid
p5911
sVapi-key
p5912
Vandroid
p5913
sVhttp-headers
p5914
Vphp
p5915
sVroles
p5916
Vasp.net
p5917
sVandroid-3.0
p5918
NsVzend-framework
p5919
g5430
sVkernel-module
p5920
NsVpage-refresh
p5921
NsVrad
p5922
NsVram
p5923
NsVcloudfoundry
p5924
NsVplpgsql
p5925
Vpostgresql
p5926
sVconfigure
p5927
NsVhigh-availability
p5928
Vjava
p5929
sVclient
p5930
Vjava
p5931
sVsbcl
p5932
NsVxfbml
p5933
NsVqooxdoo
p5934
Vjavascript
p5935
sVglob
p5936
NsVsharekit
p5937
NsVbsd
p5938
NsVmouseleave
p5939
Vjquery
p5940
sVpaintcomponent
p5941
Vjava
p5942
sVclassloader
p5943
NsVflow
p5944
NsVjquery-ui-slider
p5945
NsVflot
p5946
Vjquery
p5947
sVenterprise
p5948
Vios
p5949
sVscreensaver
p5950
NsVxampp
p5951
Vphp
p5952
sVrandom
p5953
Vjava
p5954
sVmediawiki
p5955
Vphp
p5956
sVcolors
p5957
g5165
sVradio
p5958
NsVqstring
p5959
g297
sVprettyphoto
p5960
Vjquery
p5961
sVpki
p5962
Vjava
p5963
sVoci
p5964
NsVjava-ee-6
p5965
NsVhttp-status-code-302
p5966
NsVocr
p5967
NsVelmah
p5968
Vasp.net
p5969
sVfactory-girl
p5970
NsVwatch
p5971
NsVfluid
p5972
NsVc3p0
p5973
NsVpop3
p5974
NsVamazon
p5975
NsVfadein
p5976
NsVreport
p5977
NsVcouchbase
p5978
NsVbulkinsert
p5979
g224
sVcruisecontrol
p5980
NsVclickonce
p5981
NsVisolation-level
p5982
NsVwpf-controls
p5983
Vwpf
p5984
sVpseudo-class
p5985
NsVjquery-plugins
p5986
Vjquery
p5987
sVdetection
p5988
NsVhash
p5989
NsVcgaffinetransform
p5990
NsVload-testing
p5991
NsVactionlink
p5992
NsVurllib
p5993
Vpython
p5994
sVcompilation
p5995
NsVvisualization
p5996
g5996
sVaccess-modifiers
p5997
NsVonkeydown
p5998
NsVhtml5
p5999
NsVssrs-2008
p6000
NsVgdi+
p6001
NsVtemplate-meta-programming
p6002
NsVcredit-card
p6003
NsVfacet
p6004
NsVhttp-get
p6005
NsVwtforms
p6006
Vpython
p6007
sVeaseljs
p6008
NsVmaster-pages
p6009
Vasp.net
p6010
sVchar-array
p6011
g139
sVflexslider
p6012
Vjquery
p6013
sVimage-uploading
p6014
Vphp
p6015
sVcrystal-reports-xi
p6016
NsVcontainers
p6017
NsVsprite
p6018
NsVsearch
p6019
g6019
sVcore-data-migration
p6020
NsVlook-and-feel
p6021
Vjava
p6022
sVqueryover
p6023
NsVdashboard
p6024
Vjavascript
p6025
sVexchangewebservices
p6026
NsVprocedure
p6027
NsVhas-many
p6028
Vruby-on-rails
p6029
sVpyramid
p6030
NsVslideup
p6031
Vjquery
p6032
sVpharo
p6033
NsVhttprequest
p6034
Vjava
p6035
sVcgimage
p6036
Vios
p6037
sVrecursion
p6038
g3551
sVfxml
p6039
NsVcss-float
p6040
Vcss
p6041
sVenvironment-variables
p6042
NsVmoose
p6043
NsVinstrumentation
p6044
NsVnumerical
p6045
Vc++
p6046
sVwordpress-loop
p6047
Vwordpress
p6048
sVsymfony-1.4
p6049
Vphp
p6050
sVportal
p6051
NsVnormalization
p6052
NsVcycle
p6053
NsVjframe
p6054
NsVfbconnect
p6055
NsVuploading
p6056
NsVandroid-support-library
p6057
Vandroid
p6058
sVtestng
p6059
NsVbugzilla
p6060
Vperl
p6061
sVremoting
p6062
V.net
p6063
sVglsurfaceview
p6064
Vandroid
p6065
sVmemory-address
p6066
NsVelf
p6067
NsVdataprovider
p6068
NsVcasting
p6069
NsVjailbreak
p6070
Vios
p6071
sVrecaptcha
p6072
Vphp
p6073
sVconsole-application
p6074
NsV960.gs
p6075
Vcss
p6076
sVdelphi-xe
p6077
NsVseekbar
p6078
NsVzoom
p6079
NsVgoogle-search
p6080
NsVbpm
p6081
NsVtexture-mapping
p6082
Vopengl
p6083
sVjunit4
p6084
NsVauto-increment
p6085
Vmysql
p6086
sVrollover
p6087
NsVdataframes
p6088
NsVrhino
p6089
Vjavascript
p6090
sVwampserver
p6091
Vphp
p6092
sVlistitem
p6093
Vandroid
p6094
sVarmv7
p6095
Vios
p6096
sVandroid-4.2
p6097
NsVandroid-4.0
p6098
NsVicu
p6099
Vc++
p6100
sVandroid-4.4
p6101
NsVcore
p6102
Vjava
p6103
sVquaternion
p6104
NsVcors
p6105
Vjavascript
p6106
sVdelphi-xe4
p6107
Vdelphi
p6108
sVdelphi-xe5
p6109
NsVspring-annotations
p6110
Vspring
p6111
sVlightbox
p6112
NsVontouchlistener
p6113
NsVmod-perl
p6114
NsVdelphi-xe3
p6115
NsVruntime
p6116
NsVprimitive
p6117
Vjava
p6118
sVjavac
p6119
NsVpuzzle
p6120
NsVmodalviewcontroller
p6121
NsV32-bit
p6122
NsVgis
p6123
NsVtransform
p6124
NsVgif
p6125
NsVtfs2008
p6126
NsVhead
p6127
Vhtml
p6128
sVwireless
p6129
g6129
sVsubclassing
p6130
Vobjective-c
p6131
sVapache-poi
p6132
NsVheap
p6133
Vjava
p6134
sVselenium2
p6135
NsVandroid-linearlayout
p6136
NsVfosuserbundle
p6137
g303
sVattr
p6138
Vjquery
p6139
sVjtextpane
p6140
NsVdevexpress
p6141
NsVbids
p6142
Vssis
p6143
sVfilepicker.io
p6144
NsVpaging
p6145
NsVautoconf
p6146
NsVtrigonometry
p6147
NsVtrim
p6148
NsVobfuscation
p6149
Vjava
p6150
sVoutlook-2007
p6151
NsVtrie
p6152
NsVdecrypt
p6153
Vjava
p6154
sVwinsock2
p6155
NsVhaml
p6156
NsVcheck
p6157
NsV7zip
p6158
NsVwebos
p6159
NsVreadonly
p6160
NsVpymongo
p6161
NsVtoad
p6162
NsVjaxb
p6163
NsVwebserver
p6164
Vphp
p6165
sVbackbone-routing
p6166
Vbackbone.js
p6167
sVsql
p6168
g6168
sVbitbucket
p6169
NsVhibernate-search
p6170
Vhibernate
p6171
sViterator
p6172
Vc++
p6173
sVrails-migrations
p6174
Vruby-on-rails
p6175
sVfocus
p6176
NsVext-gwt
p6177
NsVgraphing
p6178
NsVdate-formatting
p6179
NsVguava
p6180
Vjava
p6181
sVimage-resizing
p6182
NsVinline-block
p6183
NsVenvironment
p6184
NsVstrategy-pattern
p6185
Vdesign-patterns
p6186
sVexcel-formula
p6187
NsVnesting
p6188
Vcss
p6189
sVubuntu-11.10
p6190
Vubuntu
p6191
sVgoogle-earth-plugin
p6192
g507
sVposts
p6193
Vwordpress
p6194
sVstandards
p6195
Vc++
p6196
sVnhibernate-mapping
p6197
NsVpmd
p6198
Vjava
p6199
sVaptana
p6200
NsVuiscrollview
p6201
NsVpinvoke
p6202
NsVport
p6203
NsVcorba
p6204
Vjava
p6205
sV64bit
p6206
NsVbeautifulsoup
p6207
Vpython
p6208
sVajax4jsf
p6209
Vjsf
p6210
sVwindows-server-2012
p6211
NsVwcf-client
p6212
NsVduplicate-data
p6213
Vmysql
p6214
sVbrowser-detection
p6215
NsVtoolbar
p6216
NsVinotify
p6217
Vlinux
p6218
sVheredoc
p6219
NsVdelimiter
p6220
Vjava
p6221
sVquickblox
p6222
NsVuilocalnotification
p6223
Vios
p6224
sVstatic-methods
p6225
Vjava
p6226
sVnavigation
p6227
NsVconvolution
p6228
NsVpriority-queue
p6229
NsVhandler
p6230
NsVjquery-autocomplete
p6231
Vjquery
p6232
sViphone
p6233
NsVmsi
p6234
NsVcriteria
p6235
Vhibernate
p6236
sVexpressionengine
p6237
Vphp
p6238
sVudpclient
p6239
NsVnettcpbinding
p6240
Vwcf
p6241
sVsoap-client
p6242
Vphp
p6243
sVfacebook-iframe
p6244
NsVdhtml
p6245
NsVembedded-database
p6246
NsVwinforms
p6247
NsVnsmutablearray
p6248
NsVpickle
p6249
Vpython
p6250
sVusability
p6251
Vuser-interface
p6252
sVbouncycastle
p6253
NsVfigure
p6254
Vmatlab
p6255
sVnexus
p6256
NsVbackslash
p6257
Vphp
p6258
sVgoogle-chrome-extension
p6259
NsVcounting
p6260
NsVrequirements
p6261
NsVinheritance
p6262
NsVweblogic-10.x
p6263
Vjava
p6264
sVeloquent
p6265
g4755
sVtic-tac-toe
p6266
Vjava
p6267
sVxulrunner
p6268
NsVapple-push-notifications
p6269
NsVclone
p6270
NsVzend-route
p6271
g5430
sVghostscript
p6272
NsVdynamic-arrays
p6273
NsVliquid
p6274
NsVstructuremap
p6275
NsVtypeahead.js
p6276
NsVrecordset
p6277
NsVblackberry-webworks
p6278
NsVsession-state
p6279
NsVdefault-value
p6280
NsVvtk
p6281
Vc++
p6282
sVgtk
p6283
NsVcoordinates
p6284
Vandroid
p6285
sVplatform
p6286
Vandroid
p6287
sVuitabbarcontroller
p6288
NsVpermissions
p6289
g633
sVexecute
p6290
NsVequality
p6291
NsVtridion
p6292
NsVopera
p6293
Vjavascript
p6294
sVrandom-forest
p6295
g6295
sVejabberd
p6296
NsVmysql2
p6297
NsVlistadapter
p6298
Vandroid
p6299
sVpublic-key-encryption
p6300
g867
sVjquery-isotope
p6301
Vjquery
p6302
sVdigital-signature
p6303
NsVwinjs
p6304
NsVfactory
p6305
NsVejb
p6306
NsVparallax
p6307
NsVbarcode-scanner
p6308
NsVuikeyboard
p6309
Vios
p6310
sVejs
p6311
NsVhttp-referer
p6312
NsVtheory
p6313
Valgorithm
p6314
sVvariant
p6315
Vc++
p6316
sVgit
p6317
g6317
sVmarionette
p6318
NsVmysqli
p6319
NsVdispatcher
p6320
Vwpf
p6321
sVraster
p6322
g11
sVdatabase-normalization
p6323
Vdatabase
p6324
sVsession-variables
p6325
NsVyuv
p6326
g5165
sVyui
p6327
NsVlockscreen
p6328
NsVyum
p6329
Vlinux
p6330
sVswing
p6331
g6331
sVtelerik-mvc
p6332
NsVview
p6333
NsVwindows-explorer
p6334
Vwindows
p6335
sVredhat
p6336
g6336
sVironruby
p6337
NsVpseudocode
p6338
NsVclient-side
p6339
Vjavascript
p6340
sVmodulo
p6341
NsVios5
p6342
NsVios4
p6343
NsVios7
p6344
NsVios6
p6345
NsViad
p6346
NsVappcelerator
p6347
g88
sVmonkeypatching
p6348
NsVsilverlight-toolkit
p6349
NsVcontactscontract
p6350
Vandroid
p6351
sVpyqt4
p6352
Vpython
p6353
sVquery-builder
p6354
g303
sVpragma
p6355
NsVctags
p6356
NsVcopy
p6357
NsVfindbugs
p6358
NsVrequire
p6359
Vphp
p6360
sVr
p6361
g6361
sVposix
p6362
g139
sVeclipse-plugin-dev
p6363
NsVant
p6364
g6364
sVjquery-selectors
p6365
NsVsharepoint-2007
p6366
Vsharepoint
p6367
sVanimation
p6368
Vandroid
p6369
sVxtragrid
p6370
NsVsurf
p6371
g2368
sVmeta-tags
p6372
NsVinternet-explorer-9
p6373
Vjavascript
p6374
sVinternet-explorer-8
p6375
Vjavascript
p6376
sVtornado
p6377
NsVinternet-explorer-7
p6378
Vcss
p6379
sVinternet-explorer-6
p6380
Vcss
p6381
sVc#-4.0
p6382
NsVsoftware-engineering
p6383
g6383
sVwhere-clause
p6384
NsVraytracing
p6385
NsVdojox
p6386
g126
sVselenium-grid
p6387
NsVkey-bindings
p6388
NsVzend-db
p6389
NsVuitextfield
p6390
Vios
p6391
sVgoogle-cloud-messaging
p6392
NsVnlp
p6393
g6393
sVnspredicate
p6394
NsVpermission-denied
p6395
Vphp
p6396
sVdatagrid
p6397
NsVmonads
p6398
Vhaskell
p6399
sVspaces
p6400
NsVmarkerclusterer
p6401
NsVhack
p6402
NsVdll
p6403
NsVmacros
p6404
NsVjsoup
p6405
Vjava
p6406
sV32bit-64bit
p6407
NsVactionview
p6408
Vruby-on-rails
p6409
sVreset
p6410
Vjquery
p6411
sVquery-string
p6412
NsVmongoengine
p6413
Vmongodb
p6414
sVssl
p6415
g6415
sVssh
p6416
g6416
sVsse
p6417
NsVnetty
p6418
Vjava
p6419
sVsanitization
p6420
Vphp
p6421
sVhttpd.conf
p6422
Vapache
p6423
sVbison
p6424
NsVrelease-management
p6425
NsVclosures
p6426
NsVconnections
p6427
NsVcom+
p6428
NsVrmi
p6429
Vjava
p6430
sVdetect
p6431
Vjavascript
p6432
sVbackbone.js
p6433
g6433
sVwindows-forms-designer
p6434
NsVquartz-graphics
p6435
NsVgmail-imap
p6436
NsV.net-4.5
p6437
NsV.net-4.0
p6438
NsVbitset
p6439
Vc++
p6440
sVnsnumber
p6441
NsVvimrc
p6442
NsVuipageviewcontroller
p6443
Vios
p6444
sVregion
p6445
NsVdatagridview
p6446
NsVgoogle-docs
p6447
NsVbroadcastreceiver
p6448
NsVrace-condition
p6449
Vmultithreading
p6450
sVfiltering
p6451
Vjquery
p6452
sVcabal
p6453
NsVkey
p6454
Vphp
p6455
sVrobotics
p6456
Vc++
p6457
sVauthlogic
p6458
NsVpop
p6459
NsVsampling
p6460
g6460
sVcolorbox
p6461
NsVassertions
p6462
NsVhomebrew
p6463
NsVjnlp
p6464
NsVthinking-sphinx
p6465
NsVsql-server-2008-express
p6466
NsVvisual-foxpro
p6467
NsVdirection
p6468
Vandroid
p6469
sVcopy-paste
p6470
NsVapache-felix
p6471
g1669
sVmocking
p6472
Vunit-testing
p6473
sVcommon-table-expression
p6474
NsVaudio-streaming
p6475
Vandroid
p6476
sVironpython
p6477
Vpython
p6478
sVprotocols
p6479
Vobjective-c
p6480
sVcase
p6481
NsVwith-statement
p6482
Vpython
p6483
sVpca
p6484
g6484
sVpostscript
p6485
NsVmount
p6486
NsVcoldfusion
p6487
NsVmysql-connector
p6488
Vmysql
p6489
sVconfigurationmanager
p6490
NsVtelephony
p6491
NsVjface
p6492
NsVreshape
p6493
g115
sVlocking
p6494
NsVcommand-line-arguments
p6495
NsVhtml
p6496
g6496
sVservice-broker
p6497
NsVevents
p6498
NsVstatus
p6499
NsVscreenshot
p6500
NsVdynamics-crm-2011
p6501
NsVdriver
p6502
NsVsamsung-smart-tv
p6503
NsVsubmenu
p6504
NsVminimize
p6505
NsVcomponents
p6506
NsVmodel
p6507
Vruby-on-rails
p6508
sVmodem
p6509
NsVcompact-framework
p6510
NsVclob
p6511
NsVradio-button
p6512
Vjquery
p6513
sVkill
p6514
NsVunicode
p6515
g5583
sVmongoose
p6516
Vnode.js
p6517
sVinternationalization
p6518
NsVsymbolic-math
p6519
Vmatlab
p6520
sValphabetical
p6521
NsVsamba
p6522
g6522
sVsql-server-ce
p6523
NsVmetaprogramming
p6524
NsVazure-storage-blobs
p6525
NsVapache2
p6526
NsVdecompression
p6527
NsVblob
p6528
NsVrdlc
p6529
NsVlibreoffice
p6530
g1883
sVstyles
p6531
Vwpf
p6532
sVscheduler
p6533
Vjava
p6534
sVsilverlight
p6535
NsVargument-passing
p6536
Vc++
p6537
sVjfreechart
p6538
NsVtemplating
p6539
NsVsimulator
p6540
NsVbackground-process
p6541
NsVoperating-system
p6542
g139
sVreturn-value
p6543
Vc++
p6544
sVrsync
p6545
NsVdynamic-linking
p6546
NsVliterals
p6547
g397
sVgearman
p6548
NsVrpm
p6549
Vlinux
p6550
sVredis
p6551
g6551
sVslick
p6552
NsVlegal
p6553
NsVautomake
p6554
NsVprovider
p6555
Vandroid
p6556
sVkvm
p6557
NsVshared-hosting
p6558
NsVelementtree
p6559
Vpython
p6560
sVclass-method
p6561
NsVfirebird
p6562
Vsql
p6563
sVsqldatasource
p6564
Vasp.net
p6565
sVnsdatecomponents
p6566
NsVspss
p6567
g6567
sVwebsphere-6.1
p6568
NsVcuda
p6569
g1175
sVnullpointerexception
p6570
Vjava
p6571
sVknitr
p6572
NsVcurses
p6573
Vpython
p6574
sVcommunication
p6575
Vjava
p6576
sVnumber-formatting
p6577
Vjava
p6578
sVliferay
p6579
NsVcode-snippets
p6580
NsVodata
p6581
NsVmatlab-toolbox
p6582
NsVvb.net-2010
p6583
NsVnumeric
p6584
g115
sVframebuffer
p6585
NsVactivemq
p6586
NsVioc-container
p6587
NsVwcf-data-services
p6588
Vwcf
p6589
sVandroid-ksoap2
p6590
Vandroid
p6591
sVentity-attribute-value
p6592
NsVexcel-2003
p6593
NsVsqoop
p6594
NsVexcel-2007
p6595
NsVrvm
p6596
NsVasynchronous
p6597
NsVfirebug
p6598
Vjavascript
p6599
sVcoded-ui-tests
p6600
NsVfiddler
p6601
NsVclearcase-ucm
p6602
NsVamazon-sqs
p6603
Vamazon-web-services
p6604
sVgettext
p6605
Vphp
p6606
sVmatrix-multiplication
p6607
NsVvirtual-memory
p6608
NsVwindows-xp
p6609
Vwindows
p6610
sVtype-conversion
p6611
NsVrspec-rails
p6612
NsVhttpmodule
p6613
NsVjavafx-2
p6614
NsVjavafx-8
p6615
NsVsymbol
p6616
NsVqtablewidget
p6617
NsVattached-properties
p6618
Vwpf
p6619
sVnswindow
p6620
NsVraspbian
p6621
Vraspberry-pi
p6622
sVn-tier
p6623
NsVwifi
p6624
g6624
sVcurve
p6625
NsVvisual-c++
p6626
Vc++
p6627
sVclasscastexception
p6628
Vjava
p6629
sVdirectory
p6630
Vphp
p6631
sVcollision-detection
p6632
Vjava
p6633
sVtelerik-grid
p6634
NsVbytearray
p6635
Vjava
p6636
sVlua-table
p6637
NsVx509certificate
p6638
NsVscalaz
p6639
Vscala
p6640
sVdisk
p6641
NsVfluentvalidation
p6642
NsVinit
p6643
NsVwebgrid
p6644
NsVkeydown
p6645
Vjquery
p6646
sVical
p6647
Vphp
p6648
sVsony
p6649
NsVdapper
p6650
NsVpush-notification
p6651
NsVlisp
p6652
g6652
sVevaluation
p6653
Vjava
p6654
sVlist
p6655
Vpython
p6656
sVpicasa
p6657
Vandroid
p6658
sVdomain-driven-design
p6659
NsVwebdav
p6660
NsVbuilt-in
p6661
Vpython
p6662
sVjeditorpane
p6663
Vjava
p6664
sVsyslog
p6665
NsVdesign
p6666
NsVshared-libraries
p6667
Vc++
p6668
sVlistbox
p6669
NsVpinterest
p6670
NsVsum
p6671
Vmysql
p6672
sVversion
p6673
Vjava
p6674
sVsession-timeout
p6675
NsVrow
p6676
Vhtml
p6677
sVmemcached
p6678
Vphp
p6679
sVjsf-2
p6680
g2962
sVstandards-compliance
p6681
Vc++
p6682
sVtags
p6683
Vhtml
p6684
sVmediaelement.js
p6685
Vjavascript
p6686
sVweb-security
p6687
Vphp
p6688
sVmongodb-java
p6689
Vmongodb
p6690
sVhashtable
p6691
NsVswi-prolog
p6692
Vprolog
p6693
sVlinux-device-driver
p6694
NsVmediastore
p6695
NsVthrift
p6696
NsVmicrodata
p6697
NsVgrails-plugin
p6698
NsVanonymous-function
p6699
Vjavascript
p6700
sVrequirejs
p6701
g2834
sVviewflipper
p6702
NsVonbeforeunload
p6703
NsVoptions
p6704
g6704
sVrename
p6705
NsVrenderpartial
p6706
NsVtfsbuild
p6707
NsVword-vba
p6708
NsVjbutton
p6709
Vjava
p6710
sVcrystal-reports-2008
p6711
NsVgame-center
p6712
NsVrazor-2
p6713
NsVdeque
p6714
Vc++
p6715
sVoperators
p6716
NsVopenframeworks
p6717
NsVdom-manipulation
p6718
Vjquery
p6719
sVssis-data-transformations
p6720
Vssis
p6721
sVgeneric-programming
p6722
Vc++
p6723
sVspeech-recognition
p6724
g2269
sVsymfony-2.3
p6725
NsVsymfony-2.1
p6726
NsVrestsharp
p6727
NsVradgrid
p6728
NsVcircular-dependency
p6729
NsVlarge-files
p6730
NsVequation
p6731
NsVfor-loop
p6732
Vphp
p6733
sVcpu-architecture
p6734
g1039
sVavi
p6735
g1515
sVdivision
p6736
NsVvirtuemart
p6737
NsVrvalue-reference
p6738
NsVcapistrano
p6739
NsVwebsphere-7
p6740
NsVwebsphere-8
p6741
NsValgebra
p6742
g6742
sVlighting
p6743
Vopengl
p6744
sVlazy-loading
p6745
Vhibernate
p6746
sVinvalidoperationexception
p6747
NsVshort
p6748
Vjava
p6749
sVandroid-dialog
p6750
NsVfooter
p6751
NsVpostfix
p6752
g695
sVtelephonymanager
p6753
NsVcallback
p6754
NsVblackberry-playbook
p6755
NsVhandlebars
p6756
Vjavascript
p6757
sVxmpp
p6758
NsVcode-generation
p6759
NsVtypedef
p6760
Vc++
p6761
sVphantomjs
p6762
NsVsvcutil.exe
p6763
Vwcf
p6764
sValter
p6765
Vmysql
p6766
sVreturn
p6767
NsVresizable
p6768
NsVmemory-management
p6769
g6769
sVshow-hide
p6770
Vjquery
p6771
sVgetelementbyid
p6772
Vjavascript
p6773
sVscipy
p6774
Vpython
p6775
sVms-office
p6776
g6776
sVgame-engine
p6777
g6777
sVamazon-ec2
p6778
g6778
sVstring-array
p6779
Vandroid
p6780
sVnservicebus
p6781
NsVrefresh
p6782
NsVinnodb
p6783
g6783
sVoutputstream
p6784
Vjava
p6785
sVandroid-facebook
p6786
NsVshared-objects
p6787
NsVaddressbook
p6788
NsVgoogle-gdk
p6789
NsVexpect
p6790
NsVloops
p6791
g6733
sVauthorize.net
p6792
NsVimpersonation
p6793
NsVdirectx-11
p6794
g472
sVetag
p6795
NsVhibernate-mapping
p6796
NsVbing-maps-api
p6797
NsVsqldatatypes
p6798
NsVstrong-parameters
p6799
Vruby-on-rails
p6800
sVmodularity
p6801
NsVimacros
p6802
NsVmissing-data
p6803
g11
sVcomplex-numbers
p6804
NsVfeed
p6805
NsVnotify
p6806
NsVservicebus
p6807
NsVxml-namespaces
p6808
NsVgpl
p6809
NsVdbunit
p6810
NsVgpg
p6811
g867
sVrailo
p6812
NsVspock
p6813
NsVstorm
p6814
Vjava
p6815
sVgpu
p6816
g1175
sVstore
p6817
Vextjs
p6818
sVgps
p6819
Vandroid
p6820
sVjquery-tools
p6821
Vjquery
p6822
sVsegue
p6823
Vios
p6824
sVoption
p6825
NsVsilex
p6826
Vphp
p6827
sVmediarecorder
p6828
NsVbbcode
p6829
NsVdouble
p6830
NsVdevice-driver
p6831
Vwindows
p6832
sVvariable-scope
p6833
Vjavascript
p6834
sVbitwise
p6835
g139
sVjasper-reports
p6836
NsVscatter-plot
p6837
NsVobjective-c-runtime
p6838
Vobjective-c
p6839
sVcharacter-encoding
p6840
NsVfile-get-contents
p6841
Vphp
p6842
sVwindows-phone-8
p6843
NsVtransactional
p6844
Vspring
p6845
sVwindows-phone-7
p6846
NsVquicksort
p6847
NsVcentos6
p6848
NsVeasy-install
p6849
NsVjsf
p6850
g6850
sVpopulate
p6851
Vphp
p6852
sVexec
p6853
Vphp
p6854
sVdata.frame
p6855
NsVsearchview
p6856
Vandroid
p6857
sVzend-form-element
p6858
g5430
sVsaxparser
p6859
Vandroid
p6860
sVsql-server-2008-r2
p6861
Vsql
p6862
sVpdfbox
p6863
NsVrunnable
p6864
NsVcrosstab
p6865
NsVmathematical-optimization
p6866
NsVwindows
p6867
g6867
sVandroid-video-player
p6868
NsVwebclient
p6869
NsVmediaelement
p6870
NsVpublic-key
p6871
NsVandroid-arrayadapter
p6872
NsVrtf
p6873
NsVcdn
p6874
NsVcdi
p6875
NsVcdt
p6876
NsVarea
p6877
Vjquery
p6878
sVrtp
p6879
Vandroid
p6880
sVtypo3
p6881
NsViis-7.5
p6882
g2895
sVcheckboxlist
p6883
Vasp.net
p6884
sVtriangle
p6885
Vjava
p6886
sVinvoke
p6887
NsVpjsip
p6888
NsVhid
p6889
NsVshared
p6890
NsVpython-c-api
p6891
Vpython
p6892
sVcompiler
p6893
g6893
sVactiviti
p6894
NsVactivity
p6895
Vandroid
p6896
sVfacebook-access-token
p6897
NsVequinox
p6898
NsVdump
p6899
NsVweb-services
p6900
g3536
sVandroid-tablelayout
p6901
Vandroid
p6902
sVarm
p6903
NsVfullscreen
p6904
NsVlibraries
p6905
NsVunions
p6906
NsVoffline-caching
p6907
NsVformatter
p6908
NsVgoogle-translate
p6909
NsVcorruption
p6910
Vc++
p6911
sVhexadecimal-notation
p6912
NsVprofiling
p6913
NsVappwidget
p6914
NsVcode-smell
p6915
NsVconsole
p6916
NsVsolr
p6917
g6917
sVsonata-admin
p6918
g303
sVc
p6919
g6919
sVberkeley-db
p6920
Vjava
p6921
sVcontext
p6922
NsVfile-io
p6923
NsVmultiple-columns
p6924
Vcss
p6925
sVgroups
p6926
g4057
sVhtml5-appcache
p6927
NsVzurb-foundation
p6928
Vcss
p6929
sVkeytool
p6930
Vjava
p6931
sVexc-bad-access
p6932
NsVswf
p6933
NsVpc
p6934
NsVpg
p6935
Vruby-on-rails
p6936
sVpe
p6937
Vwindows
p6938
sVswt
p6939
NsVresttemplate
p6940
Vspring
p6941
sVprecision
p6942
NsVrspec
p6943
NsVdql
p6944
NsVz-index
p6945
Vcss
p6946
sVgridpanel
p6947
NsVosx-mountain-lion
p6948
g332
sVautomator
p6949
NsVreflection.emit
p6950
NsVproject-euler
p6951
NsVdirectoryservices
p6952
NsVscreen-size
p6953
Vandroid
p6954
sVbehavior
p6955
NsVspring-webflow
p6956
NsVtreenode
p6957
NsVcode-completion
p6958
Veclipse
p6959
sVandroid-textview
p6960
NsVcamera-calibration
p6961
NsVactivesupport
p6962
NsVria
p6963
NsVhadoop
p6964
g6964
sVcoffeescript
p6965
g6965
sVsqlite3
p6966
NsVshiro
p6967
Vjava
p6968
sVfacebook-timeline
p6969
NsVx86
p6970
Vassembly
p6971
sVhidden-field
p6972
NsVgoogle-code
p6973
NsVtriangulation
p6974
NsVmips
p6975
Vassembly
p6976
sVbackground-image
p6977
Vcss
p6978
sVtabactivity
p6979
Vandroid
p6980
sVblackberry-simulator
p6981
NsVanalysis
p6982
NsVedge
p6983
NsVcpan
p6984
NsVelastic-map-reduce
p6985
Vhadoop
p6986
sVjtree
p6987
NsVmarshalling
p6988
NsVeclipse-cdt
p6989
NsVintervals
p6990
NsVhuffman
p6991
Vc++
p6992
sVscalatest
p6993
Vscala
p6994
sVhello-world
p6995
Vjava
p6996
sVtablet
p6997
NsVenvdte
p6998
NsVfinder
p6999
g332
sVbuild
p7000
NsVlinked-server
p7001
g224
sVaggregation
p7002
NsVinteger
p7003
Vjava
p7004
sVjfilechooser
p7005
NsVlinqpad
p7006
NsVignore
p7007
NsVsitemap
p7008
Vasp.net
p7009
sVouter-join
p7010
NsVmodernizr
p7011
NsVgoogle-api
p7012
NsVtraits
p7013
NsVgoogle-play-services
p7014
NsVnewsletter
p7015
g695
sVebean
p7016
NsVcommand-prompt
p7017
NsVread-eval-print-loop
p7018
Vclojure
p7019
sVglibc
p7020
NsVwkhtmltopdf
p7021
Vphp
p7022
sVkendo-grid
p7023
NsVgenetic-algorithm
p7024
g7024
sVhibernate-annotations
p7025
NsVxsd
p7026
g3891
sVvbulletin
p7027
NsVkeycode
p7028
Vjavascript
p7029
sVconfluence
p7030
NsVpipeline
p7031
Vpowershell
p7032
sVgrand-central-dispatch
p7033
Vios
p7034
sVbounding-box
p7035
NsVsymfony1
p7036
g6050
sVsymfony2
p7037
g303
sVrange
p7038
NsVtogglebutton
p7039
Vandroid
p7040
sVphp-cli
p7041
NsVmcrypt
p7042
Vphp
p7043
sVwebview
p7044
NsVxmlnode
p7045
NsVpageload
p7046
Vasp.net
p7047
sVmyisam
p7048
g7048
sVhottowel
p7049
NsVintentfilter
p7050
Vandroid
p7051
sVfopen
p7052
Vphp
p7053
sVellipse
p7054
Vwpf
p7055
sVrows
p7056
Vmysql
p7057
sVmvccontrib
p7058
NsVlldb
p7059
NsVxps
p7060
Vwpf
p7061
sVtwitter
p7062
NsVwindows-8.1
p7063
NsVmemory
p7064
NsVisolatedstorage
p7065
NsVpaypal-sandbox
p7066
NsVpopupwindow
p7067
Vandroid
p7068
sVpartitioning
p7069
Vmysql
p7070
sVflash-player
p7071
Vflash
p7072
sVhighlight
p7073
NsVshortcuts
p7074
NsVfread
p7075
NsVtomcat7
p7076
Vjava
p7077
sVtomcat6
p7078
Vjava
p7079
sVrally
p7080
Vjavascript
p7081
sVdataadapter
p7082
NsVspring-social
p7083
NsVerror-reporting
p7084
Vphp
p7085
sVlucene.net
p7086
NsVfile-extension
p7087
Vphp
p7088
sVgoogle-calendar
p7089
NsVquartz-core
p7090
Vios
p7091
sVoutlook-vba
p7092
NsVsystem-tray
p7093
NsVuploadify
p7094
NsVoverlay
p7095
Vandroid
p7096
sVkarma
p7097
NsVtextmate
p7098
NsVscroll
p7099
NsVnasm
p7100
Vassembly
p7101
sVgoogle-api-java-client
p7102
NsVdependency-injection
p7103
NsVggplot2
p7104
g11
sVtooltip
p7105
NsVdialogbox
p7106
Vandroid
p7107
sVbase64
p7108
NsVlanguages
p7109
Vandroid
p7110
sVarchlinux
p7111
NsVeclipse-rcp
p7112
Veclipse
p7113
sVinclude
p7114
Vphp
p7115
sVjunit
p7116
g7116
sVconfirmation
p7117
Vjavascript
p7118
sVsymfony-sonata
p7119
g303
sVtransactionscope
p7120
NsVstackoverflow
p7121
NsVkinect-sdk
p7122
NsVibm
p7123
Vjava
p7124
sVfadeout
p7125
NsVrobotframework
p7126
NsVsql-server
p7127
g224
sVpolling
p7128
Vajax
p7129
sVuicollectionviewcell
p7130
g5314
sVcfc
p7131
NsVfold
p7132
Vhaskell
p7133
sVtortoisesvn
p7134
Vsvn
p7135
sVuinavigationitem
p7136
Vios
p7137
sVbdd
p7138
g7138
sVuitabbaritem
p7139
NsVnsnotificationcenter
p7140
NsVisapi
p7141
NsVwifi-direct
p7142
NsVcx-freeze
p7143
Vpython
p7144
sVember-data
p7145
Vember.js
p7146
sVjson-encode
p7147
Vphp
p7148
sVin-app-billing
p7149
Vandroid
p7150
sVjqtouch
p7151
Vjquery
p7152
sVjquery-ui
p7153
Vjquery
p7154
sVfirefox-addon-sdk
p7155
NsVgoogle-chrome
p7156
g1848
sVshader
p7157
Vopengl
p7158
sVnsstring
p7159
NsVwebrequest
p7160
NsVhelpers
p7161
NsVenterprise-library
p7162
NsVlanguage-design
p7163
Vprogramming-languages
p7164
sVapple
p7165
NsVapt
p7166
Vubuntu
p7167
sVapk
p7168
Vandroid
p7169
sVapi
p7170
g2960
sVgoogle-cast
p7171
NsVapply
p7172
NsVwindows-azure-storage
p7173
NsVlnk2019
p7174
Vc++
p7175
sVstream
p7176
NsVsilverlight-3.0
p7177
NsVportable-class-library
p7178
NsVweb-deployment-project
p7179
NsVgeneric-list
p7180
NsVred5
p7181
NsVepoll
p7182
Vlinux
p7183
sVsql-like
p7184
NsVxaml
p7185
Vwpf
p7186
sVeditable
p7187
NsVoverride
p7188
NsVtableview
p7189
NsVenterprise-architect
p7190
g113
sVthymeleaf
p7191
g5410
sVabort
p7192
NsVeclipse-wtp
p7193
NsVtap
p7194
NsVtar
p7195
NsVserial
p7196
g7196
sVapex-code
p7197
NsVdwr
p7198
NsVsip
p7199
NsVsubdirectory
p7200
NsVtextblock
p7201
NsVoracle-adf
p7202
NsVadministrator
p7203
NsVpostback
p7204
Vasp.net
p7205
sVjavascript-events
p7206
Vjavascript
p7207
sVmultiple-inheritance
p7208
Vc++
p7209
sVwindows-services
p7210
NsVauto-generate
p7211
NsVlight
p7212
NsVfailover
p7213
NsVnamed-pipes
p7214
NsVdjango-class-based-views
p7215
Vdjango
p7216
sVsubdomains
p7217
NsVfreebsd
p7218
g7218
sVcrawling
p7219
NsVmouseover
p7220
NsVinterpreter
p7221
Vpython
p7222
sVcode-review
p7223
NsVoperator-keyword
p7224
NsVspotify
p7225
NsVdisqus
p7226
NsVsqlexception
p7227
NsVglew
p7228
Vopengl
p7229
sVmultithreading
p7230
g7230
sVflex
p7231
NsVmultimap
p7232
NsVcrash
p7233
NsVindexing
p7234
Vmysql
p7235
sVa-star
p7236
Valgorithm
p7237
sVfingerprint
p7238
NsVsignals-slots
p7239
NsVnfc
p7240
g898
sVtrac
p7241
NsVedit
p7242
Vphp
p7243
sV.net
p7244
g7244
sVbitwise-operators
p7245
NsVnfs
p7246
g7246
sVvideoview
p7247
NsVwinrt-xaml
p7248
NsVcascading-deletes
p7249
Vsql
p7250
sVmaven-plugin
p7251
NsVregistration
p7252
NsVsimpledateformat
p7253
NsVmxml
p7254
NsVxlrd
p7255
Vpython
p7256
sVvimscript
p7257
NsVhttpurlconnection
p7258
NsVout
p7259
NsVcategory
p7260
NsVfckeditor
p7261
Vjavascript
p7262
sVcommand-line
p7263
NsVvcl
p7264
Vdelphi
p7265
sVfriendly-url
p7266
NsVmetaclass
p7267
NsVmoxy
p7268
NsVpixelsense
p7269
NsVdictionary
p7270
NsVipod
p7271
NsVachartengine
p7272
Vandroid
p7273
sVimplode
p7274
NsVmulti-tenant
p7275
NsVonclicklistener
p7276
Vandroid
p7277
sVsimplexml
p7278
NsVvc6
p7279
Vc++
p7280
sVxml-schema
p7281
NsVmaven-3
p7282
NsVmaven-2
p7283
Vjava
p7284
sVindesign
p7285
NsVecho
p7286
NsVcolor-picker
p7287
NsVweka
p7288
NsVcolor-scheme
p7289
NsVmakefile
p7290
NsVpriority
p7291
Vjava
p7292
sVunhandled-exception
p7293
NsVcompiler-warnings
p7294
Vc++
p7295
sVshell
p7296
NsVslider
p7297
Vjquery
p7298
sVsessionid
p7299
g1273
sVquantmod
p7300
g11
sVdelphi-2009
p7301
NsVadfs2.0
p7302
NsVpojo
p7303
Vjava
p7304
sVdelphi-2007
p7305
NsVunmarshalling
p7306
NsVrepository-pattern
p7307
NsVsimplemembership
p7308
NsVmigration
p7309
Vruby-on-rails
p7310
sVprotocol-buffers
p7311
NsVtwitter-api
p7312
Vphp
p7313
sVclip
p7314
Vjava
p7315
sVapache-commons
p7316
NsVlinker
p7317
Vc++
p7318
sVqueryset
p7319
Vdjango
p7320
sVtypeahead
p7321
g479
sVlinked
p7322
g6656
sVangle
p7323
NsVcontact
p7324
NsVscons
p7325
NsVlanguage-lawyer
p7326
Vc++
p7327
sVautomated-tests
p7328
Vtesting
p7329
sVcollaboration
p7330
g1616
sVclass
p7331
NsVvolume
p7332
Vandroid
p7333
sVgoogle-maps-sdk-ios
p7334
Vios
p7335
sVpipe
p7336
g15
sVgodaddy
p7337
NsVjcr
p7338
NsVef-code-first
p7339
NsVgrails-domain-class
p7340
NsVweb.py
p7341
NsVpyparsing
p7342
Vpython
p7343
sVrouting
p7344
g7344
sVstrtok
p7345
NsVdatarow
p7346
NsVlocal
p7347
Vjavascript
p7348
sVurlconnection
p7349
NsVcube
p7350
NsVdiacritics
p7351
Vphp
p7352
sVwords
p7353
NsVcustom-action
p7354
NsVdesign-patterns
p7355
g7355
sVqt
p7356
g297
sVdynamic-data
p7357
Vasp.net
p7358
sVpython-requests
p7359
NsVjava.util.concurrent
p7360
NsVqa
p7361
g7361
sVsql-management-studio
p7362
NsVmenuitem
p7363
NsVstylecop
p7364
NsVsaml-2.0
p7365
g3080
sVcheckstyle
p7366
Vjava
p7367
sVx11
p7368
NsVgoogle-cloud-endpoints
p7369
NsVmodule
p7370
NsVpinchzoom
p7371
NsVmultipart
p7372
Vjava
p7373
sVgmail
p7374
g695
sVbreakpoints
p7375
g1132
sVnested-lists
p7376
NsVg++
p7377
Vc++
p7378
sVuielement
p7379
Vwpf
p7380
sVteamcity
p7381
NsVzend-framework2
p7382
Vphp
p7383
sVp2p
p7384
NsVtypeclass
p7385
Vhaskell
p7386
sVios
p7387
g7387
sVuserform
p7388
NsVlogin-control
p7389
NsVwebservice-client
p7390
g3536
sVdeserialization
p7391
NsVbean-validation
p7392
NsVchmod
p7393
NsVpackaging
p7394
Vpython
p7395
sVrpc
p7396
Vgwt
p7397
sVcxf
p7398
NsVsequences
p7399
NsVtable
p7400
g6677
sVgoogle-talk
p7401
NsVqemu
p7402
NsVoffice365
p7403
Vsharepoint
p7404
sVcharts
p7405
NsVsemaphore
p7406
g139
sVporting
p7407
Vc++
p7408
sVjlist
p7409
Vjava
p7410
sVresteasy
p7411
Vjava
p7412
sVstring-matching
p7413
NsVpartials
p7414
Vruby-on-rails
p7415
sVvimeo
p7416
NsVcursor
p7417
NsVarraylist
p7418
Vjava
p7419
sVargv
p7420
NsVlayer
p7421
Vios
p7422
sVdjango-modelform
p7423
Vdjango
p7424
sVfacebook-page
p7425
NsVavr
p7426
g15
sVdo-while
p7427
NsVlinq-to-entities
p7428
NsVstringtokenizer
p7429
NsVexchange-server-2010
p7430
NsVavd
p7431
Vandroid
p7432
sVprivileges
p7433
NsVclasspath
p7434
Vjava
p7435
sVenumeration
p7436
NsVmember
p7437
Vc++
p7438
sVunity
p7439
NsVslickgrid
p7440
Vjavascript
p7441
sVautomation
p7442
NsVconnection-pooling
p7443
NsVsingle-table-inheritance
p7444
Vruby-on-rails
p7445
sVcoding-style
p7446
NsVdynamics-ax-2012
p7447
NsVjpql
p7448
g290
sVsnmp
p7449
NsVkaminari
p7450
NsVuisegmentedcontrol
p7451
Vios
p7452
sVmfc
p7453
Vc++
p7454
sVtcp
p7455
g7455
sVdata-visualization
p7456
g7456
sVtcl
p7457
NsVjava-ee
p7458
Vjava
p7459
sVunsigned
p7460
NsVwso2esb
p7461
NsVusage
p7462
NsVjython
p7463
NsVbox-api
p7464
NsVusing-statement
p7465
NsVmatlab-deployment
p7466
Vmatlab
p7467
sVjboss-weld
p7468
NsVandroid-camera-intent
p7469
NsVhosts
p7470
Vapache
p7471
sVandroid-listfragment
p7472
Vandroid
p7473
sVmod-rewrite
p7474
NsVsequence
p7475
NsVkde
p7476
NsVsettext
p7477
NsVjquery-cycle
p7478
NsVtumblr
p7479
NsVexport
p7480
NsVsuperclass
p7481
Vjava
p7482
sVbuildout
p7483
Vpython
p7484
sVleak
p7485
NsVondraw
p7486
NsVdynamically-generated
p7487
NsVcross-domain
p7488
NsVfacebook-social-plugins
p7489
NsVphalcon
p7490
NsVartifactory
p7491
NsVpyrocms
p7492
NsVsprite-kit
p7493
NsVstax
p7494
Vjava
p7495
sVdjango-celery
p7496
NsVpaste
p7497
NsVslug
p7498
NsVshopify
p7499
g2960
sVshipping
p7500
NsVdatagram
p7501
NsVashx
p7502
Vasp.net
p7503
sVconstructor
p7504
Vc++
p7505
sVclojure
p7506
g7506
sVowl
p7507
NsVclustered-index
p7508
g224
sVmyeclipse
p7509
Vjava
p7510
sVskydrive
p7511
NsVumbraco
p7512
NsVweather
p7513
g2960
sVpromise
p7514
Vjavascript
p7515
sVfreeze
p7516
NsVtransfer
p7517
NsVfilesize
p7518
NsVdatabase-restore
p7519
g224
sVvar
p7520
NsVlog4net
p7521
NsVcertificate
p7522
NsVdjango-admin
p7523
Vdjango
p7524
sVhyper-v
p7525
g7525
sVappdelegate
p7526
Vios
p7527
sVphusion-passenger
p7528
NsVtaglib
p7529
Vjsp
p7530
sVtomcat
p7531
g7531
sVrecord
p7532
Vaudio
p7533
sVbig-o
p7534
NsVdjango-templates
p7535
Vdjango
p7536
sVcustomvalidator
p7537
Vasp.net
p7538
sVandroid-preferences
p7539
NsVoffice-2007
p7540
NsVreloaddata
p7541
g3751
sVcss-transition
p7542
NsVboot
p7543
NsVmongodb-php
p7544
Vmongodb
p7545
sVbranch
p7546
NsVphp4
p7547
Vphp
p7548
sVriak
p7549
NsVmobile-application
p7550
NsVjung
p7551
NsVasset-pipeline
p7552
NsVunix-timestamp
p7553
NsVdebian
p7554
g7554
sVsencha-architect
p7555
NsVsass
p7556
Vcss
p7557
sVjscript
p7558
NsVpython-idle
p7559
Ns.