(dp0
Vh.264
p1
Vffmpeg
p2
sVscreen-resolution
p3
Vandroid
p4
sVuserscripts
p5
Vjavascript
p6
sVlegacy-code
p7
Vjava
p8
sVtcp-ip
p9
Vsockets
p10
sVdropbox-api
p11
Vdropbox
p12
sVtypeerror
p13
Vpython
p14
sVxts
p15
Vr
p16
sVwindows-ce
p17
Vc#
p18
sVcreatejs
p19
Vjavascript
p20
sVopenmpi
p21
Vmpi
p22
sVonsubmit
p23
Vjavascript
p24
sVjquery-callback
p25
Vjquery
p26
sVfilenotfoundexception
p27
Vjava
p28
sVhttp-authentication
p29
Vauthentication
p30
sVrhomobile
p31
Vrhodes
p32
sVprefix
p33
Vnamespaces
p34
sVrabbitmq
p35
Vamqp
p36
sVlistview
p37
Vandroid
p38
sVcufon
p39
Vjavascript
p40
sVdynamics-crm
p41
Vdynamics-crm-2011
p42
sVmsysgit
p43
Vgit
p44
sVbittorrent
p45
Vpython
p46
sVdbcontext
p47
Ventity-framework
p48
sVdevelopment-environment
p49
Vruby-on-rails
p50
sVsolrnet
p51
Vsolr
p52
sVwindow.location
p53
Vjavascript
p54
sVtcpclient
p55
Vc#
p56
sVwidget
p57
Vandroid
p58
sVcustom-adapter
p59
Vandroid
p60
sVviewcontroller
p61
Vios
p62
sVjasmine
p63
Vjavascript
p64
sVsunspot
p65
Vruby-on-rails
p66
sVfacebook-opengraph
p67
Vfacebook
p68
sVtravis-ci
p69
Vcontinuous-integration
p70
sVcurve-fitting
p71
Vmatlab
p72
sVjquery-ajax
p73
Vjavascript
p74
sVprojection
p75
V3d
p76
sVclassification
p77
Vmachine-learning
p78
sVcontact-form
p79
Vphp
p80
sVreplace
p81
Vregex
p82
sVsubstr
p83
Vphp
p84
sVunix
p85
Vlinux
p86
sVsilverlight-5.0
p87
Vsilverlight
p88
sValter-table
p89
Vmysql
p90
sVfstream
p91
Vc++
p92
sVdata-warehouse
p93
Vsql
p94
sVmusic
p95
Vandroid
p96
sVpassport
p97
Vnode.js
p98
sVtokenize
p99
Vjava
p100
sVmonomac
p101
Vmono
p102
sVjmx
p103
Vjava
p104
sVjms
p105
Vjava
p106
sVkineticjs
p107
Vjavascript
p108
sVjmf
p109
Vjava
p110
sVdatanucleus
p111
Vjdo
p112
sVuiprogressview
p113
Vios
p114
sVspring-jms
p115
Vjms
p116
sVdroppable
p117
Vjquery
p118
sVsmtp
p119
Vemail
p120
sVcurrency
p121
Vphp
p122
sVfibonacci
p123
Vrecursion
p124
sVonitemclicklistener
p125
Vandroid
p126
sVabsolute
p127
Vcss
p128
sVmotion
p129
Vandroid
p130
sVsybase-ase
p131
Vsql
p132
sVgeojson
p133
Vjavascript
p134
sVavfoundation
p135
Vios
p136
sVplayback
p137
Vaudio
p138
sVactionscript
p139
Vflash
p140
sVremote-access
p141
Vc#
p142
sVnhibernate
p143
Vc#
p144
sVwinsock
p145
Vc++
p146
sViboutlet
p147
Vios
p148
sVabstraction
p149
Vc#
p150
sVlonglistselector
p151
Vwindows-phone-8
p152
sVsidekiq
p153
Vruby-on-rails
p154
sVdiagram
p155
Vuml
p156
sVplyr
p157
Vr
p158
sViis-7
p159
Vasp.net
p160
sViis-6
p161
Vasp.net
p162
sViis-8
p163
Viis
p164
sVtypes
p165
Vc#
p166
sVfsockopen
p167
Vphp
p168
sVdijit
p169
Vdojo
p170
sVwebfonts
p171
Vcss
p172
sValias
p173
Vsql
p174
sVvideo-capture
p175
Vandroid
p176
sVjenkins-plugins
p177
Vjenkins
p178
sVpresentmodalviewcontrolle
p179
Vios
p180
sVjquery-tabs
p181
Vjquery
p182
sVsendgrid
p183
Vemail
p184
sVbit-fields
p185
Vc
p186
sVrestriction
p187
Vphp
p188
sVxlib
p189
Vx11
p190
sVbootstrapper
p191
Vwix
p192
sVhtml-table
p193
Vhtml
p194
sVforce-layout
p195
Vd3.js
p196
sVspring-data-jpa
p197
Vspring
p198
sVconcurrency
p199
Vjava
p200
sVlistactivity
p201
Vandroid
p202
sVuuid
p203
Vjava
p204
sVandroid-ndk
p205
Vandroid
p206
sVdynamic-language-runtime
p207
Vc#
p208
sVhidden
p209
Vjquery
p210
sVautosuggest
p211
Vjquery
p212
sVslicing
p213
Vpython
p214
sVcloud-hosting
p215
Vcloud
p216
sVeffects
p217
Vjquery
p218
sVmpmovieplayer
p219
Viphone
p220
sVinterrupt
p221
Vc
p222
sVmultidimensional
p223
Varrays
p224
sVrepaint
p225
Vjava
p226
sVselenium-ide
p227
Vselenium
p228
sVria-services
p229
Vsilverlight
p230
sVarrow
p231
Vcss
p232
sVgoogle-analytics
p233
Vjavascript
p234
sVcss-position
p235
Vcss
p236
sVphoto-gallery
p237
Vjquery
p238
sVazure-storage-tables
p239
Vazure
p240
sVmdi
p241
Vc#
p242
sVdjango-authentication
p243
Vdjango
p244
sVseries
p245
Vcharts
p246
sVandroid-manifest
p247
Vandroid
p248
sVmdx
p249
Vssas
p250
sVmongoid
p251
Vruby-on-rails
p252
sVgreatest-n-per-group
p253
Vsql
p254
sVoverwrite
p255
Vjava
p256
sVdst
p257
Vtimezone
p258
sVsms
p259
Vandroid
p260
sVsmo
p261
Vsql-server
p262
sVdsl
p263
Vruby
p264
sVsml
p265
Vsmlnj
p266
sVdatacontractserializer
p267
Vc#
p268
sVado.net
p269
Vc#
p270
sVfoundation
p271
Vobjective-c
p272
sVgunicorn
p273
Vdjango
p274
sVpaypal-ipn
p275
Vpaypal
p276
sVmd5
p277
Vhash
p278
sVxargs
p279
Vbash
p280
sVvisualvm
p281
Vjava
p282
sVatl
p283
Vc++
p284
sVjavafx
p285
Vjava
p286
sVwindows-mobile
p287
Vc#
p288
sVmingw
p289
Vc++
p290
sVformview
p291
Vasp.net
p292
sVcustomization
p293
Vandroid
p294
sVxib
p295
Vios
p296
sVsmartgwt
p297
Vgwt
p298
sVservice
p299
Vandroid
p300
sVddms
p301
Vandroid
p302
sVpassword-encryption
p303
Vphp
p304
sVwsdl2java
p305
Vjava
p306
sVsqlcmd
p307
Vsql-server
p308
sVmaster
p309
Vgit
p310
sVwindbg
p311
Vdebugging
p312
sVcdata
p313
Vxml
p314
sVedmx
p315
Ventity-framework
p316
sVandroid-drawable
p317
Vandroid
p318
sVtree
p319
Vjava
p320
sVdynamics-crm-4
p321
Vdynamics-crm
p322
sVfile-upload
p323
Vphp
p324
sVhierarchical-data
p325
Vsql
p326
sVtreeview
p327
Vc#
p328
sVvirtualization
p329
Vvirtual-machine
p330
sVbuild-automation
p331
Vbuild-process
p332
sVdozer
p333
Vjava
p334
sVwebsocket
p335
Vjavascript
p336
sVfilemaker
p337
Vphp
p338
sVincrement
p339
Vjavascript
p340
sVcompareto
p341
Vjava
p342
sVblazeds
p343
Vflex
p344
sVoffice-interop
p345
Vc#
p346
sVmkmapview
p347
Vios
p348
sVthree.js
p349
Vjavascript
p350
sVtransactions
p351
Vjava
p352
sVobject
p353
Vjavascript
p354
sVmetrics
p355
Vjava
p356
sVicloud
p357
Vios
p358
sVvarargs
p359
Vjava
p360
sVasp.net-mvc
p361
Vc#
p362
sVangular-ui-router
p363
Vangularjs
p364
sVpgadmin
p365
Vpostgresql
p366
sVfabricjs
p367
Vjavascript
p368
sVjson-decode
p369
Vjson
p370
sVcaml
p371
Vsharepoint
p372
sVlanguage-agnostic
p373
Valgorithm
p374
sViphone-web
p375
Viphone
p376
sVsoundpool
p377
Vandroid
p378
sVhibernate-validator
p379
Vjava
p380
sVautoit
p381
Vautomation
p382
sVunmanaged
p383
Vc#
p384
sVgitignore
p385
Vgit
p386
sVlayout
p387
Vandroid
p388
sVmenu
p389
Vcss
p390
sVcriteria-api
p391
Vjpa
p392
sVuser-agent
p393
Vphp
p394
sVform-for
p395
Vruby-on-rails
p396
sVqwidget
p397
Vqt
p398
sVwebrtc
p399
Vjavascript
p400
sVqgraphicsview
p401
Vqt
p402
sVshortest-path
p403
Valgorithm
p404
sVpass-by-reference
p405
Vc++
p406
sVsendmessage
p407
Vc#
p408
sVxmlreader
p409
Vxml
p410
sVsymfony-forms
p411
Vsymfony2
p412
sVrelease
p413
Vobjective-c
p414
sVrestkit-0.20
p415
Vrestkit
p416
sVjaxb2
p417
Vjaxb
p418
sVresult
p419
Vphp
p420
sVdelphi
p421
Vdelphi-xe2
p422
sVstackoverflowexception
p423
Vc#
p424
sVwikipedia
p425
Vmediawiki
p426
sVclass-design
p427
Vc#
p428
sVdjango-testing
p429
Vdjango
p430
sVdata.table
p431
g16
sVspring-integration
p432
Vspring
p433
sVirb
p434
Vruby
p435
sVirc
p436
Vpython
p437
sVextend
p438
Vjavascript
p439
sVwcf-security
p440
Vwcf
p441
sVmultipartform-data
p442
Vjava
p443
sVjquery-validate
p444
Vjquery
p445
sVmobile-website
p446
Vmobile
p447
sVconstexpr
p448
Vc++
p449
sVgnu-make
p450
Vmakefile
p451
sVopengl-es
p452
Vandroid
p453
sVcarbon
p454
Vosx
p455
sVrtti
p456
Vdelphi
p457
sVsd-card
p458
Vandroid
p459
sVtriggers
p460
Vsql
p461
sVdalvik
p462
Vandroid
p463
sVadapter
p464
Vandroid
p465
sVsyntax-highlighting
p466
Vvim
p467
sVlogic
p468
Vphp
p469
sVglobal-variables
p470
Vjavascript
p471
sVlogin
p472
Vphp
p473
sVinnerhtml
p474
Vjavascript
p475
sVgxt
p476
Vgwt
p477
sVduplicate-removal
p478
Vsql
p479
sVkohana
p480
Vphp
p481
sVdiff
p482
Vgit
p483
sVbilling
p484
Vandroid
p485
sVunion
p486
Vsql
p487
sVdicom
p488
Vc#
p489
sVextraction
p490
Vpython
p491
sVdreamweaver
p492
Vhtml
p493
sVpartial-classes
p494
Vc#
p495
sVautocompletetextview
p496
Vandroid
p497
sVhardware-acceleration
p498
Vandroid
p499
sVtelnet
p500
Vjava
p501
sVprimitive-types
p502
Vjava
p503
sVlift
p504
Vscala
p505
sVweb-hosting
p506
Vhosting
p507
sVrobolectric
p508
Vandroid
p509
sVosx-leopard
p510
Vosx
p511
sVdatatable
p512
Vc#
p513
sVboost-bind
p514
Vc++
p515
sVdecisiontrees
p516
Vmachine-learning
p517
sVgeoip
p518
Vphp
p519
sVtyposcript
p520
Vtypo3
p521
sVjplayer
p522
Vjquery
p523
sVvisual-studio-2013
p524
Vc#
p525
sVvisual-studio-2012
p526
Vc#
p527
sVvisual-studio-2010
p528
Vc#
p529
sVdata-structures
p530
Valgorithm
p531
sVtoolkit
p532
Vwpf
p533
sVplayer
p534
Vvideo
p535
sVognl
p536
Vstruts2
p537
sVlinechart
p538
Vcharts
p539
sVjquery-live
p540
Vjquery
p541
sVlinq-to-nhibernate
p542
Vnhibernate
p543
sVsplit
p544
Vstring
p545
sVmaven-release-plugin
p546
Vmaven
p547
sVtemplates
p548
Vc++
p549
sVvectorization
p550
Vmatlab
p551
sVfilenames
p552
Vphp
p553
sVternary-operator
p554
Vphp
p555
sVwebstorm
p556
Vjavascript
p557
sVgzip
p558
Vcompression
p559
sVsettimeout
p560
Vjavascript
p561
sVbing-api
p562
Vbing
p563
sVdependency-properties
p564
Vwpf
p565
sVopengl-3
p566
Vopengl
p567
sVgarbage-collection
p568
Vjava
p569
sVms-access-2007
p570
Vms-access
p571
sVxmlhttprequest
p572
Vjavascript
p573
sVms-access-2003
p574
Vms-access
p575
sVfortran
p576
Vfortran90
p577
sVcollections
p578
Vjava
p579
sVnssortdescriptor
p580
Vios
p581
sVservicemix
p582
Vapache-camel
p583
sVbnf
p584
Vgrammar
p585
sVeasymock
p586
Vjava
p587
sVfind-and-replace
p588
Vregex
p589
sVshadow
p590
Vcss
p591
sVunique
p592
Vmysql
p593
sVcase-sensitive
p594
Vmysql
p595
sVapp-store
p596
Vios
p597
sVmemory-leaks
p598
Vmemory-management
p599
sVui-automation
p600
Vc#
p601
sVfancybox
p602
Vjquery
p603
sVole
p604
Vcom
p605
sVonchange
p606
Vjavascript
p607
sVparameter-passing
p608
Vc#
p609
sVfop
p610
Vxsl-fo
p611
sVmonogame
p612
Vc#
p613
sVjavax.imageio
p614
Vjava
p615
sVandroid-studio
p616
Vandroid
p617
sVsubclass
p618
Vjava
p619
sVuml
p620
Vjava
p621
sVactivemodel
p622
Vruby-on-rails
p623
sVbarcode
p624
Vandroid
p625
sVsubfolder
p626
V.htaccess
p627
sVforeign-keys
p628
Vmysql
p629
sVjoomla
p630
Vphp
p631
sVwordpress-plugin
p632
Vwordpress
p633
sVsoa
p634
Vweb-services
p635
sVvlookup
p636
Vexcel
p637
sVmocha
p638
Vnode.js
p639
sVemgu
p640
Vc#
p641
sVwrap
p642
Vjquery
p643
sVdirect3d
p644
Vdirectx
p645
sVfabric
p646
Vpython
p647
sVcombinatorics
p648
Valgorithm
p649
sVsupport
p650
Vandroid
p651
sVbootstrap-typeahead
p652
Vtwitter-bootstrap
p653
sVcss-box-shadow
p654
Vcss
p655
sVwidth
p656
Vcss
p657
sVcommon-lisp
p658
Vlisp
p659
sVwordpress
p660
Vphp
p661
sVrcpp
p662
g16
sVdns
p663
Vphp
p664
sVfpga
p665
Vvhdl
p666
sVlatex
p667
g158
sVsql-loader
p668
Voracle
p669
sVpaypal
p670
Vphp
p671
sVnotifications
p672
Vandroid
p673
sVeclipse-pdt
p674
Veclipse
p675
sVamazon-simpledb
p676
Vamazon-web-services
p677
sVarrays
p678
Vphp
p679
sVmongomapper
p680
Vmongodb
p681
sVdevices
p682
Vandroid
p683
sVaccess-vba
p684
Vms-access
p685
sVfastcgi
p686
Vphp
p687
sVgoogle-maps-markers
p688
Vgoogle-maps
p689
sVpowershell
p690
Vpowershell-v2.0
p691
sVyoutube-api
p692
Vyoutube
p693
sVpassenger
p694
Vruby-on-rails
p695
sVviewmodel
p696
Vasp.net-mvc
p697
sVtimezone
p698
Vdatetime
p699
sVweb-frameworks
p700
Vpython
p701
sVselenium-grid
p702
Vselenium
p703
sVuipickerview
p704
Vios
p705
sVkeyup
p706
Vjquery
p707
sVactor
p708
Vscala
p709
sVpacket-capture
p710
Vpacket-sniffers
p711
sVjenkins
p712
Vhudson
p713
sVandroid-calendar
p714
Vandroid
p715
sVmodels
p716
Vdjango
p717
sVasterisk
p718
Vsip
p719
sVyahoo
p720
Vphp
p721
sVobjectify
p722
Vgoogle-app-engine
p723
sVrhino-mocks
p724
Vc#
p725
sVtablecellrenderer
p726
Vswing
p727
sVsetinterval
p728
Vjavascript
p729
sVcontacts
p730
Vandroid
p731
sVtime
p732
Vdate
p733
sVpush
p734
Vgit
p735
sVcodeblocks
p736
Vc++
p737
sVkendo-mobile
p738
Vkendo-ui
p739
sVosx
p740
Vcocoa
p741
sVjtextarea
p742
Vjava
p743
sVswitch-statement
p744
Vjava
p745
sVsolver
p746
Vexcel
p747
sVtablerow
p748
Vandroid
p749
sVmultiprocessing
p750
Vpython
p751
sVzebra-printers
p752
Vprinting
p753
sVedittext
p754
Vandroid
p755
sVvisual-studio-extensions
p756
Vvisual-studio
p757
sVprediction
p758
Vr
p759
sVsign
p760
Vandroid
p761
sVrestkit
p762
Vios
p763
sVrspec2
p764
Vruby-on-rails
p765
sVdjango-queryset
p766
Vdjango
p767
sVwindows-installer
p768
Vwix
p769
sVgoogle-plus-one
p770
Vgoogle-plus
p771
sVbadge
p772
Vios
p773
sVopencart
p774
Vphp
p775
sVmergesort
p776
Valgorithm
p777
sVwindows-8
p778
Vc#
p779
sVwindows-7
p780
Vc#
p781
sVvb.net
p782
Vasp.net
p783
sVqueue
p784
Vjava
p785
sVobjective-c-2.0
p786
Vobjective-c
p787
sVmonkeyrunner
p788
Vandroid
p789
sVipc
p790
g222
sVipa
p791
Vios
p792
sVandroid-widget
p793
Vandroid
p794
sVjeditable
p795
Vjquery
p796
sVcode-access-security
p797
V.net
p798
sVbookmarks
p799
Vjavascript
p800
sVintellij-idea
p801
Vjava
p802
sVcallstack
p803
Vc++
p804
sVwicket
p805
Vjava
p806
sVhttpwebrequest
p807
Vc#
p808
sVscope
p809
Vjavascript
p810
sVcommonsware
p811
Vandroid
p812
sVstarling-framework
p813
Vactionscript-3
p814
sVlowercase
p815
Vuppercase
p816
sVassociative-array
p817
Vphp
p818
sVtitanium
p819
Vandroid
p820
sVentity-framework-4.3
p821
Ventity-framework
p822
sVentity-framework-4.1
p823
Ventity-framework
p824
sVninject
p825
Vc#
p826
sVprinting
p827
Vc#
p828
sVtext-mining
p829
g158
sVuse-case
p830
Vuml
p831
sVprogressdialog
p832
Vandroid
p833
sVslidingmenu
p834
Vandroid
p835
sVandroid-sensors
p836
Vandroid
p837
sVuiimagepickercontroller
p838
Vios
p839
sVmonitoring
p840
Vjava
p841
sVthreadpool
p842
Vmultithreading
p843
sVsavon
p844
Vruby
p845
sVfps
p846
Vandroid
p847
sVload-data-infile
p848
Vmysql
p849
sVxhtml
p850
Vhtml
p851
sVuser-permissions
p852
Vpermissions
p853
sVexplorer
p854
Vwindows
p855
sVblobstore
p856
Vgoogle-app-engine
p857
sVioctl
p858
Vlinux
p859
sVdate
p860
Vphp
p861
sVactionmailer
p862
Vruby-on-rails
p863
sVdata
p864
Vphp
p865
sVgoogle-apps
p866
Vgoogle-apps-script
p867
sVcfml
p868
Vcoldfusion
p869
sVhtml-lists
p870
Vcss
p871
sVstdio
p872
g222
sVstdin
p873
g222
sVprototypal-inheritance
p874
Vjavascript
p875
sVsandbox
p876
Vosx
p877
sVsh
p878
Vbash
p879
sVlong-integer
p880
Vjava
p881
sVtty
p882
Vlinux
p883
sVjquery-dialog
p884
Vjquery
p885
sVwebpage
p886
Vhtml
p887
sVcloudbees
p888
Vjenkins
p889
sVpower-management
p890
Vandroid
p891
sVproguard
p892
Vandroid
p893
sVaccordion
p894
Vjquery
p895
sVasp.net-membership
p896
Vasp.net
p897
sVmethodology
p898
Vagile
p899
sVjit
p900
Vc#
p901
sVcache-control
p902
Vcaching
p903
sVchaining
p904
Vjquery
p905
sVstringbuilder
p906
Vjava
p907
sVrecords
p908
Vmysql
p909
sVmacvim
p910
Vvim
p911
sVlwuit
p912
Vjava-me
p913
sVdate-format
p914
Vjava
p915
sVretrieve
p916
Vphp
p917
sVc++
p918
g186
sVcanvas
p919
Vjavascript
p920
sVrounding
p921
Vc#
p922
sVmahout
p923
Vhadoop
p924
sVinternet
p925
Vandroid
p926
sVformula
p927
Vexcel
p928
sVlink-to
p929
Vruby-on-rails
p930
sVhibernate
p931
Vjava
p932
sVmime
p933
Vemail
p934
sVpostsharp
p935
Vc#
p936
sVbyte
p937
Vjava
p938
sVbootloader
p939
Vassembly
p940
sVuser-input
p941
Vjava
p942
sVocaml
p943
Vfunctional-programming
p944
sVseparator
p945
Vjava
p946
sVroutes
p947
Vruby-on-rails
p948
sVrouter
p949
Vnetworking
p950
sVsaving
p951
Vandroid
p952
sVvideo.js
p953
Vjavascript
p954
sVnested
p955
Vpython
p956
sVitextsharp
p957
Vc#
p958
sVopen
p959
Vfile
p960
sVuniqueidentifier
p961
Vsql-server
p962
sVnaudio
p963
Vc#
p964
sVflask-sqlalchemy
p965
Vpython
p966
sVfms
p967
Vflash
p968
sVparams
p969
Vruby-on-rails
p970
sVconstants
p971
Vphp
p972
sVstructures
p973
Vc
p974
sVprogress-bar
p975
Vandroid
p976
sVodp.net
p977
Voracle
p978
sVcrash-reports
p979
Vios
p980
sVpadding
p981
Vcss
p982
sVuiwindow
p983
Vios
p984
sVplsqldeveloper
p985
Voracle
p986
sVflashdevelop
p987
Vactionscript-3
p988
sVtypography
p989
Vcss
p990
sVlucene
p991
Vsolr
p992
sVfuture
p993
Vscala
p994
sVxpath
p995
Vxml
p996
sVsax
p997
Vxml
p998
sVc++0x
p999
Vc++
p1000
sVsap
p1001
Vabap
p1002
sVfacebook-graph-api
p1003
Vfacebook
p1004
sVsilverlight-4.0
p1005
Vsilverlight
p1006
sVuipopovercontroller
p1007
Vios
p1008
sVbackbone-views
p1009
Vbackbone.js
p1010
sVtcpdf
p1011
Vphp
p1012
sVzoo
p1013
g158
sVbackwards-compatibility
p1014
Vandroid
p1015
sVabsolute-path
p1016
Vrelative-path
p1017
sVmomentjs
p1018
Vjavascript
p1019
sVlocal-variables
p1020
Vjava
p1021
sVbcrypt
p1022
Vphp
p1023
sVbuffer
p1024
g186
sVpager
p1025
Vjquery
p1026
sVgoogle-places-api
p1027
Vgoogle-maps
p1028
sVtime-complexity
p1029
Valgorithm
p1030
sVtextarea
p1031
Vjavascript
p1032
sVc++-cx
p1033
Vwindows-runtime
p1034
sVaverage
p1035
Vsql
p1036
sVdrive
p1037
Vwindows
p1038
sVtestcase
p1039
Vunit-testing
p1040
sVactionscript-2
p1041
Vflash
p1042
sVsalt
p1043
Vhash
p1044
sVandroid-contentprovider
p1045
Vandroid
p1046
sVwindow-resize
p1047
Vjquery
p1048
sVlotus
p1049
Vlotus-notes
p1050
sVsynchronous
p1051
Vasynchronous
p1052
sVsubprocess
p1053
Vpython
p1054
sVprogramming-languages
p1055
Vjava
p1056
sVbytebuffer
p1057
Vjava
p1058
sVxml
p1059
Vc#
p1060
sVpython-3.2
p1061
Vpython
p1062
sVandroid-sdk-2.2
p1063
Vandroid
p1064
sVandroid-sdk-2.3
p1065
Vandroid
p1066
sVstreet-address
p1067
Vgoogle-maps
p1068
sVuiswitch
p1069
Vios
p1070
sVappharbor
p1071
Vc#
p1072
sVrounded-corners
p1073
Vcss
p1074
sVuitextview
p1075
Vios
p1076
sVzipfile
p1077
Vpython
p1078
sVclang
p1079
Vc++
p1080
sVinfowindow
p1081
Vgoogle-maps
p1082
sVandroid-layout
p1083
Vandroid
p1084
sVsettings
p1085
Vc#
p1086
sVissue-tracking
p1087
Vbug-tracking
p1088
sVtika
p1089
Vjava
p1090
sVwhere
p1091
Vmysql
p1092
sVinstallshield
p1093
Vwindows-installer
p1094
sVdatatables
p1095
Vjquery
p1096
sVsocket.io
p1097
Vnode.js
p1098
sVjavabeans
p1099
Vjava
p1100
sVserver-side
p1101
Vjavascript
p1102
sVowin
p1103
Vasp.net-mvc-5
p1104
sVsmooth-scrolling
p1105
Vjquery
p1106
sVjobs
p1107
Vjava
p1108
sVconditional-statements
p1109
Vphp
p1110
sVuml-modeling
p1111
Vjava
p1112
sVserialization
p1113
Vc#
p1114
sVspark
p1115
Vflex
p1116
sVkendo-asp.net-mvc
p1117
Vkendo-ui
p1118
sVrichfaces
p1119
Vjsf
p1120
sVexchange-server
p1121
Vc#
p1122
sVwindows-applications
p1123
Vc#
p1124
sVinfopath2010
p1125
Vsharepoint-2010
p1126
sVbufferedreader
p1127
Vjava
p1128
sVmkannotationview
p1129
Vios
p1130
sVmodal-dialog
p1131
Vjquery
p1132
sVnsarraycontroller
p1133
Vcocoa
p1134
sVexpression
p1135
Vc#
p1136
sVapplicationcontext
p1137
Vspring
p1138
sVworkflow-foundation-4
p1139
Vworkflow-foundation
p1140
sVurl-scheme
p1141
Vios
p1142
sVsystem-verilog
p1143
Vverilog
p1144
sVsearch-engine
p1145
Vsearch
p1146
sVspring-data
p1147
Vspring
p1148
sVtwig
p1149
Vsymfony2
p1150
sVmessagebox
p1151
Vc#
p1152
sVaccelerometer
p1153
Vandroid
p1154
sVstretch
p1155
Vcss
p1156
sVprototype
p1157
Vjavascript
p1158
sVgrid-layout
p1159
Vjava
p1160
sVsocketexception
p1161
Vjava
p1162
sVlibgdx
p1163
Vjava
p1164
sVgrayscale
p1165
Vimage
p1166
sVantivirus
p1167
Vc#
p1168
sVphotos
p1169
Vfacebook
p1170
sVhashtag
p1171
Vjquery
p1172
sVvariable-assignment
p1173
Vc++
p1174
sVbonjour
p1175
Vios
p1176
sVblowfish
p1177
Vencryption
p1178
sVroleprovider
p1179
Vasp.net
p1180
sValarmmanager
p1181
Vandroid
p1182
sVparse.com
p1183
Vios
p1184
sVgoogle-closure
p1185
Vjavascript
p1186
sVlayout-inflater
p1187
Vandroid
p1188
sVoledb
p1189
Vc#
p1190
sVblas
p1191
Vlapack
p1192
sVzend-studio
p1193
Vphp
p1194
sVconcatenation
p1195
Vstring
p1196
sVcoordinate-systems
p1197
Vcoordinates
p1198
sVcobol
p1199
Vmainframe
p1200
sVdatagridview
p1201
Vc#
p1202
sVascii
p1203
Vpython
p1204
sVivy
p1205
Vant
p1206
sVsmalltalk
p1207
Vpharo
p1208
sVbinary
p1209
Vc++
p1210
sVurl-encoding
p1211
Vurl
p1212
sVhostname
p1213
Vjava
p1214
sVcreateprocess
p1215
Vc++
p1216
sVsubdomain
p1217
V.htaccess
p1218
sVparcelable
p1219
Vandroid
p1220
sVrfid
p1221
Vnfc
p1222
sVallocation
p1223
Vmemory
p1224
sVopenldap
p1225
Vldap
p1226
sVvirtual-machine
p1227
Vvirtualbox
p1228
sVextern
p1229
Vc++
p1230
sVwpf
p1231
Vc#
p1232
sVlive-streaming
p1233
Vandroid
p1234
sVtracking
p1235
Vgoogle-analytics
p1236
sVundefined
p1237
Vjavascript
p1238
sVdata-modeling
p1239
Vdatabase-design
p1240
sVworklight
p1241
Vandroid
p1242
sVdimension
p1243
Vssas
p1244
sVresx
p1245
Vc#
p1246
sVnosql
p1247
Vmongodb
p1248
sVrest
p1249
Vjava
p1250
sVsitecore6
p1251
Vsitecore
p1252
sVgdb
p1253
Vdebugging
p1254
sVjshint
p1255
Vjavascript
p1256
sVgdi
p1257
Vwinapi
p1258
sVgreasemonkey
p1259
Vjavascript
p1260
sVgenerator
p1261
Vpython
p1262
sVruby-on-rails
p1263
Vruby
p1264
sVdjango-nonrel
p1265
Vdjango
p1266
sVd3.js
p1267
Vjavascript
p1268
sVpharo
p1269
Vsmalltalk
p1270
sVadsense
p1271
Vjavascript
p1272
sVstopwatch
p1273
Vc#
p1274
sVsprockets
p1275
Vruby-on-rails
p1276
sVbitmapdata
p1277
Vactionscript-3
p1278
sVrubygems
p1279
Vruby
p1280
sVlibc
p1281
g974
sVscreen-capture
p1282
Vc#
p1283
sVgestures
p1284
Vandroid
p1285
sVtraffic
p1286
Vandroid
p1287
sVpreference
p1288
Vandroid
p1289
sVenums
p1290
Vjava
p1291
sVaspectj
p1292
Vjava
p1293
sVparent-child
p1294
Vjquery
p1295
sVintel
p1296
Vassembly
p1297
sVstdmap
p1298
Vc++
p1299
sVjquery-ui-dialog
p1300
Vjquery
p1301
sVgrouping
p1302
Vsql
p1303
sVruntimeexception
p1304
Vandroid
p1305
sVconditional
p1306
Vphp
p1307
sVregex-negation
p1308
Vregex
p1309
sVshadowbox
p1310
Vjquery
p1311
sVstate-machines
p1312
Vruby-on-rails
p1313
sVdimensions
p1314
Vandroid
p1315
sVexif
p1316
Vphp
p1317
sVregular-language
p1318
Vregex
p1319
sVstring-literals
p1320
Vc++
p1321
sVmanaged-c++
p1322
Vc++
p1323
sVexit
p1324
Vandroid
p1325
sVddl
p1326
Vsql
p1327
sVtimeout
p1328
Vphp
p1329
sVruby-2.0
p1330
Vruby
p1331
sVqtip2
p1332
Vjquery
p1333
sVisset
p1334
Vphp
p1335
sVpackage
p1336
Vjava
p1337
sVacl
p1338
Vphp
p1339
sVacs
p1340
Vazure
p1341
sVpermalinks
p1342
Vwordpress
p1343
sVautotools
p1344
Vautomake
p1345
sVcontent-type
p1346
Vphp
p1347
sVrelativelayout
p1348
Vandroid
p1349
sVimage
p1350
Vphp
p1351
sVstringstream
p1352
Vc++
p1353
sVpivot
p1354
Vsql
p1355
sVsencha-touch-2.1
p1356
Vsencha-touch
p1357
sVmdm
p1358
Vios
p1359
sVhex
p1360
Vjava
p1361
sVemacs
p1362
Velisp
p1363
sVuiwebview
p1364
Vios
p1365
sVfunctional-programming
p1366
Vhaskell
p1367
sVspider
p1368
Vweb-crawler
p1369
sVlazy-evaluation
p1370
Vhaskell
p1371
sVandroid-asynctask
p1372
Vandroid
p1373
sVtaskbar
p1374
Vc#
p1375
sVuiimage
p1376
Vios
p1377
sVutf-16
p1378
Vutf-8
p1379
sVopenxml
p1380
Vc#
p1381
sVviewport
p1382
Vcss
p1383
sVpull
p1384
Vgit
p1385
sValgorithm
p1386
Vjava
p1387
sVcastle-activerecord
p1388
Vnhibernate
p1389
sVgraph-theory
p1390
Valgorithm
p1391
sVmysql-python
p1392
Vpython
p1393
sVdelphi-7
p1394
Vdelphi
p1395
sVdelphi-5
p1396
Vdelphi
p1397
sVmigrate
p1398
Vruby-on-rails
p1399
sVvirtualhost
p1400
Vapache
p1401
sVnested-loops
p1402
Vloops
p1403
sVcryptoapi
p1404
Vcryptography
p1405
sVobjective-c
p1406
Vios
p1407
sVquickbooks
p1408
Vintuit-partner-platform
p1409
sVajaxcontroltoolkit
p1410
Vasp.net
p1411
sVintrospection
p1412
Vpython
p1413
sVspatial
p1414
g16
sVnomethoderror
p1415
Vruby-on-rails
p1416
sVopenid
p1417
Vphp
p1418
sVrichtextbox
p1419
Vc#
p1420
sVautoresize
p1421
Vios
p1422
sVrpy2
p1423
Vpython
p1424
sVwhitespace
p1425
Vhtml
p1426
sVmasm
p1427
Vassembly
p1428
sVmask
p1429
Vjquery
p1430
sVraphael
p1431
Vjavascript
p1432
sVcpu
p1433
Vperformance
p1434
sVstrtotime
p1435
Vphp
p1436
sVscp
p1437
Vssh
p1438
sVruby
p1439
Vruby-on-rails
p1440
sVdatabase-backups
p1441
Vmysql
p1442
sVwindows-mobile-6.5
p1443
Vwindows-mobile
p1444
sVtk
p1445
Vtcl
p1446
sVsympy
p1447
Vpython
p1448
sVbasic-authentication
p1449
Vauthentication
p1450
sVjava-me
p1451
Vjava
p1452
sVcheckin
p1453
Vfacebook
p1454
sVresults
p1455
Vphp
p1456
sVgfortran
p1457
Vfortran
p1458
sVcondition
p1459
Vif-statement
p1460
sViphone-4
p1461
Viphone
p1462
sViphone-5
p1463
Vios
p1464
sVt4
p1465
Vc#
p1466
sVmicrosoft-sync-framework
p1467
Vc#
p1468
sVtoggle
p1469
Vjquery
p1470
sVsails.js
p1471
Vnode.js
p1472
sVpostmessage
p1473
Vjavascript
p1474
sVgridview
p1475
Vasp.net
p1476
sVbuild-process
p1477
Vbuild
p1478
sVsync
p1479
Vandroid
p1480
sVqml
p1481
Vqt
p1482
sVomniauth
p1483
Vruby-on-rails
p1484
sVschema.org
p1485
Vmicrodata
p1486
sVjbpm
p1487
Vjava
p1488
sVxor
p1489
Vencryption
p1490
sVclock
p1491
Vtime
p1492
sVinline-assembly
p1493
Vassembly
p1494
sVhomescreen
p1495
Vandroid
p1496
sVescaping
p1497
Vphp
p1498
sVobjectcontext
p1499
Ventity-framework
p1500
sVorg-mode
p1501
Vemacs
p1502
sVsql-insert
p1503
Vsql
p1504
sVlegend
p1505
g759
sVsubview
p1506
Viphone
p1507
sVemulator
p1508
Vandroid
p1509
sVsocial
p1510
Vfacebook
p1511
sVaction
p1512
Vjava
p1513
sVtesseract
p1514
Vocr
p1515
sVopenfire
p1516
Vxmpp
p1517
sVtmux
p1518
Vvim
p1519
sVvim
p1520
Vvimscript
p1521
sVselect
p1522
Vmysql
p1523
sVesri
p1524
Varcgis
p1525
sVoracle-apex
p1526
Voracle
p1527
sVexecutable
p1528
Vjava
p1529
sVfoxpro
p1530
Vvisual-foxpro
p1531
sVpreloader
p1532
Vjquery
p1533
sVplayframework-2.0
p1534
Vplayframework
p1535
sVplayframework-2.1
p1536
Vplayframework
p1537
sVplayframework-2.2
p1538
Vplayframework
p1539
sVrhel
p1540
Vlinux
p1541
sVtestunit
p1542
Vruby
p1543
sVasyncsocket
p1544
Vsockets
p1545
sVgsm
p1546
Vsms
p1547
sVbxslider
p1548
Vjquery
p1549
sVappdomain
p1550
Vc#
p1551
sVwebkit
p1552
Vcss
p1553
sVfancybox-2
p1554
Vjquery
p1555
sVendpoint
p1556
Vwcf
p1557
sVsql-azure
p1558
Vazure
p1559
sVautocomplete
p1560
Vjquery
p1561
sVazure-web-roles
p1562
Vazure
p1563
sVuiactivityviewcontroller
p1564
Vios
p1565
sVprompt
p1566
Vjavascript
p1567
sVscan
p1568
Vjava
p1569
sVthread-sleep
p1570
Vjava
p1571
sVvisual-studio-debugging
p1572
Vdebugging
p1573
sVcllocationmanager
p1574
Vios
p1575
sVtapestry
p1576
Vjava
p1577
sVaxis
p1578
Vjava
p1579
sVgit-commit
p1580
Vgit
p1581
sVaxis2
p1582
Vjava
p1583
sVmachine-learning
p1584
Vpython
p1585
sVresultset
p1586
Vjava
p1587
sVmapping
p1588
Vjava
p1589
sVxul
p1590
Vfirefox-addon
p1591
sVbioinformatics
p1592
Vpython
p1593
sVfreepascal
p1594
Vdelphi
p1595
sVlifecycle
p1596
Vandroid
p1597
sVargparse
p1598
Vpython
p1599
sVappcelerator-mobile
p1600
Vtitanium
p1601
sVgithub
p1602
Vgit
p1603
sVparameterized
p1604
Vjava
p1605
sVdjango
p1606
Vpython
p1607
sVnvidia
p1608
Vcuda
p1609
sVcheckbox
p1610
Vjquery
p1611
sVinstaller
p1612
Vwix
p1613
sVstreamwriter
p1614
Vc#
p1615
sVexit-code
p1616
Vbash
p1617
sVstackpanel
p1618
Vwpf
p1619
sVdynamic-linq
p1620
Vlinq
p1621
sVinternet-explorer
p1622
Vjavascript
p1623
sVbuffering
p1624
Vphp
p1625
sVassemblies
p1626
V.net
p1627
sVgitlab
p1628
Vgit
p1629
sVhotkeys
p1630
Vc#
p1631
sVgradle
p1632
Vandroid
p1633
sVasp.net-2.0
p1634
Vasp.net
p1635
sVwindows-phone
p1636
Vwindows-phone-8
p1637
sVgpu-programming
p1638
Vcuda
p1639
sVselectbox
p1640
Vjquery
p1641
sVbluej
p1642
Vjava
p1643
sVoperator-precedence
p1644
g974
sVwindows-server
p1645
Viis
p1646
sVqr-code
p1647
Vandroid
p1648
sVreduce
p1649
Vhadoop
p1650
sVcrontab
p1651
Vcron
p1652
sVexpandablelistview
p1653
Vandroid
p1654
sVcontent-management-system
p1655
Vphp
p1656
sVhadoop-streaming
p1657
Vhadoop
p1658
sVdistributed-transactions
p1659
Vtransactions
p1660
sVscribe
p1661
Vjava
p1662
sVftp
p1663
Vphp
p1664
sVandroid-source
p1665
Vandroid
p1666
sVoffline
p1667
Vhtml5
p1668
sVmedia-queries
p1669
Vcss
p1670
sVautofac
p1671
Vc#
p1672
sVintrinsics
p1673
Vsse
p1674
sVlocalization
p1675
Vc#
p1676
sVproxy
p1677
Vjava
p1678
sVxslt-2.0
p1679
Vxslt
p1680
sVdefinition
p1681
Vc++
p1682
sVwolfram-mathematica
p1683
Vplot
p1684
sVdjango-forms
p1685
Vdjango
p1686
sVpositioning
p1687
Vcss
p1688
sVcastle
p1689
Vcastle-windsor
p1690
sVweb-standards
p1691
Vhtml
p1692
sVoperator-overloading
p1693
Vc++
p1694
sVnewtonsoft
p1695
Vc#
p1696
sVjet
p1697
Vms-access
p1698
sVfaceted-search
p1699
Vsolr
p1700
sVswipe
p1701
Vandroid
p1702
sVsublimetext2
p1703
Vsublimetext
p1704
sVsublimetext3
p1705
Vsublimetext
p1706
sVsilverstripe
p1707
Vphp
p1708
sVrelationship
p1709
Vruby-on-rails
p1710
sVexpression-trees
p1711
Vc#
p1712
sVfilesystems
p1713
Vlinux
p1714
sVhtml-select
p1715
Vhtml
p1716
sVserializable
p1717
Vjava
p1718
sVtortoisehg
p1719
Vmercurial
p1720
sVphpmailer
p1721
Vphp
p1722
sVaac
p1723
Vaudio
p1724
sVinput-validation
p1725
Vjquery
p1726
sVbho
p1727
Vinternet-explorer
p1728
sVflexigrid
p1729
Vjquery
p1730
sVmootools
p1731
Vjavascript
p1732
sVwysiwyg
p1733
Vjavascript
p1734
sVnsurl
p1735
Vios
p1736
sVform-submit
p1737
Vjquery
p1738
sVpyserial
p1739
Vpython
p1740
sVcollapse
p1741
Vjquery
p1742
sVgoogle-code
p1743
Vsvn
p1744
sVpy2exe
p1745
Vpython
p1746
sVself
p1747
Vpython
p1748
sVdynamics-crm-online
p1749
Vdynamics-crm-2011
p1750
sVinternal
p1751
Vandroid
p1752
sVvmware
p1753
Vvirtual-machine
p1754
sValsa
p1755
Vlinux
p1756
sVcube
p1757
Vssas
p1758
sVx++
p1759
Vaxapta
p1760
sVsts-springsourcetoolsuite
p1761
Veclipse
p1762
sVconditional-formatting
p1763
Vexcel
p1764
sVexe
p1765
Vc#
p1766
sVphonegap
p1767
Vandroid
p1768
sVgsoap
p1769
Vc++
p1770
sVmicrosoft
p1771
Vc#
p1772
sVwsgi
p1773
Vpython
p1774
sVxcode
p1775
Vios
p1776
sVbinary-tree
p1777
Valgorithm
p1778
sVsql-server-2005
p1779
Vsql
p1780
sVsession
p1781
Vphp
p1782
sVftp-client
p1783
Vftp
p1784
sVresourcedictionary
p1785
Vwpf
p1786
sVhornetq
p1787
Vjms
p1788
sVblender
p1789
Vpython
p1790
sVwifi-direct
p1791
Vandroid
p1792
sVkeychain
p1793
Vios
p1794
sVin-app-purchase
p1795
Vios
p1796
sVfileapi
p1797
Vjavascript
p1798
sVhtml-email
p1799
Vemail
p1800
sVscala-collections
p1801
Vscala
p1802
sVsqliteopenhelper
p1803
Vandroid
p1804
sVsynchronization
p1805
Vjava
p1806
sV.each
p1807
Vjquery
p1808
sVflexbuilder
p1809
Vflex
p1810
sVhorizontal-scrolling
p1811
Vcss
p1812
sVsublimetext
p1813
Vsublimetext2
p1814
sVbanner
p1815
Vandroid
p1816
sVxml-parsing
p1817
Vxml
p1818
sV3g
p1819
Vandroid
p1820
sVrake-task
p1821
Vruby-on-rails
p1822
sVcrc
p1823
Vchecksum
p1824
sVgraph-databases
p1825
Vneo4j
p1826
sVmagicalrecord
p1827
Vcore-data
p1828
sV3d
p1829
Vopengl
p1830
sVcrm
p1831
Vdynamics-crm-2011
p1832
sVset
p1833
Vjava
p1834
sViteration
p1835
Vpython
p1836
sVjade
p1837
Vnode.js
p1838
sVstartup
p1839
Vc#
p1840
sVipod-touch
p1841
Viphone
p1842
sVsed
p1843
Vbash
p1844
sVfileoutputstream
p1845
Vjava
p1846
sVseo
p1847
Vphp
p1848
sVcontour
p1849
Vopencv
p1850
sVproject
p1851
Veclipse
p1852
sVprotobuf-net
p1853
Vc#
p1854
sVmovie
p1855
Viphone
p1856
sVitunesconnect
p1857
Vios
p1858
sVliquibase
p1859
Vjava
p1860
sVmutex
p1861
Vmultithreading
p1862
sVscreen-orientation
p1863
Vandroid
p1864
sVimagemagick
p1865
Vphp
p1866
sVxslt
p1867
Vxml
p1868
sVjapplet
p1869
Vjava
p1870
sVselectlist
p1871
Vasp.net-mvc
p1872
sVjavascript
p1873
Vjquery
p1874
sVintegration-testing
p1875
Vunit-testing
p1876
sVinterface
p1877
Vc#
p1878
sVhyperlink
p1879
Vhtml
p1880
sVglkit
p1881
Vios
p1882
sVfacebox
p1883
Vjquery
p1884
sVpdo
p1885
Vphp
p1886
sVimagebutton
p1887
Vandroid
p1888
sVconnection
p1889
Vjava
p1890
sVpdf
p1891
Vphp
p1892
sVksoap2
p1893
Vandroid
p1894
sVload
p1895
Vjquery
p1896
sVgeolocation
p1897
Vandroid
p1898
sVmarkdown
p1899
Vhtml
p1900
sVdatediff
p1901
Vsql
p1902
sVweb-config
p1903
Vasp.net
p1904
sVdata-migration
p1905
Vsql-server
p1906
sVcompass-geolocation
p1907
Vandroid
p1908
sVpublishing
p1909
Vandroid
p1910
sVextension-methods
p1911
Vc#
p1912
sVbreadth-first-search
p1913
Valgorithm
p1914
sVangular-ui
p1915
Vangularjs
p1916
sVandroid-cursoradapter
p1917
Vandroid
p1918
sVsystem.io
p1919
Vc#
p1920
sVkerberos
p1921
Vjava
p1922
sVmultidimensional-array
p1923
Varrays
p1924
sVoverloading
p1925
Vc++
p1926
sVqtableview
p1927
Vqt
p1928
sVfunc
p1929
Vc#
p1930
sVhandling
p1931
Vexception
p1932
sVoptimization
p1933
Vperformance
p1934
sVandroid-browser
p1935
Vandroid
p1936
sVdrawable
p1937
Vandroid
p1938
sVexpander
p1939
Vwpf
p1940
sVnivoslider
p1941
Vjquery
p1942
sVcalculator
p1943
Vjava
p1944
sVcode-coverage
p1945
Vunit-testing
p1946
sVbinding
p1947
Vwpf
p1948
sVforeign-key-relationship
p1949
Vmysql
p1950
sVhover
p1951
Vjquery
p1952
sVsignal-processing
p1953
Vaudio
p1954
sVvaadin
p1955
Vjava
p1956
sVkeystore
p1957
Vjava
p1958
sVx64
p1959
Vc++
p1960
sVangular-ui-bootstrap
p1961
Vangularjs
p1962
sVmatlab-figure
p1963
Vmatlab
p1964
sVuniversal-image-loader
p1965
Vandroid
p1966
sVuiactivityindicatorview
p1967
Vios
p1968
sValert
p1969
Vjavascript
p1970
sVcucumber
p1971
Vruby-on-rails
p1972
sVmousemove
p1973
Vjquery
p1974
sVtsql
p1975
Vsql-server
p1976
sVstack
p1977
Vc++
p1978
sVdecompiler
p1979
Vjava
p1980
sVng-grid
p1981
Vangularjs
p1982
sVlwjgl
p1983
Vjava
p1984
sVgoogle-webmaster-tools
p1985
Vseo
p1986
sVuser-defined-functions
p1987
Vsql-server
p1988
sVmysql
p1989
Vphp
p1990
sVspring-transactions
p1991
Vspring
p1992
sVconditional-compilation
p1993
Vc#
p1994
sVsetup-project
p1995
Vc#
p1996
sVsidebar
p1997
Vwordpress
p1998
sVindexof
p1999
Vjavascript
p2000
sVsignals
p2001
Vc
p2002
sVsignalr
p2003
Vc#
p2004
sVlocation
p2005
Vandroid
p2006
sVfacebook-wall
p2007
Vfacebook
p2008
sVinput
p2009
Vjquery
p2010
sVgame-physics
p2011
Vphysics
p2012
sVformat
p2013
Vdate
p2014
sVheader-files
p2015
Vc++
p2016
sVaugmented-reality
p2017
Vandroid
p2018
sVtire
p2019
Velasticsearch
p2020
sVenumerable
p2021
Vruby
p2022
sVprojects
p2023
Vc#
p2024
sVjava-3d
p2025
Vjava
p2026
sVsorting
p2027
Varrays
p2028
sVd
p2029
Vd2
p2030
sVmarquee
p2031
Vhtml
p2032
sVscapy
p2033
Vpython
p2034
sVimagick
p2035
Vphp
p2036
sVwindows-store-apps
p2037
Vc#
p2038
sVclipping
p2039
Vandroid
p2040
sVmethods
p2041
Vjava
p2042
sVspring
p2043
Vjava
p2044
sVwxpython
p2045
Vpython
p2046
sVvirtualenv
p2047
Vpython
p2048
sVnetbeans-platform
p2049
Vjava
p2050
sVlayout-manager
p2051
Vjava
p2052
sVrails-postgresql
p2053
Vruby-on-rails
p2054
sVtelerik
p2055
Vasp.net
p2056
sVteradata
p2057
Vsql
p2058
sVandroid-maps-v2
p2059
Vandroid
p2060
sVmethod-overloading
p2061
Vc#
p2062
sVgoogle-mirror-api
p2063
Vgoogle-glass
p2064
sVwget
p2065
Vlinux
p2066
sVb-tree
p2067
Vdata-structures
p2068
sVrelational-database
p2069
Vdatabase
p2070
sVanti-patterns
p2071
Vdesign-patterns
p2072
sVasmack
p2073
Vandroid
p2074
sVjasperserver
p2075
Vjasper-reports
p2076
sVandroid-gradle
p2077
Vandroid
p2078
sVmedia-player
p2079
Vandroid
p2080
sVembedded-jetty
p2081
Vjetty
p2082
sVpcre
p2083
Vregex
p2084
sVspan
p2085
Vhtml
p2086
sVspam
p2087
Vemail
p2088
sVjax-rs
p2089
Vjava
p2090
sVsubmit
p2091
Vforms
p2092
sVbios
p2093
Vassembly
p2094
sVmstest
p2095
Vunit-testing
p2096
sVaddeventlistener
p2097
Vjavascript
p2098
sVeventkit
p2099
Vios
p2100
sVlinux-kernel
p2101
Vlinux
p2102
sVlint
p2103
Vandroid
p2104
sVlinq
p2105
Vc#
p2106
sVdata-storage
p2107
Vandroid
p2108
sVatom
p2109
Vrss
p2110
sVline
p2111
Vjava
p2112
sVcin
p2113
Vc++
p2114
sVcil
p2115
V.net
p2116
sVfile-sharing
p2117
Vios
p2118
sVverification
p2119
Vphp
p2120
sVdoc
p2121
Vpdf
p2122
sVpropertygrid
p2123
Vc#
p2124
sVplayframework-1.x
p2125
Vplayframework
p2126
sVunsafe
p2127
Vc#
p2128
sVchar
p2129
g186
sVfgets
p2130
g2002
sVchat
p2131
Vphp
p2132
sVparsec
p2133
Vhaskell
p2134
sVamqp
p2135
Vrabbitmq
p2136
sVgnuplot
p2137
Vplot
p2138
sVscrape
p2139
Vphp
p2140
sVscrapy
p2141
Vpython
p2142
sVcodec
p2143
Vvideo
p2144
sVactiveresource
p2145
Vruby-on-rails
p2146
sVrevision
p2147
Vsvn
p2148
sVelements
p2149
Vjquery
p2150
sVmemory-mapped-files
p2151
Vc#
p2152
sVscrum
p2153
Vagile
p2154
sVdynamic-linking
p2155
Vc++
p2156
sVlinq-to-sql
p2157
Vc#
p2158
sVwindows-phone-7.5
p2159
Vc#
p2160
sVwindows-phone-7.1
p2161
Vwindows-phone-7
p2162
sVoracle
p2163
Vsql
p2164
sVselenium-rc
p2165
Vselenium
p2166
sVhaving
p2167
Vsql
p2168
sVpartial
p2169
Vruby-on-rails
p2170
sVhashmap
p2171
Vjava
p2172
sVkernel-programming
p2173
Vlinux
p2174
sVbigdata
p2175
Vhadoop
p2176
sVgoogle-drive
p2177
Vgoogle-drive-sdk
p2178
sVclean-urls
p2179
V.htaccess
p2180
sVcython
p2181
Vpython
p2182
sVsend
p2183
Vemail
p2184
sVjavascript-library
p2185
Vjavascript
p2186
sVmulticore
p2187
Vmultithreading
p2188
sVlistviewitem
p2189
Vlistview
p2190
sVgetline
p2191
Vc++
p2192
sVresources
p2193
Vandroid
p2194
sVunzip
p2195
Vzip
p2196
sVmixins
p2197
Vruby
p2198
sVpagination
p2199
Vphp
p2200
sVspring.net
p2201
Vc#
p2202
sVgtk3
p2203
Vpython
p2204
sVgtk+
p2205
Vpython
p2206
sVsyntax
p2207
Vphp
p2208
sVcategories
p2209
Vwordpress
p2210
sVgtk#
p2211
NsVentitymanager
p2212
Vjpa
p2213
sVcontenteditable
p2214
Vjavascript
p2215
sViscroll
p2216
Vjquery
p2217
sVrack
p2218
Vruby
p2219
sVbiztalk
p2220
Vbiztalk-2010
p2221
sVasp-classic
p2222
Vvbscript
p2223
sVsingle-page-application
p2224
Vjavascript
p2225
sVvideo
p2226
Vandroid
p2227
sVicalendar
p2228
Vphp
p2229
sVsql-server-2008
p2230
Vsql
p2231
sVindex
p2232
Vmysql
p2233
sVhtml-helper
p2234
Vasp.net-mvc
p2235
sVgit-clone
p2236
Vgit
p2237
sVdirective
p2238
Vangularjs
p2239
sVsql-server-2000
p2240
Vsql-server
p2241
sVmultimedia
p2242
Vandroid
p2243
sVbirt
p2244
Vjava
p2245
sVbox2d
p2246
Vcocos2d-iphone
p2247
sVheatmap
p2248
Vr
p2249
sVremote-debugging
p2250
Vdebugging
p2251
sVslidingdrawer
p2252
Vandroid
p2253
sVsoftware-distribution
p2254
Vlicensing
p2255
sVwireshark
p2256
Vnetworking
p2257
sVwinapi
p2258
Vc++
p2259
sVoctave
p2260
Vmatlab
p2261
sVubuntu
p2262
Vlinux
p2263
sVlex
p2264
Vyacc
p2265
sVopenmp
p2266
Vc++
p2267
sVsunspot-rails
p2268
Vsunspot
p2269
sVrdp
p2270
Vremote-desktop
p2271
sVreceive
p2272
Vandroid
p2273
sVdate-range
p2274
Vsql
p2275
sVgetter-setter
p2276
Vjava
p2277
sVwcf-ria-services
p2278
Vsilverlight
p2279
sVvoice-recognition
p2280
Vandroid
p2281
sVrdf
p2282
Vsparql
p2283
sVsurvey
p2284
Vphp
p2285
sVderby
p2286
Vjava
p2287
sVentity-relationship
p2288
Vdatabase-design
p2289
sVkeylistener
p2290
Vjava
p2291
sVjava-io
p2292
Vjava
p2293
sVangularjs-scope
p2294
Vangularjs
p2295
sVfirefox
p2296
Vjavascript
p2297
sVvhosts
p2298
Vapache
p2299
sVinstantiation
p2300
Vjava
p2301
sVbazaar
p2302
Vversion-control
p2303
sVzip
p2304
Vjava
p2305
sVgoogle-app-engine
p2306
Vpython
p2307
sVnext
p2308
Vjquery
p2309
sVcss-sprites
p2310
Vcss
p2311
sVlcdui
p2312
Vjava-me
p2313
sVslim
p2314
Vphp
p2315
sVviewgroup
p2316
Vandroid
p2317
sVldap
p2318
Vactive-directory
p2319
sVscheduled-tasks
p2320
Vc#
p2321
sVbundling-and-minification
p2322
Vasp.net-mvc-4
p2323
sVsqldatasource
p2324
Vasp.net
p2325
sVportability
p2326
Vc++
p2327
sVthis
p2328
Vjavascript
p2329
sVtwitter-oauth
p2330
Vtwitter
p2331
sVthin
p2332
Vruby-on-rails
p2333
sVnsdatecomponents
p2334
Vnsdate
p2335
sVactiveadmin
p2336
Vruby-on-rails
p2337
sVbusiness-objects
p2338
Vc#
p2339
sVrefinerycms
p2340
Vruby-on-rails
p2341
sVnative-code
p2342
Vandroid
p2343
sVprocess
p2344
Vc#
p2345
sVfile-descriptor
p2346
g186
sVjavadoc
p2347
Vjava
p2348
sVfprintf
p2349
g2002
sVimage-scaling
p2350
Vimage
p2351
sVmalware
p2352
Vphp
p2353
sVkey-value-observing
p2354
Vobjective-c
p2355
sVfacebook-sdk-3.0
p2356
Vfacebook
p2357
sVnvd3.js
p2358
Vd3.js
p2359
sVdelay
p2360
Vjquery
p2361
sVnpm
p2362
Vnode.js
p2363
sVsession-cookies
p2364
Vcookies
p2365
sVtcsh
p2366
Vshell
p2367
sVurl-rewriting
p2368
V.htaccess
p2369
sVwallpaper
p2370
Vandroid
p2371
sVqtwebkit
p2372
Vqt
p2373
sVout-of-memory
p2374
Vandroid
p2375
sVcounter
p2376
Vphp
p2377
sVelement
p2378
Vjquery
p2379
sVnancy
p2380
Vc#
p2381
sVosgi
p2382
Vjava
p2383
sVface-recognition
p2384
Vopencv
p2385
sVjqgrid-asp.net
p2386
Vjqgrid
p2387
sVmove
p2388
Vc++
p2389
sVjoptionpane
p2390
Vjava
p2391
sVcomma
p2392
Vphp
p2393
sVfacebook-c#-sdk
p2394
NsVofstream
p2395
Vc++
p2396
sVdirectx
p2397
Vc++
p2398
sVartifactory
p2399
Vmaven
p2400
sVdispose
p2401
Vc#
p2402
sVgoogle-charts-api
p2403
Vjavascript
p2404
sVcommunication
p2405
Vjava
p2406
sVhttpcontext
p2407
Vasp.net
p2408
sVdata-type-conversion
p2409
Vjava
p2410
sVdocx
p2411
Vc#
p2412
sVpython
p2413
Vdjango
p2414
sVsystem.reactive
p2415
Vc#
p2416
sVdock
p2417
Vosx
p2418
sVrotation
p2419
Vandroid
p2420
sVtransparent
p2421
Vandroid
p2422
sVpostgresql-9.1
p2423
Vpostgresql
p2424
sVpostgresql-9.2
p2425
Vpostgresql
p2426
sVruby-1.9
p2427
Vruby
p2428
sVmerge
p2429
Vgit
p2430
sVoncreate
p2431
Vandroid
p2432
sVcomplexity-theory
p2433
Valgorithm
p2434
sVsubset
p2435
g16
sVapp-config
p2436
Vc#
p2437
sVmeta
p2438
Vhtml
p2439
sVstatic
p2440
Vjava
p2441
sVcpanel
p2442
Vphp
p2443
sVknockout-2.0
p2444
Vknockout.js
p2445
sVbpel
p2446
Vsoa
p2447
sVankhsvn
p2448
Vsvn
p2449
sVmatrix
p2450
Vmatlab
p2451
sVkohana-3
p2452
Vkohana
p2453
sVandroid-gcm
p2454
Vandroid
p2455
sVspecifications
p2456
Vjava
p2457
sVunderscore.js
p2458
Vjavascript
p2459
sVcore-bluetooth
p2460
Vios
p2461
sVm2e
p2462
Vmaven
p2463
sVsendmail
p2464
Vphp
p2465
sVsubclipse
p2466
Vsvn
p2467
sVthrust
p2468
Vcuda
p2469
sVmule-studio
p2470
Vmule
p2471
sVgit-merge
p2472
Vgit
p2473
sVmvvmcross
p2474
Vxamarin
p2475
sVandroid-image
p2476
Vandroid
p2477
sVuibezierpath
p2478
Vios
p2479
sVunobtrusive-javascript
p2480
Vjavascript
p2481
sVstruts-1
p2482
Vjava
p2483
sVweb.xml
p2484
Vjava
p2485
sVabstract-class
p2486
Vjava
p2487
sVreference
p2488
Vc++
p2489
sVordering
p2490
Vmysql
p2491
sVsystem
p2492
Vphp
p2493
sVsticky-footer
p2494
Vcss
p2495
sVcore-foundation
p2496
Vobjective-c
p2497
sVcontextmenu
p2498
Vwpf
p2499
sVgwt-rpc
p2500
Vgwt
p2501
sVlibusb
p2502
Vusb
p2503
sVsubroutine
p2504
Vperl
p2505
sVsimd
p2506
Vsse
p2507
sVjscrollpane
p2508
Vjava
p2509
sVtimepicker
p2510
Vandroid
p2511
sVviewer
p2512
Vpdf
p2513
sVlines
p2514
Vpython
p2515
sVcobertura
p2516
Vjava
p2517
sVreverse-geocoding
p2518
Vgoogle-maps
p2519
sVsysadmin
p2520
Vlinux
p2521
sVlike-operator
p2522
Vsql
p2523
sVselectors
p2524
Vjquery
p2525
sVasp.net
p2526
Vc#
p2527
sVlotusscript
p2528
Vlotus-notes
p2529
sVsinatra
p2530
Vruby
p2531
sVjboss7.x
p2532
Vjava
p2533
sVsoap
p2534
Vweb-services
p2535
sVpersistence
p2536
Vjava
p2537
sVimplicit-conversion
p2538
Vscala
p2539
sVobserver-pattern
p2540
Vjava
p2541
sVwso2carbon
p2542
Vwso2
p2543
sVcipher
p2544
Vjava
p2545
sVsimplecursoradapter
p2546
Vandroid
p2547
sVdevice
p2548
Vandroid
p2549
sVcomparison
p2550
Vjava
p2551
sVoracle11g
p2552
Voracle
p2553
sVanimated-gif
p2554
Vgif
p2555
sVdata-transfer
p2556
Vandroid
p2557
sVdbi
p2558
Vperl
p2559
sVatmosphere
p2560
Vjava
p2561
sVterminate
p2562
Vmultithreading
p2563
sVdbf
p2564
Vc#
p2565
sVforceclose
p2566
Vandroid
p2567
sVredirect
p2568
V.htaccess
p2569
sVrestlet
p2570
Vjava
p2571
sVremoveclass
p2572
Vjquery
p2573
sVjar
p2574
Vjava
p2575
sVjstree
p2576
Vjquery
p2577
sVterminal
p2578
Vosx
p2579
sVgoogle-street-view
p2580
Vgoogle-maps
p2581
sVdjango-urls
p2582
Vdjango
p2583
sVhandle
p2584
Vc#
p2585
sVlistener
p2586
Vandroid
p2587
sVtableadapter
p2588
Vc#
p2589
sVeclipse-kepler
p2590
Veclipse
p2591
sVdb2
p2592
Vsql
p2593
sVmemcpy
p2594
g2002
sVandroid-camera
p2595
Vandroid
p2596
sVaes
p2597
Vencryption
p2598
sVrebase
p2599
Vgit
p2600
sVasp.net-mvc-2
p2601
Vasp.net-mvc
p2602
sVhmvc
p2603
Vcodeigniter
p2604
sVqtp
p2605
Vvbscript
p2606
sVframe
p2607
Vjava
p2608
sVpacket
p2609
Vnetworking
p2610
sVdialog
p2611
Vandroid
p2612
sVjqplot
p2613
Vjquery
p2614
sVms-dos
p2615
Vbatch-file
p2616
sVsql-update
p2617
Vsql
p2618
sVverilog
p2619
Vsystem-verilog
p2620
sVemail
p2621
Vphp
p2622
sVqt4
p2623
Vqt
p2624
sVqt5
p2625
Vqt
p2626
sVsuperfish
p2627
Vjquery
p2628
sVjsdoc
p2629
Vjavascript
p2630
sVconfiguration
p2631
Vjava
p2632
sVruntime-error
p2633
Vjava
p2634
sVtls
p2635
Vhttps
p2636
sVdoxygen
p2637
Vc++
p2638
sVvalgrind
p2639
g222
sVmsdtc
p2640
Vtransactions
p2641
sVuiactionsheet
p2642
Vios
p2643
sVetl
p2644
Vssis
p2645
sVandroid-wifi
p2646
Vandroid
p2647
sVnstimer
p2648
Vobjective-c
p2649
sVevent-handling
p2650
Vc#
p2651
sVchromium
p2652
Vgoogle-chrome
p2653
sVmailto
p2654
Vhtml
p2655
sVlist-comprehension
p2656
Vpython
p2657
sVandroid-dialogfragment
p2658
Vandroid
p2659
sVfiremonkey
p2660
Vdelphi
p2661
sVsweave
p2662
g16
sVimage-recognition
p2663
Vimage-processing
p2664
sVurl-routing
p2665
Vphp
p2666
sVobjective-c++
p2667
Vobjective-c
p2668
sVc#
p2669
NsVopenvpn
p2670
Vvpn
p2671
sVtycho
p2672
Vmaven
p2673
sVlocal-storage
p2674
Vjavascript
p2675
sVblackberry-eclipse-plugin
p2676
Vblackberry
p2677
sVgraphics
p2678
Vjava
p2679
sVsortable
p2680
Vjquery
p2681
sVcvs
p2682
Vversion-control
p2683
sVframeworks
p2684
Vphp
p2685
sVintranet
p2686
Vasp.net
p2687
sVvi
p2688
Vvim
p2689
sVhardware
p2690
Vandroid
p2691
sVimagemap
p2692
Vhtml
p2693
sVpassbook
p2694
Vios
p2695
sVstdstring
p2696
Vc++
p2697
sVdataview
p2698
Vc#
p2699
sVdompdf
p2700
Vphp
p2701
sVrailstutorial.org
p2702
Vruby-on-rails
p2703
sVandroid
p2704
Vjava
p2705
sVopenoffice-calc
p2706
Vopenoffice.org
p2707
sVmailchimp
p2708
Vphp
p2709
sVv8
p2710
Vjavascript
p2711
sVphp
p2712
Vmysql
p2713
sVxcode5
p2714
Vios
p2715
sVxcode4
p2716
Vxcode
p2717
sVaudit
p2718
Vsql-server
p2719
sVcode-reuse
p2720
Vc#
p2721
sVrelative-path
p2722
Vphp
p2723
sVpatterns
p2724
Vc#
p2725
sVcommand
p2726
Vwpf
p2727
sVaudio
p2728
Vandroid
p2729
sVdrawing
p2730
Vc#
p2731
sVipad-splitview
p2732
Vipad
p2733
sVless
p2734
Vcss
p2735
sVglut
p2736
Vopengl
p2737
sVbusiness-logic
p2738
Vc#
p2739
sVweb
p2740
Vjavascript
p2741
sVvirtual-memory
p2742
Voperating-system
p2743
sVnstextview
p2744
Vcocoa
p2745
sVspinner
p2746
Vandroid
p2747
sVlattice
p2748
g2249
sVpublish-subscribe
p2749
Vjavascript
p2750
sVccsprite
p2751
Vcocos2d-iphone
p2752
sVprimefaces
p2753
Vjsf
p2754
sVcss3
p2755
Vcss
p2756
sVhabtm
p2757
Vruby-on-rails
p2758
sVmorphia
p2759
Vmongodb
p2760
sVcrud
p2761
Vphp
p2762
sVbit-manipulation
p2763
g2002
sVheight
p2764
Vcss
p2765
sVsamsung-mobile
p2766
Vandroid
p2767
sVdatabase-replication
p2768
Vmysql
p2769
sVlambda-functions
p2770
Vc#
p2771
sVvisualsvn
p2772
Vsvn
p2773
sVmsbuild-task
p2774
Vmsbuild
p2775
sVavcapturesession
p2776
Vios
p2777
sVdbus
p2778
Vpython
p2779
sVvsx
p2780
Vvisual-studio
p2781
sVgcc-warning
p2782
Vgcc
p2783
sVgevent
p2784
Vpython
p2785
sVflush
p2786
Vphp
p2787
sVnested-attributes
p2788
Vruby-on-rails
p2789
sVmarklogic
p2790
Vxquery
p2791
sVpreload
p2792
Vjquery
p2793
sVschedule
p2794
Vjava
p2795
sVimporterror
p2796
Vpython
p2797
sVieee-754
p2798
Vfloating-point
p2799
sVsymlink
p2800
Vlinux
p2801
sVmaven
p2802
Vjava
p2803
sVdataannotations
p2804
Vasp.net-mvc
p2805
sVsqlconnection
p2806
Vc#
p2807
sVsigabrt
p2808
Vios
p2809
sVstage
p2810
Vactionscript-3
p2811
sVhaproxy
p2812
Vload-balancing
p2813
sVtrue-type-fonts
p2814
Vfonts
p2815
sVrichtext
p2816
Vc#
p2817
sVconstraints
p2818
Vsql
p2819
sVuiviewcontroller
p2820
Vios
p2821
sVpassword-protection
p2822
Vphp
p2823
sVafnetworking-2
p2824
Vios
p2825
sVqmake
p2826
Vqt
p2827
sVnavigationbar
p2828
Vcss
p2829
sVvirtualbox
p2830
Vvirtual-machine
p2831
sVflash-cs3
p2832
Vactionscript-3
p2833
sVdatabase-project
p2834
Vvisual-studio-2010
p2835
sVflash-cs6
p2836
Vactionscript-3
p2837
sVpython-3.3
p2838
Vpython
p2839
sVflash-cs4
p2840
Vactionscript-3
p2841
sVflash-cs5
p2842
Vactionscript-3
p2843
sVappfabric
p2844
Vcaching
p2845
sVdynamic-sql
p2846
Vsql
p2847
sVstreamreader
p2848
Vc#
p2849
sVfunction
p2850
Vjavascript
p2851
sVnumerical-methods
p2852
Vmatlab
p2853
sVoverlapping
p2854
Vcss
p2855
sVautomapper
p2856
Vc#
p2857
sVcount
p2858
Vmysql
p2859
sVhtmlunit
p2860
Vjava
p2861
sVpython-3.x
p2862
Vpython
p2863
sVsmooth
p2864
Vjquery
p2865
sVcocos2d-iphone
p2866
Viphone
p2867
sVr.java-file
p2868
Vandroid
p2869
sVfrequency
p2870
Vaudio
p2871
sVcocoa-touch
p2872
Vobjective-c
p2873
sVandroid-listfragment
p2874
Vandroid
p2875
sVdistribution
p2876
Viphone
p2877
sVjdialog
p2878
Vjava
p2879
sVsscanf
p2880
g2002
sVtimespan
p2881
Vc#
p2882
sVint
p2883
Vjava
p2884
sVhibernate-criteria
p2885
Vhibernate
p2886
sVini
p2887
Vphp
p2888
sVxpages-extlib
p2889
Vxpages
p2890
sVvector-graphics
p2891
Vsvg
p2892
sVlookup
p2893
Vexcel
p2894
sVhpc
p2895
Vmpi
p2896
sVunit-testing
p2897
Vc#
p2898
sVweb-sql
p2899
Vjavascript
p2900
sVportlet
p2901
Vliferay
p2902
sVintentfilter
p2903
Vandroid
p2904
sVaddthis
p2905
Vjavascript
p2906
sVinstall4j
p2907
Vjava
p2908
sVrich-text-editor
p2909
Vjavascript
p2910
sVxamarin
p2911
Vmonotouch
p2912
sVeof
p2913
g2002
sVios-ui-automation
p2914
Vios
p2915
sVms-project
p2916
Vc#
p2917
sVuitableviewcontroller
p2918
Vios
p2919
sVrule
p2920
Vrewrite
p2921
sVhttp-status-code-404
p2922
Vphp
p2923
sVwin32com
p2924
Vpython
p2925
sVhttp-status-code-401
p2926
Vasp.net
p2927
sVjsni
p2928
Vgwt
p2929
sVhttp-status-code-403
p2930
Vphp
p2931
sVspring-3
p2932
Vspring
p2933
sVprototypejs
p2934
Vjavascript
p2935
sVinsert-update
p2936
Vmysql
p2937
sVmac-app-store
p2938
Vosx
p2939
sVaudiounit
p2940
Vcore-audio
p2941
sVrelationships
p2942
Vruby-on-rails
p2943
sVlgpl
p2944
Vlicensing
p2945
sVconst
p2946
Vc++
p2947
sVmpmovieplayercontroller
p2948
Vios
p2949
sVzxing
p2950
Vandroid
p2951
sVmatlab
p2952
Vmatrix
p2953
sVmouseout
p2954
Vjquery
p2955
sVfacebook-likebox
p2956
Vfacebook
p2957
sVhtml5-canvas
p2958
Vjavascript
p2959
sVassetic
p2960
Vsymfony2
p2961
sVreplication
p2962
Vmysql
p2963
sVdhcp
p2964
Vnetworking
p2965
sVtagging
p2966
Vtags
p2967
sVunity3d
p2968
Vc#
p2969
sVjprogressbar
p2970
Vjava
p2971
sVcmd
p2972
Vbatch-file
p2973
sVupload
p2974
Vphp
p2975
sVgoogle-closure-library
p2976
Vjavascript
p2977
sVnsarray
p2978
Vobjective-c
p2979
sVatk4
p2980
Vphp
p2981
sVmp3
p2982
Vaudio
p2983
sVlong-polling
p2984
Vajax
p2985
sVchef
p2986
Vruby
p2987
sVilist
p2988
Vc#
p2989
sVdisk
p2990
Vlinux
p2991
sVappsettings
p2992
Vc#
p2993
sVandroid-intent
p2994
Vandroid
p2995
sVrenderscript
p2996
Vandroid
p2997
sVdecoding
p2998
Vencoding
p2999
sVopenxml-sdk
p3000
Vopenxml
p3001
sVtextures
p3002
Vopengl
p3003
sVlinear-regression
p3004
g158
sVfacebook-android-sdk
p3005
Vandroid
p3006
sVwrapping
p3007
Vcss
p3008
sVequals
p3009
Vjava
p3010
sVpygtk
p3011
Vpython
p3012
sVprotection
p3013
Vphp
p3014
sVvisual-studio-addins
p3015
Vc#
p3016
sVplaceholder
p3017
Vjquery
p3018
sVglm
p3019
g2249
sVdebug-symbols
p3020
Vdebugging
p3021
sVbitmapimage
p3022
Vc#
p3023
sVitunes
p3024
Viphone
p3025
sVtemporary-files
p3026
Vjava
p3027
sVruby-on-rails-plugins
p3028
Vruby-on-rails
p3029
sVlogback
p3030
Vjava
p3031
sVplot
p3032
g158
sVfortran90
p3033
Vfortran
p3034
sVbundler
p3035
Vruby-on-rails
p3036
sVbackgroundworker
p3037
Vc#
p3038
sVfile-exists
p3039
Vphp
p3040
sVcomposer-php
p3041
Vphp
p3042
sVcpu-registers
p3043
Vassembly
p3044
sVshopping-cart
p3045
Vphp
p3046
sVblocking
p3047
Vmultithreading
p3048
sVwebmethod
p3049
Vasp.net
p3050
sVwix3.6
p3051
Vwix
p3052
sVwix3.5
p3053
Vwix
p3054
sVword
p3055
Vc#
p3056
sVangularjs-ng-repeat
p3057
Vangularjs
p3058
sVeclipse
p3059
Vjava
p3060
sVerd
p3061
Vdatabase-design
p3062
sVtransparency
p3063
Vpng
p3064
sVscripting
p3065
Vbash
p3066
sVwordpress-theming
p3067
Vwordpress
p3068
sVfacebook-authentication
p3069
Vfacebook
p3070
sVlexer
p3071
Vparsing
p3072
sVfmdb
p3073
Vsqlite
p3074
sVuac
p3075
Vc#
p3076
sVplist
p3077
Vios
p3078
sVrecovery
p3079
Vandroid
p3080
sVuifont
p3081
Vios
p3082
sViso-8859-1
p3083
Vutf-8
p3084
sVcore-graphics
p3085
Vios
p3086
sVlan
p3087
Vnetworking
p3088
sVlag
p3089
Vandroid
p3090
sVopenal
p3091
Vaudio
p3092
sVcalayer
p3093
Vios
p3094
sVjboss6.x
p3095
Vjava
p3096
sVcontext-free-grammar
p3097
Vgrammar
p3098
sVsparql
p3099
Vrdf
p3100
sVassignment-operator
p3101
Vc++
p3102
sVorder
p3103
Vmysql
p3104
sVnamed-scope
p3105
Vruby-on-rails
p3106
sVgoogle-checkout
p3107
Vandroid
p3108
sVeigen
p3109
Vc++
p3110
sVoffice
p3111
Vc#
p3112
sVxsl-fo
p3113
Vxslt
p3114
sVpascal
p3115
Vdelphi
p3116
sVbuttonclick
p3117
Vandroid
p3118
sVjquery-ui-autocomplete
p3119
Vjquery
p3120
sVamazon-cloudfront
p3121
Vamazon-s3
p3122
sVjdk1.6
p3123
Vjava
p3124
sVglassfish
p3125
Vjava
p3126
sVtypescript
p3127
Vjavascript
p3128
sVuipangesturerecognizer
p3129
Vios
p3130
sVfragment
p3131
Vandroid
p3132
sVinfinite-scroll
p3133
Vjquery
p3134
sVbreak
p3135
Vloops
p3136
sVrefactoring
p3137
Vc#
p3138
sVjinja2
p3139
Vpython
p3140
sVcloudera
p3141
Vhadoop
p3142
sVleft-join
p3143
Vmysql
p3144
sVnullable
p3145
Vc#
p3146
sVthree20
p3147
Viphone
p3148
sVright-to-left
p3149
Vcss
p3150
sVfeeds
p3151
Vrss
p3152
sVprawn
p3153
Vruby-on-rails
p3154
sVinfragistics
p3155
Vc#
p3156
sVuicolor
p3157
Vios
p3158
sVsprintf
p3159
g2002
sVsliding
p3160
Vjquery
p3161
sVwindows-vista
p3162
Vwindows-7
p3163
sVputty
p3164
Vssh
p3165
sVsegmentation-fault
p3166
g2002
sVcollation
p3167
Vmysql
p3168
sVsoundcloud
p3169
Vjavascript
p3170
sVwcf-rest
p3171
Vwcf
p3172
sVmvp
p3173
Vc#
p3174
sVjslint
p3175
Vjavascript
p3176
sVmvc
p3177
Vphp
p3178
sVtextinput
p3179
Vflex
p3180
sVbenchmarking
p3181
Vperformance
p3182
sVobservablecollection
p3183
Vwpf
p3184
sVrender
p3185
Vruby-on-rails
p3186
sVundefined-behavior
p3187
Vc++
p3188
sVpython-sphinx
p3189
Vpython
p3190
sVslidetoggle
p3191
Vjquery
p3192
sVweb-audio
p3193
Vjavascript
p3194
sVcustom-server-controls
p3195
Vasp.net
p3196
sVinflate
p3197
Vandroid
p3198
sVfitnesse
p3199
Vjava
p3200
sVdecompiling
p3201
Vjava
p3202
sVjeditorpane
p3203
Vjava
p3204
sVtarget
p3205
Vxcode
p3206
sVphp-fpm
p3207
Vnginx
p3208
sVebay
p3209
Vapi
p3210
sVhacking
p3211
Vsecurity
p3212
sVbinary-data
p3213
Vc#
p3214
sVweb-api
p3215
Vc#
p3216
sVuiview
p3217
Vios
p3218
sVrewrite
p3219
V.htaccess
p3220
sVdiscrete-mathematics
p3221
Vmath
p3222
sVintentservice
p3223
Vandroid
p3224
sVangularjs
p3225
Vjavascript
p3226
sVlatency
p3227
Vnetworking
p3228
sVdbms
p3229
Vsql
p3230
sVawtrobot
p3231
Vjava
p3232
sVyui3
p3233
Vjavascript
p3234
sVindexes
p3235
Vmysql
p3236
sVvisual-studio
p3237
Vc#
p3238
sVreportingservices-2008
p3239
Vreporting-services
p3240
sVgoogle-analytics-api
p3241
Vgoogle-analytics
p3242
sVssl-certificate
p3243
Vssl
p3244
sVwebcam
p3245
Vc#
p3246
sVgraphics2d
p3247
Vjava
p3248
sVqt-designer
p3249
Vqt
p3250
sVleaflet
p3251
Vjavascript
p3252
sVjointable
p3253
Vmysql
p3254
sVwildcard
p3255
Vjava
p3256
sVheuristics
p3257
Valgorithm
p3258
sVhtml-parsing
p3259
Vhtml
p3260
sVimage-segmentation
p3261
Vimage-processing
p3262
sVogg
p3263
Vaudio
p3264
sVtoast
p3265
Vandroid
p3266
sVpalindrome
p3267
Vjava
p3268
sVcircular-reference
p3269
Vc#
p3270
sVgraph-algorithm
p3271
Valgorithm
p3272
sVimplementation
p3273
Vjava
p3274
sVgson
p3275
Vjson
p3276
sVgoogle-contacts
p3277
Vgoogle-api
p3278
sVuicollectionviewlayout
p3279
Vuicollectionview
p3280
sVspeech-to-text
p3281
Vspeech-recognition
p3282
sViptables
p3283
Vlinux
p3284
sVpushviewcontroller
p3285
Vios
p3286
sVcryptography
p3287
Vencryption
p3288
sVuitoolbar
p3289
Vios
p3290
sVaspxgridview
p3291
Vasp.net
p3292
sVidioms
p3293
Vc++
p3294
sVasync-await
p3295
Vc#
p3296
sVienumerable
p3297
Vc#
p3298
sVabaddressbook
p3299
Vios
p3300
sVzookeeper
p3301
Vhbase
p3302
sVshared-memory
p3303
g2002
sVanalytics
p3304
Vgoogle-analytics
p3305
sVdirectshow.net
p3306
Vdirectshow
p3307
sVivalueconverter
p3308
Vwpf
p3309
sVopenfiledialog
p3310
Vc#
p3311
sVlapply
p3312
g2249
sVtype-inference
p3313
Vgenerics
p3314
sVctypes
p3315
Vpython
p3316
sVpreprocessor
p3317
Vc++
p3318
sVopenjpa
p3319
Vjpa
p3320
sVpackages
p3321
Vjava
p3322
sVwx
p3323
Vpython
p3324
sVcoq
p3325
Vtheorem-proving
p3326
sVclaims-based-identity
p3327
Vwif
p3328
sVcocos2d-x
p3329
Vc++
p3330
sVtfs2012
p3331
Vtfs
p3332
sVtfs2010
p3333
Vtfs
p3334
sVreceiver
p3335
Vandroid
p3336
sVcom
p3337
Vc#
p3338
sVandroid-gallery
p3339
Vandroid
p3340
sVhorizontalscrollview
p3341
Vandroid
p3342
sVguid
p3343
Vc#
p3344
sVlatitude-longitude
p3345
Vandroid
p3346
sVcoredump
p3347
Vlinux
p3348
sVshoulda
p3349
Vruby-on-rails
p3350
sVnsfetchrequest
p3351
Vcore-data
p3352
sVhtml5-video
p3353
Vhtml5
p3354
sVaix
p3355
Vunix
p3356
sVgnu
p3357
g186
sVlauncher
p3358
Vandroid
p3359
sViqueryable
p3360
Vc#
p3361
sVzlib
p3362
Vc++
p3363
sVair
p3364
Vactionscript-3
p3365
sVformatting
p3366
Vc#
p3367
sVvoice
p3368
Vandroid
p3369
sVrails-admin
p3370
Vruby-on-rails
p3371
sVjoomla1.7
p3372
Vjoomla
p3373
sVjoomla1.5
p3374
Vjoomla
p3375
sVstatic-members
p3376
Vc++
p3377
sVserver-push
p3378
Vcomet
p3379
sVhebrew
p3380
Vandroid
p3381
sVnetbeans-6.9
p3382
Vjava
p3383
sVcouchdb
p3384
Vnosql
p3385
sVgoogle-apps-script
p3386
Vgoogle-spreadsheet
p3387
sVleiningen
p3388
Vclojure
p3389
sVlog4j
p3390
Vjava
p3391
sVnio
p3392
Vjava
p3393
sVnil
p3394
Vobjective-c
p3395
sVsignalr-hub
p3396
Vsignalr
p3397
sVnib
p3398
Vios
p3399
sVraii
p3400
Vc++
p3401
sVhang
p3402
Vc#
p3403
sVfuse
p3404
Vlinux
p3405
sVlevenshtein-distance
p3406
Valgorithm
p3407
sVandroid-fragments
p3408
Vandroid
p3409
sVdatarow
p3410
Vc#
p3411
sVapache-httpclient-4.x
p3412
Vjava
p3413
sVsystem.diagnostics
p3414
Vc#
p3415
sVdepth-first-search
p3416
Valgorithm
p3417
sVclient
p3418
Vjava
p3419
sVcasperjs
p3420
Vphantomjs
p3421
sVwebsphere-portal
p3422
Vportlet
p3423
sVsolaris
p3424
Vunix
p3425
sVphoto
p3426
Vandroid
p3427
sVhttp-status-code-301
p3428
V.htaccess
p3429
sVquotes
p3430
Vphp
p3431
sVcurrying
p3432
Vfunctional-programming
p3433
sVvisualization
p3434
Vjavascript
p3435
sVubuntu-11.04
p3436
Vubuntu
p3437
sVmsxml
p3438
Vxml
p3439
sVopencl
p3440
Vgpgpu
p3441
sVopencv
p3442
Vc++
p3443
sVasp.net-mvc-areas
p3444
Vasp.net-mvc
p3445
sVdatabase-design
p3446
Vdatabase
p3447
sVmaya
p3448
Vpython
p3449
sVfilestream
p3450
Vc#
p3451
sVmicrocontroller
p3452
g2002
sVword-wrap
p3453
Vcss
p3454
sVjekyll
p3455
Vruby
p3456
sVsimplemodal
p3457
Vjquery
p3458
sVscikit-learn
p3459
Vpython
p3460
sVwindows-server-2003
p3461
Viis-6
p3462
sVsecurity
p3463
Vphp
p3464
sVwindows-server-2008
p3465
Viis-7
p3466
sVdelphi-xe2
p3467
Vdelphi
p3468
sVtitlebar
p3469
Vandroid
p3470
sVpreg-match-all
p3471
Vphp
p3472
sVnsmutabledictionary
p3473
Vobjective-c
p3474
sVjtabbedpane
p3475
Vjava
p3476
sVfacebook-php-sdk
p3477
Vfacebook
p3478
sVcomments
p3479
Vfacebook
p3480
sVplone
p3481
Vzope
p3482
sVwso2
p3483
Vwso2esb
p3484
sVuigesturerecognizer
p3485
Vios
p3486
sVgeocoding
p3487
Vgoogle-maps
p3488
sVpaypal-api
p3489
Vphp
p3490
sVrepository
p3491
Vgit
p3492
sVzend-db-table
p3493
Vzend-framework
p3494
sVdelete-row
p3495
Vmysql
p3496
sVtime-series
p3497
g2249
sVsubstitution
p3498
Vregex
p3499
sVpost
p3500
Vphp
p3501
sVproperties
p3502
Vc#
p3503
sVrstudio
p3504
g158
sVgoogle-maps
p3505
Vjavascript
p3506
sVasp.net-3.5
p3507
Vasp.net
p3508
sVquery-optimization
p3509
Vmysql
p3510
sVautohotkey
p3511
Vwindows
p3512
sVmsdeploy
p3513
Vmsbuild
p3514
sVrendering
p3515
Vopengl
p3516
sVhaskell
p3517
Vfunctional-programming
p3518
sVsfml
p3519
Vc++
p3520
sVinitializer-list
p3521
Vc++
p3522
sVjdbc
p3523
Vjava
p3524
sVcompression
p3525
Vgzip
p3526
sVconfiguration-files
p3527
Vc#
p3528
sVredmine
p3529
Vruby-on-rails
p3530
sVindexoutofboundsexception
p3531
Vjava
p3532
sVsqldatareader
p3533
Vc#
p3534
sVwav
p3535
Vaudio
p3536
sVtcpdump
p3537
Vlinux
p3538
sVwar
p3539
Vjava
p3540
sVsqlalchemy
p3541
Vpython
p3542
sVeclipse-emf
p3543
Veclipse
p3544
sVbelongs-to
p3545
Vruby-on-rails
p3546
sVcatalyst
p3547
Vperl
p3548
sVgwt2
p3549
Vgwt
p3550
sVuisearchdisplaycontroller
p3551
Vios
p3552
sVandroid-edittext
p3553
Vandroid
p3554
sVsyscall
p3555
Vlinux
p3556
sVthunderbird
p3557
Vemail
p3558
sVabstract
p3559
Vjava
p3560
sVfulltext
p3561
Vmysql
p3562
sVmysql-error-1064
p3563
Vmysql
p3564
sVfull-text-search
p3565
Vmysql
p3566
sVarchive
p3567
Vphp
p3568
sVyii-db
p3569
Vyii
p3570
sVspring-aop
p3571
Vspring
p3572
sVdouble-quotes
p3573
Vphp
p3574
sVtruncate
p3575
Vphp
p3576
sVdotnet-httpclient
p3577
Vc#
p3578
sVnotepad
p3579
Vandroid
p3580
sVurllib2
p3581
Vpython
p3582
sVavaudiorecorder
p3583
Viphone
p3584
sVpushstate
p3585
Vjavascript
p3586
sVapplescript
p3587
Vosx
p3588
sVglobal
p3589
Vvariables
p3590
sVpadrino
p3591
Vruby
p3592
sVrectangles
p3593
Vc#
p3594
sVscrollviewer
p3595
Vwpf
p3596
sVgoogle-fusion-tables
p3597
Vgoogle-maps
p3598
sVvarnish
p3599
Vcaching
p3600
sVflask
p3601
Vpython
p3602
sVgraph
p3603
Valgorithm
p3604
sVflash
p3605
Vactionscript-3
p3606
sVjvm
p3607
Vjava
p3608
sVhttp-post
p3609
Vandroid
p3610
sVandroid-testing
p3611
Vandroid
p3612
sVpredicate
p3613
Vc#
p3614
sVfunctional-testing
p3615
Vtesting
p3616
sVnsdictionary
p3617
Vobjective-c
p3618
sVglobal-asax
p3619
Vasp.net
p3620
sVanonymous
p3621
Vfunction
p3622
sVgui
p3623
Vjava
p3624
sVfftw
p3625
Vc++
p3626
sVhtc
p3627
Vandroid
p3628
sVhta
p3629
Vvbscript
p3630
sVphpunit
p3631
Vphp
p3632
sVhdfs
p3633
Vhadoop
p3634
sViphone-sdk-3.0
p3635
Viphone
p3636
sVrelational
p3637
Vdatabase
p3638
sVgawk
p3639
Vawk
p3640
sVapache
p3641
Vphp
p3642
sVhdf5
p3643
Vpython
p3644
sVtreemap
p3645
Vjava
p3646
sVdb4o
p3647
Vjava
p3648
sVbehat
p3649
Vmink
p3650
sVgrails-controller
p3651
Vgrails
p3652
sVapache-camel
p3653
Vjava
p3654
sVfilezilla
p3655
Vftp
p3656
sVgsub
p3657
Vruby
p3658
sVtabpanel
p3659
Vextjs
p3660
sVmongodb-csharp
p3661
Vmongodb
p3662
sVandroid-actionbar
p3663
Vandroid
p3664
sVmarket
p3665
Vandroid
p3666
sVregex
p3667
Vphp
p3668
sVhttpd
p3669
Vphp
p3670
sVrails-activerecord
p3671
Vruby-on-rails
p3672
sVshared-ptr
p3673
Vc++
p3674
sVentities
p3675
Vphp
p3676
sVlive
p3677
Vjquery
p3678
sVhttps
p3679
Vssl
p3680
sVquartz.net
p3681
Vc#
p3682
sVruby-1.9.3
p3683
Vruby
p3684
sVavaudiosession
p3685
Vios
p3686
sVcoldfusion-10
p3687
Vcoldfusion
p3688
sVaforge
p3689
Vc#
p3690
sVmonotouch
p3691
Vios
p3692
sVnested-class
p3693
Vc++
p3694
sVwindows-7-x64
p3695
Vwindows-7
p3696
sVselectonemenu
p3697
Vjsf
p3698
sVlogarithm
p3699
Vmath
p3700
sVgoogle-closure-compiler
p3701
Vjavascript
p3702
sVgraphic
p3703
Vjava
p3704
sVibm
p3705
Vjava
p3706
sVvirtuemart
p3707
Vjoomla
p3708
sVcas
p3709
Vjava
p3710
sVcat
p3711
Vbash
p3712
sViframe
p3713
Vjavascript
p3714
sVsql-injection
p3715
Vphp
p3716
sVsubstring
p3717
Vstring
p3718
sVabort
p3719
Vc#
p3720
sVspl
p3721
Vphp
p3722
sVcopy-constructor
p3723
Vc++
p3724
sVlxml
p3725
Vpython
p3726
sVmsmq
p3727
Vc#
p3728
sVandroid-alarms
p3729
Vandroid
p3730
sVaccess-control
p3731
Vphp
p3732
sVproduct
p3733
Vmagento
p3734
sVoutlook-2010
p3735
Voutlook
p3736
sVjquery-ui-draggable
p3737
Vjquery
p3738
sVnearest-neighbor
p3739
Valgorithm
p3740
sVaop
p3741
Vjava
p3742
sVcompatibility
p3743
Vandroid
p3744
sVgoogle-cloud-sql
p3745
Vgoogle-app-engine
p3746
sVhtml.dropdownlistfor
p3747
Vasp.net-mvc
p3748
sVinclude-path
p3749
Vphp
p3750
sVgoogle-bigquery
p3751
Vgoogle-app-engine
p3752
sVcorona
p3753
Vlua
p3754
sVscala-2.8
p3755
Vscala
p3756
sVghc
p3757
Vhaskell
p3758
sVzen-cart
p3759
Vphp
p3760
sVrails-routing
p3761
Vruby-on-rails
p3762
sVneural-network
p3763
Vmachine-learning
p3764
sVexcel-interop
p3765
Vc#
p3766
sVxmldocument
p3767
Vc#
p3768
sVgraphviz
p3769
Vdot
p3770
sVeclipse-indigo
p3771
Veclipse
p3772
sVevent-dispatch-thread
p3773
Vjava
p3774
sVstack-trace
p3775
Vjava
p3776
sVarduino
p3777
Vc++
p3778
sVuilabel
p3779
Vios
p3780
sVforms
p3781
Vphp
p3782
sVyaml
p3783
Vruby
p3784
sVwindow
p3785
Vjavascript
p3786
sVmultiline
p3787
Vregex
p3788
sVsaxon
p3789
Vxslt
p3790
sVfxcop
p3791
Vc#
p3792
sVerror-logging
p3793
Vlogging
p3794
sVember.js
p3795
Vjavascript
p3796
sVerror-handling
p3797
Vphp
p3798
sVpass-by-value
p3799
Vpass-by-reference
p3800
sVrake
p3801
Vruby-on-rails
p3802
sVscaling
p3803
Vandroid
p3804
sVcqrs
p3805
Vdomain-driven-design
p3806
sVwix3
p3807
Vwix
p3808
sVdrop
p3809
Vdrag
p3810
sVxmlpullparser
p3811
Vandroid
p3812
sVtypetraits
p3813
Vc++
p3814
sVpycharm
p3815
Vpython
p3816
sVel
p3817
Vjsp
p3818
sVjquery-animate
p3819
Vjquery
p3820
sVcairo
p3821
Vgtk
p3822
sVhttpwebresponse
p3823
Vhttpwebrequest
p3824
sVgaussian
p3825
Vmatlab
p3826
sVhighstock
p3827
Vhighcharts
p3828
sVphp-5.4
p3829
Vphp
p3830
sVphp-5.3
p3831
Vphp
p3832
sVnaming
p3833
Vnaming-conventions
p3834
sVtask-parallel-library
p3835
Vc#
p3836
sVspace
p3837
Vhtml
p3838
sVelastic-beanstalk
p3839
Vamazon-web-services
p3840
sVsoftware-design
p3841
Vsoftware-engineering
p3842
sVxamarin-studio
p3843
Vxamarin
p3844
sVfilewriter
p3845
Vjava
p3846
sVuwsgi
p3847
Vpython
p3848
sVcart
p3849
Vphp
p3850
sVandroid-ui
p3851
Vandroid
p3852
sVdependencies
p3853
Vmaven
p3854
sVtransition
p3855
Vjquery
p3856
sVstring-formatting
p3857
Vc#
p3858
sVnsmanagedobject
p3859
Vcore-data
p3860
sVlambda
p3861
Vc#
p3862
sVandroid-resources
p3863
Vandroid
p3864
sVvariables
p3865
Vphp
p3866
sVsavefiledialog
p3867
Vc#
p3868
sVmessage
p3869
Vandroid
p3870
sVforwarding
p3871
Vdns
p3872
sVangular
p3873
Vjavascript
p3874
sVsize
p3875
Vandroid
p3876
sVchecked
p3877
Vjquery
p3878
sVyii
p3879
Vphp
p3880
sVcarousel
p3881
Vjquery
p3882
sVcrash-dumps
p3883
Vwindbg
p3884
sVfriend
p3885
Vc++
p3886
sVminitest
p3887
Vruby
p3888
sVpecl
p3889
Vphp
p3890
sVpng
p3891
Vimage
p3892
sVthumbnails
p3893
Vphp
p3894
sVmysql-management
p3895
Vmysql
p3896
sVrobots.txt
p3897
Vseo
p3898
sVgpgpu
p3899
Vcuda
p3900
sVapplet
p3901
Vjava
p3902
sVtitanium-mobile
p3903
Vtitanium
p3904
sVdjango-orm
p3905
Vdjango
p3906
sVamazon-s3
p3907
Vamazon-web-services
p3908
sVbrowser
p3909
Vjavascript
p3910
sVdependency-management
p3911
Vmaven
p3912
sVangularjs-service
p3913
Vangularjs
p3914
sVmvvm
p3915
Vwpf
p3916
sVbufferedimage
p3917
Vjava
p3918
sVgesture-recognition
p3919
Vandroid
p3920
sVresponse.redirect
p3921
Vasp.net
p3922
sVwcf
p3923
Vc#
p3924
sVhsqldb
p3925
Vjava
p3926
sVwatir-webdriver
p3927
Vwatir
p3928
sVmobile-safari
p3929
Vjavascript
p3930
sVubercart
p3931
Vdrupal
p3932
sVsql-order-by
p3933
Vmysql
p3934
sVnsnotifications
p3935
Vobjective-c
p3936
sVcarriage-return
p3937
Vnewline
p3938
sVscreen-scraping
p3939
Vpython
p3940
sVip-address
p3941
Vc#
p3942
sVqwebview
p3943
Vqt
p3944
sVupgrade
p3945
Vandroid
p3946
sVtitle
p3947
Vjquery
p3948
sVbreadcrumbs
p3949
Vphp
p3950
sVhierarchy
p3951
Vsql
p3952
sVadobe-illustrator
p3953
Vsvg
p3954
sVdatatemplate
p3955
Vwpf
p3956
sVlocationmanager
p3957
Vandroid
p3958
sVboolean-logic
p3959
Vboolean
p3960
sVfft
p3961
Vsignal-processing
p3962
sVjtextfield
p3963
Vjava
p3964
sVdatamapper
p3965
Vruby
p3966
sVskinning
p3967
Vflex
p3968
sVwebapp2
p3969
Vgoogle-app-engine
p3970
sVpostgis
p3971
Vpostgresql
p3972
sVitemscontrol
p3973
Vwpf
p3974
sVsonar
p3975
Vjava
p3976
sVformtastic
p3977
Vruby-on-rails
p3978
sVgoogle-geocoder
p3979
Vgoogle-maps
p3980
sVadd-in
p3981
Vc#
p3982
sVtablesorter
p3983
Vjquery
p3984
sVgdata
p3985
Vgdata-api
p3986
sVnslayoutconstraint
p3987
Vios
p3988
sVactionscript-3
p3989
Vflash
p3990
sVbetween
p3991
Vmysql
p3992
sVimport
p3993
Vpython
p3994
sVjta
p3995
Vjava
p3996
sVwebsphere
p3997
Vjava
p3998
sVpthreads
p3999
g222
sVanalyzer
p4000
Vlucene
p4001
sVarticle
p4002
Vjoomla
p4003
sVpixels
p4004
Vimage
p4005
sVexpression-blend
p4006
Vwpf
p4007
sVinstallation
p4008
Vpython
p4009
sVvideo-encoding
p4010
Vffmpeg
p4011
sVmono
p4012
Vc#
p4013
sVindy10
p4014
Vdelphi
p4015
sVgwt
p4016
Vjava
p4017
sVembedding
p4018
Vpython
p4019
sVcomet
p4020
Vajax
p4021
sVinversion-of-control
p4022
Vdependency-injection
p4023
sVcodeigniter-2
p4024
Vcodeigniter
p4025
sVframeset
p4026
Vhtml
p4027
sVosx-lion
p4028
Vosx
p4029
sVdispatch
p4030
Vscala
p4031
sVnokogiri
p4032
Vruby
p4033
sVexploit
p4034
Vsecurity
p4035
sVcaret
p4036
Vjavascript
p4037
sVcocoapods
p4038
Vios
p4039
sVruby-on-rails-3.1
p4040
Vruby-on-rails
p4041
sVruby-on-rails-3.2
p4042
Vruby-on-rails
p4043
sVgridfs
p4044
Vmongodb
p4045
sVaero
p4046
Vc#
p4047
sVexternal
p4048
Vjavascript
p4049
sVcodeigniter-url
p4050
Vcodeigniter
p4051
sVnsurlrequest
p4052
Vios
p4053
sVmessage-driven-bean
p4054
Vjms
p4055
sVpayment-gateway
p4056
Vphp
p4057
sVlog4net-configuration
p4058
Vlog4net
p4059
sVkey-value-coding
p4060
Vobjective-c
p4061
sVuitouch
p4062
Vios
p4063
sVsharepoint-workflow
p4064
Vsharepoint
p4065
sVyahoo-api
p4066
Vyahoo
p4067
sVorientation
p4068
Vandroid
p4069
sVstdout
p4070
Vpython
p4071
sVdatastore
p4072
Vgoogle-app-engine
p4073
sVmedia
p4074
Vandroid
p4075
sVservlets
p4076
Vjava
p4077
sVitertools
p4078
Vpython
p4079
sVepoch
p4080
Vtime
p4081
sVcapybara
p4082
Vruby-on-rails
p4083
sVdocument
p4084
Vjavascript
p4085
sVavl-tree
p4086
Vdata-structures
p4087
sVpyinstaller
p4088
Vpython
p4089
sVinitialization
p4090
Vc++
p4091
sVandroid-viewpager
p4092
Vandroid
p4093
sVscrolltop
p4094
Vjquery
p4095
sVcrystal-reports
p4096
Vc#
p4097
sV8086
p4098
Vassembly
p4099
sVcore-image
p4100
Vios
p4101
sValfresco
p4102
Valfresco-share
p4103
sVdata-mining
p4104
Vmachine-learning
p4105
sVsystem.drawing
p4106
Vc#
p4107
sVbreeze
p4108
Vjavascript
p4109
sVsharepoint-2010
p4110
Vsharepoint
p4111
sVcck
p4112
Vdrupal
p4113
sVprocessbuilder
p4114
Vjava
p4115
sVneon
p4116
Varm
p4117
sVbitmap
p4118
Vandroid
p4119
sVcocos2d
p4120
Viphone
p4121
sVtouch
p4122
Vandroid
p4123
sVaction-filter
p4124
Vasp.net-mvc
p4125
sVstruct
p4126
g222
sVlapack
p4127
Vblas
p4128
sVmmap
p4129
Vlinux
p4130
sVdesktop
p4131
Vjava
p4132
sVbiztalk-2010
p4133
Vbiztalk
p4134
sVandroid-lifecycle
p4135
Vandroid
p4136
sVrules
p4137
Vdrools
p4138
sVswig
p4139
Vc++
p4140
sVamd
p4141
Vrequirejs
p4142
sVamf
p4143
Vflex
p4144
sVgoogletest
p4145
Vc++
p4146
sVappkit
p4147
Vcocoa
p4148
sVexecution
p4149
Vphp
p4150
sVdeep-copy
p4151
Vjava
p4152
sVandroid-listview
p4153
Vandroid
p4154
sVblackberry
p4155
Vjava-me
p4156
sVoutput
p4157
Vjava
p4158
sVcomputer-science
p4159
Valgorithm
p4160
sVdjango-queries
p4161
Vdjango
p4162
sVstrcmp
p4163
g186
sVcisco
p4164
Vvpn
p4165
sVuppercase
p4166
Vlowercase
p4167
sVandroid-c2dm
p4168
Vandroid
p4169
sVduration
p4170
Vtime
p4171
sVejb-3.0
p4172
Vjava
p4173
sVejb-3.1
p4174
Vjava
p4175
sVinno-setup
p4176
Vinstaller
p4177
sVuser-profile
p4178
Vdjango
p4179
sVassembly
p4180
Vx86
p4181
sVpylons
p4182
Vpython
p4183
sVdatabase-performance
p4184
Vmysql
p4185
sVtdd
p4186
Vunit-testing
p4187
sVontology
p4188
Vowl
p4189
sVthrow
p4190
Vexception
p4191
sVmovieclip
p4192
Vactionscript-3
p4193
sVcrystal-reports-2010
p4194
Vcrystal-reports
p4195
sVsrc
p4196
Vimage
p4197
sVazureservicebus
p4198
Vazure
p4199
sVstruts2
p4200
Vjava
p4201
sVbackup
p4202
Vmysql
p4203
sVprocessor
p4204
g2002
sVoutlook
p4205
Vc#
p4206
sVprovisioning-profile
p4207
Vios
p4208
sVsplash-screen
p4209
Vandroid
p4210
sVsuppress-warnings
p4211
Vjava
p4212
sVweight
p4213
Vandroid
p4214
sVopengl
p4215
Vc++
p4216
sVarel
p4217
Vruby-on-rails
p4218
sVnpapi
p4219
Vplugins
p4220
sVmouseenter
p4221
Vjquery
p4222
sVwindows-server-2008-r2
p4223
Viis-7.5
p4224
sVmultitasking
p4225
Viphone
p4226
sVembedded
p4227
g186
sVdefault
p4228
Vandroid
p4229
sVasp.net-mvc-3
p4230
Vasp.net-mvc
p4231
sVasp.net-mvc-4
p4232
Vasp.net-mvc
p4233
sVasp.net-mvc-5
p4234
Vasp.net-mvc
p4235
sVdefine
p4236
g2002
sVandroid-alertdialog
p4237
Vandroid
p4238
sVcakephp-appmodel
p4239
Vcakephp
p4240
sVinner-classes
p4241
Vjava
p4242
sVboost-spirit-qi
p4243
Vc++
p4244
sVibatis
p4245
Vjava
p4246
sVminify
p4247
Vjavascript
p4248
sVstorage
p4249
Vandroid
p4250
sVringtone
p4251
Vandroid
p4252
sVpear
p4253
Vphp
p4254
sVregistry
p4255
Vwindows
p4256
sVpool
p4257
Vjava
p4258
sVbulk
p4259
Vinsert
p4260
sVandroid-progressbar
p4261
Vandroid
p4262
sVpowershell-v2.0
p4263
Vpowershell
p4264
sVxcopy
p4265
Vbatch-file
p4266
sVvalidator
p4267
Vjquery
p4268
sVdigital-certificate
p4269
Vdigital-signature
p4270
sVsemantic
p4271
Vhtml
p4272
sVgoogle-spreadsheet-api
p4273
Vgoogle-spreadsheet
p4274
sVsplitting
p4275
Vstring
p4276
sVmp4
p4277
Vvideo
p4278
sVweb-worker
p4279
Vjavascript
p4280
sVopenlayers
p4281
Vjavascript
p4282
sVsharepoint2013
p4283
Vsharepoint
p4284
sVandroid-mediaplayer
p4285
Vandroid
p4286
sViconv
p4287
Vphp
p4288
sVicons
p4289
Vandroid
p4290
sVandroid-cursor
p4291
Vandroid
p4292
sVwmi
p4293
Vc#
p4294
sVnodes
p4295
Vxml
p4296
sVportforwarding
p4297
Vssh
p4298
sVmpi
p4299
g222
sVcocos2d-android
p4300
Vandroid
p4301
sVdatatrigger
p4302
Vwpf
p4303
sVswiftmailer
p4304
Vphp
p4305
sVmapreduce
p4306
Vhadoop
p4307
sVurlencode
p4308
Vphp
p4309
sVandroid-permissions
p4310
Vandroid
p4311
sVcookies
p4312
Vphp
p4313
sVinstagram
p4314
Vapi
p4315
sVmojarra
p4316
Vjsf-2
p4317
sVpivot-table
p4318
Vexcel
p4319
sVreportingservices-2005
p4320
Vreporting-services
p4321
sVcertificates
p4322
Vssl
p4323
sVnant
p4324
Vmsbuild
p4325
sVmodify
p4326
Vjava
p4327
sVgrails-2.0
p4328
Vgrails
p4329
sVcaliburn.micro
p4330
Vwpf
p4331
sVpopen
p4332
Vpython
p4333
sVundefined-reference
p4334
Vc++
p4335
sVadvertising
p4336
Vandroid
p4337
sVpermutation
p4338
Valgorithm
p4339
sVinvalidate
p4340
Vandroid
p4341
sVjre
p4342
Vandroid
p4343
sVshuffle
p4344
Vrandom
p4345
sVhlsl
p4346
Vdirectx
p4347
sVcustom-fields
p4348
Vwordpress
p4349
sVjoomla2.5
p4350
Vjoomla
p4351
sVhref
p4352
Vhtml
p4353
sVadd-on
p4354
Vfirefox
p4355
sVhelper
p4356
Vruby-on-rails
p4357
sVjavascript-framework
p4358
Vjavascript
p4359
sVjcarousel
p4360
Vjquery
p4361
sVcontains
p4362
Vc#
p4363
sVlibxml2
p4364
Vxml
p4365
sVauthorization
p4366
Vauthentication
p4367
sVquickbooks-online
p4368
Vintuit-partner-platform
p4369
sVtemp-tables
p4370
Vsql
p4371
sVhashcode
p4372
Vjava
p4373
sVitext
p4374
Vjava
p4375
sVgit-branch
p4376
Vgit
p4377
sVmodalpopupextender
p4378
Vasp.net
p4379
sVazure-worker-roles
p4380
Vazure
p4381
sVgql
p4382
Vgoogle-app-engine
p4383
sVdrupal
p4384
Vphp
p4385
sVmvvm-light
p4386
Vmvvm
p4387
sVhistory
p4388
Vjavascript
p4389
sVswfobject
p4390
Vflash
p4391
sVf#
p4392
NsVmagento
p4393
Vphp
p4394
sVexclude
p4395
Vregex
p4396
sVdjango-models
p4397
Vdjango
p4398
sVspreadsheet
p4399
Vexcel
p4400
sVoracle10g
p4401
Voracle
p4402
sVpygame
p4403
Vpython
p4404
sVshell-exec
p4405
Vphp
p4406
sVpiglatin
p4407
Vpig
p4408
sVopengl-es-2.0
p4409
Vopengl-es
p4410
sVtextview
p4411
Vandroid
p4412
sVpowerbuilder
p4413
Vdatawindow
p4414
sVexcel-2010
p4415
Vexcel
p4416
sVcoldfusion-9
p4417
Vcoldfusion
p4418
sVcoldfusion-8
p4419
Vcoldfusion
p4420
sVfirebreath
p4421
Vc++
p4422
sVgruntjs
p4423
Vjavascript
p4424
sVtext-editor
p4425
Veditor
p4426
sVscss
p4427
Vcss
p4428
sVapplication-settings
p4429
Vc#
p4430
sVdocumentation
p4431
Vpython
p4432
sVandengine
p4433
Vandroid
p4434
sVinline
p4435
Vc++
p4436
sVuninstall
p4437
Vandroid
p4438
sVphotoshop
p4439
Vcss
p4440
sV2d-array
p4441
Vjava
p4442
sVasp.net-4.5
p4443
Vasp.net
p4444
sVtaxonomy
p4445
Vwordpress
p4446
sVmockito
p4447
Vjava
p4448
sVasp.net-4.0
p4449
Vasp.net
p4450
sVssh-keys
p4451
Vssh
p4452
sVandroid-bluetooth
p4453
Vandroid
p4454
sVios-simulator
p4455
Viphone
p4456
sVffi
p4457
Vhaskell
p4458
sVcustom-controls
p4459
Vc#
p4460
sVinfinite-loop
p4461
Vjava
p4462
sVaggregation-framework
p4463
Vmongodb
p4464
sVpsycopg2
p4465
Vpython
p4466
sVselenium
p4467
Vjava
p4468
sVaccess-token
p4469
Vfacebook
p4470
sVdynamic-memory-allocation
p4471
Vc++
p4472
sVterrain
p4473
Vopengl
p4474
sVms-access-2010
p4475
Vms-access
p4476
sVtextwrapping
p4477
Vcss
p4478
sVjqgrid
p4479
Vjquery
p4480
sVreferrer
p4481
Vphp
p4482
sVdecimal
p4483
Vc#
p4484
sVpreferenceactivity
p4485
Vandroid
p4486
sVcordova-2.0.0
p4487
Vcordova
p4488
sVfluent-interface
p4489
Vc#
p4490
sVsingle-sign-on
p4491
Vjava
p4492
sVtext-processing
p4493
Vpython
p4494
sVgemfile
p4495
Vruby-on-rails
p4496
sVpreg-replace
p4497
Vphp
p4498
sVpublish
p4499
Vasp.net
p4500
sVtask-queue
p4501
Vgoogle-app-engine
p4502
sVjquery-effects
p4503
Vjquery
p4504
sVast
p4505
Vjava
p4506
sVtimeline
p4507
Vjavascript
p4508
sVsymbian
p4509
Vqt
p4510
sVbase
p4511
Vc#
p4512
sVput
p4513
Vrest
p4514
sVfluid-layout
p4515
Vcss
p4516
sVrecv
p4517
Vsockets
p4518
sVbash
p4519
Vshell
p4520
sVlaunch
p4521
Vandroid
p4522
sVnetbeans-7
p4523
Vjava
p4524
sVcaption
p4525
Vjquery
p4526
sVshellexecute
p4527
Vc++
p4528
sVassign
p4529
Vc++
p4530
sVtabitem
p4531
Vwpf
p4532
sVsingleton
p4533
Vjava
p4534
sVacts-as-taggable-on
p4535
Vruby-on-rails
p4536
sVprobability
p4537
Vrandom
p4538
sVencoding
p4539
Vutf-8
p4540
sVinfinite
p4541
Vloops
p4542
sVlarge-data
p4543
Vmysql
p4544
sVfile-transfer
p4545
Vandroid
p4546
sVlucene-index
p4547
Vlucene
p4548
sVnsnotificationcenter
p4549
Vios
p4550
sVweblogic
p4551
Vjava
p4552
sVexpand
p4553
Vcollapse
p4554
sVcluster-analysis
p4555
g2249
sVzeromq
p4556
Vpython
p4557
sVscheme
p4558
Vracket
p4559
sVslidedown
p4560
Vjquery
p4561
sVschema
p4562
Vxml
p4563
sVascx
p4564
Vasp.net
p4565
sVgetter
p4566
Vsetter
p4567
sVbower
p4568
Vjavascript
p4569
sVmultiple-instances
p4570
Vjquery
p4571
sVtranslation
p4572
Vinternationalization
p4573
sVtfs
p4574
Vtfs2010
p4575
sVjquery
p4576
Vjavascript
p4577
sVdto
p4578
Vc#
p4579
sVffmpeg
p4580
Vvideo
p4581
sVstl
p4582
Vc++
p4583
sV.htaccess
p4584
Vmod-rewrite
p4585
sVdtd
p4586
Vxml
p4587
sVgedit
p4588
Vpython
p4589
sVevents
p4590
Vc#
p4591
sVnull
p4592
Vjava
p4593
sVfacebook-canvas
p4594
Vfacebook
p4595
sVkoala
p4596
Vruby-on-rails
p4597
sVpython-2.7
p4598
Vpython
p4599
sVpython-2.6
p4600
Vpython
p4601
sVpython-2.5
p4602
Vpython
p4603
sVboxplot
p4604
g2249
sVwininet
p4605
Vc++
p4606
sVraspberry-pi
p4607
Vpython
p4608
sVbug-tracking
p4609
Vissue-tracking
p4610
sVquote
p4611
Vphp
p4612
sVmultilingual
p4613
Vphp
p4614
sVnsoperationqueue
p4615
Vios
p4616
sValpha
p4617
Vandroid
p4618
sVpython-2.x
p4619
Vpython
p4620
sVexecutable-jar
p4621
Vjava
p4622
sVviewbag
p4623
Vasp.net-mvc
p4624
sVclear
p4625
Vcss
p4626
sVnsdateformatter
p4627
Vnsdate
p4628
sVvelocity
p4629
Vjava
p4630
sVblend
p4631
Vwpf
p4632
sVflicker
p4633
Vjquery
p4634
sVtastypie
p4635
Vdjango
p4636
sVscrollview
p4637
Vandroid
p4638
sVmfmailcomposeviewcontroll
p4639
Vios
p4640
sVparameters
p4641
Vc#
p4642
sVgoogle-play
p4643
Vandroid
p4644
sVcontroltemplate
p4645
Vwpf
p4646
sVcircle
p4647
Vandroid
p4648
sVxen
p4649
Vvirtualization
p4650
sVstd
p4651
Vc++
p4652
sVhotmail
p4653
Vemail
p4654
sVdata-access-layer
p4655
Vc#
p4656
sVcombinations
p4657
Valgorithm
p4658
sVgrep
p4659
Vbash
p4660
sVfacebook-ios-sdk
p4661
Vios
p4662
sVegit
p4663
Veclipse
p4664
sVboost
p4665
Vc++
p4666
sVgit-rebase
p4667
Vgit
p4668
sVsearch-and-replace
p4669
Vregex
p4670
sVlocale
p4671
Vjava
p4672
sVcore-audio
p4673
Vios
p4674
sVculture
p4675
Vc#
p4676
sVrtmp
p4677
Vflash
p4678
sVportrait
p4679
Vlandscape
p4680
sVqtip
p4681
Vjquery
p4682
sVkeypress
p4683
Vjquery
p4684
sVxna-4.0
p4685
Vc#
p4686
sVscalability
p4687
Vperformance
p4688
sVcore-location
p4689
Vios
p4690
sVknockout.js
p4691
Vjavascript
p4692
sVboto
p4693
Vpython
p4694
sVbox2d-iphone
p4695
Vcocos2d-iphone
p4696
sVprimary-key
p4697
Vmysql
p4698
sVfileinputstream
p4699
Vjava
p4700
sVbots
p4701
Virc
p4702
sVruby-on-rails-4
p4703
Vruby-on-rails
p4704
sVruby-on-rails-2
p4705
Vruby-on-rails
p4706
sVruby-on-rails-3
p4707
Vruby-on-rails
p4708
sVbattery
p4709
Vandroid
p4710
sVheader
p4711
Vphp
p4712
sVlinux
p4713
g2002
sVfacebook-fql
p4714
Vfacebook
p4715
sVdestructor
p4716
Vc++
p4717
sVspecial-characters
p4718
Vphp
p4719
sVmaintenance
p4720
Vsql-server
p4721
sVwill-paginate
p4722
Vruby-on-rails
p4723
sVshortcode
p4724
Vwordpress
p4725
sVandroid-maps
p4726
Vandroid
p4727
sVbrowser-cache
p4728
Vcaching
p4729
sVcovariance
p4730
Vc#
p4731
sVserversocket
p4732
Vjava
p4733
sVtwitter-bootstrap-3
p4734
Vtwitter-bootstrap
p4735
sVwakelock
p4736
Vandroid
p4737
sVimap
p4738
Vphp
p4739
sVfloating-point
p4740
g2002
sVscriptmanager
p4741
Vasp.net
p4742
sVresponsive-design
p4743
Vcss
p4744
sVmainframe
p4745
Vjcl
p4746
sVchecksum
p4747
Vjava
p4748
sVbookmarklet
p4749
Vjavascript
p4750
sVpack
p4751
Vphp
p4752
sVmalloc
p4753
g2002
sVjpa
p4754
Vjava
p4755
sVskype
p4756
Vc#
p4757
sVgimp
p4758
Vpython
p4759
sVautosize
p4760
Vc#
p4761
sVfedora
p4762
Vlinux
p4763
sVlibcurl
p4764
Vcurl
p4765
sVtext-to-speech
p4766
Vandroid
p4767
sVjpa-2.0
p4768
Vjava
p4769
sVonclick
p4770
Vjavascript
p4771
sVzope
p4772
Vplone
p4773
sVcomposition
p4774
Vinheritance
p4775
sVconflict
p4776
Vjquery
p4777
sVinterpolation
p4778
Vpython
p4779
sVstorekit
p4780
Vios
p4781
sVandroid-sqlite
p4782
Vandroid
p4783
sVbrowser-history
p4784
Vjavascript
p4785
sVuser
p4786
Vphp
p4787
sVgsp
p4788
Vgrails
p4789
sVsha1
p4790
Vhash
p4791
sVdojox.grid.datagrid
p4792
Vdojo
p4793
sVdatabase
p4794
Vmysql
p4795
sVdocker
p4796
Vlxc
p4797
sVrbenv
p4798
Vruby
p4799
sVgsl
p4800
Vc++
p4801
sVc++builder
p4802
Vc++
p4803
sVpacket-sniffers
p4804
Vpacket-capture
p4805
sVcout
p4806
Vc++
p4807
sVtinymce
p4808
Vjavascript
p4809
sVpywin32
p4810
Vpython
p4811
sVunique-constraint
p4812
Vsql
p4813
sVjdeveloper
p4814
Vjava
p4815
sVlibpcap
p4816
g186
sVormlite
p4817
Vandroid
p4818
sVshortcut
p4819
Vandroid
p4820
sVvsix
p4821
Vvisual-studio-2010
p4822
sVreportviewer
p4823
Vc#
p4824
sVtransformation
p4825
Vxslt
p4826
sVpython-multithreading
p4827
Vpython
p4828
sVnginx
p4829
Vphp
p4830
sVoverriding
p4831
Vjava
p4832
sVactivex
p4833
Vc#
p4834
sVsubmission
p4835
Vforms
p4836
sVnsview
p4837
Vcocoa
p4838
sVmanifest
p4839
Vandroid
p4840
sVwordpress-plugin-dev
p4841
Vwordpress
p4842
sVzepto
p4843
Vjavascript
p4844
sVterminology
p4845
Vjava
p4846
sVfreebase
p4847
Vmql
p4848
sVcreation
p4849
Vjava
p4850
sVsame-origin-policy
p4851
Vjavascript
p4852
sVdocusignapi
p4853
Vdocusign
p4854
sVwarnings
p4855
Vphp
p4856
sVid3
p4857
Vmp3
p4858
sVmaven-assembly-plugin
p4859
Vmaven
p4860
sVcgi
p4861
Vperl
p4862
sVrun
p4863
Vjava
p4864
sVprocessing
p4865
Vjava
p4866
sVbitmapfactory
p4867
Vandroid
p4868
sVjdbctemplate
p4869
Vspring
p4870
sVasp.net-web-api
p4871
Vc#
p4872
sVgnome
p4873
Vlinux
p4874
sVtracing
p4875
Vc#
p4876
sVgithub-api
p4877
Vgithub
p4878
sVsimulation
p4879
Vjava
p4880
sVidl
p4881
Vc++
p4882
sVdatasource
p4883
Vc#
p4884
sVjsp
p4885
Vjava
p4886
sVide
p4887
Veclipse
p4888
sVshiny
p4889
g2249
sVandroid-contacts
p4890
Vandroid
p4891
sVblock
p4892
Vruby
p4893
sVactive-directory
p4894
Vc#
p4895
sVgtkmm
p4896
Vc++
p4897
sVweb-crawler
p4898
Vpython
p4899
sVperl
p4900
Vregex
p4901
sVperformancecounter
p4902
Vc#
p4903
sVstatistics
p4904
g2249
sVinstance-variables
p4905
Vruby
p4906
sVapp-engine-ndb
p4907
Vgoogle-app-engine
p4908
sVheroku
p4909
Vruby-on-rails
p4910
sVoutputcache
p4911
Vasp.net
p4912
sVstatic-linking
p4913
Vc++
p4914
sVinjection
p4915
Vphp
p4916
sVrequestfactory
p4917
Vgwt
p4918
sVfacebook-sharer
p4919
Vfacebook
p4920
sVutc
p4921
Vdatetime
p4922
sVutf
p4923
Vencoding
p4924
sVmiddleware
p4925
Vnode.js
p4926
sVmobile
p4927
Vandroid
p4928
sVaccessibility
p4929
Vhtml
p4930
sVxslt-1.0
p4931
Vxslt
p4932
sVflowplayer
p4933
Vjavascript
p4934
sVnsuserdefaults
p4935
Vios
p4936
sVgecko
p4937
Vfirefox
p4938
sVcross-compiling
p4939
Vlinux
p4940
sVpolygon
p4941
Vgeometry
p4942
sVfirst-responder
p4943
Vios
p4944
sVnan
p4945
Vjavascript
p4946
sVnav
p4947
Vcss
p4948
sVnat
p4949
Vnetworking
p4950
sVload-balancing
p4951
Vasp.net
p4952
sVpandas
p4953
Vpython
p4954
sVdraw
p4955
Vandroid
p4956
sVmongodb
p4957
Vnode.js
p4958
sVcaching
p4959
Vphp
p4960
sVdrag
p4961
Vjquery
p4962
sVeval
p4963
Vjavascript
p4964
sVstructure
p4965
Vc
p4966
sVsvn
p4967
Vtortoisesvn
p4968
sVwebdriver
p4969
Vjava
p4970
sVsvm
p4971
Vmachine-learning
p4972
sVzooming
p4973
Vandroid
p4974
sVphysics
p4975
Vmath
p4976
sVdjango-registration
p4977
Vdjango
p4978
sVrequired
p4979
Vhtml5
p4980
sVyoutube
p4981
Vyoutube-api
p4982
sVjpanel
p4983
Vjava
p4984
sVcustom-component
p4985
Vandroid
p4986
sVoop
p4987
Vphp
p4988
sVreverse-proxy
p4989
Vapache
p4990
sVmsbuild
p4991
Vvisual-studio-2010
p4992
sVjson.net
p4993
Vc#
p4994
sVgd
p4995
Vphp
p4996
sVgo
p4997
Vgoogle-app-engine
p4998
sVflash-builder
p4999
Vflex
p5000
sVinformation-retrieval
p5001
Vjava
p5002
sVwizard
p5003
Vasp.net
p5004
sVrollback
p5005
Vtransactions
p5006
sVgamekit
p5007
Vios
p5008
sVfacebook
p5009
Vfacebook-graph-api
p5010
sVapt-get
p5011
Vubuntu
p5012
sVtortoisegit
p5013
Vgit
p5014
sVbit-shift
p5015
g4966
sVmercurial
p5016
Vversion-control
p5017
sVbutton
p5018
Vandroid
p5019
sVspring-jdbc
p5020
Vjava
p5021
sVhive
p5022
Vhadoop
p5023
sVolap
p5024
Vssas
p5025
sVgeospatial
p5026
Vmongodb
p5027
sVglfw
p5028
Vopengl
p5029
sVtidesdk
p5030
Vjavascript
p5031
sVpicker
p5032
Vandroid
p5033
sVzk
p5034
Vjava
p5035
sVdownload
p5036
Vphp
p5037
sVclick
p5038
Vjquery
p5039
sVphpdoc
p5040
Vphp
p5041
sVresque
p5042
Vruby-on-rails
p5043
sVcell
p5044
Vtable
p5045
sVcustom-data-attribute
p5046
Vjquery
p5047
sVvolatile
p5048
Vjava
p5049
sVvb6
p5050
Vc#
p5051
sVplayn
p5052
Vjava
p5053
sVdrools
p5054
Vjava
p5055
sVdrupal-7
p5056
Vdrupal
p5057
sVdrupal-6
p5058
Vdrupal
p5059
sVmatplotlib
p5060
Vpython
p5061
sVlogout
p5062
Vphp
p5063
sVaccessor
p5064
Vc#
p5065
sVz3
p5066
Vsmt
p5067
sVinfopath
p5068
Vsharepoint
p5069
sVvba
p5070
Vexcel
p5071
sVuikit
p5072
Viphone
p5073
sVvbo
p5074
Vopengl
p5075
sVproducts
p5076
Vmagento
p5077
sVautomatic-ref-counting
p5078
Vobjective-c
p5079
sVperl-module
p5080
Vperl
p5081
sVwif
p5082
Vwcf
p5083
sVoutlook-addin
p5084
Vc#
p5085
sVrealloc
p5086
g4966
sVnsattributedstring
p5087
Vios
p5088
sVreadfile
p5089
Vphp
p5090
sVontouchevent
p5091
Vandroid
p5092
sVboolean
p5093
Vjava
p5094
sVteam-foundation-service
p5095
Vtfs
p5096
sVstatic-analysis
p5097
Vjava
p5098
sVcloud
p5099
Vazure
p5100
sVwix
p5101
Vwindows-installer
p5102
sVdjango-haystack
p5103
Vdjango
p5104
sVhudson
p5105
Vjenkins
p5106
sVnuget
p5107
Vnuget-package
p5108
sVcamera
p5109
Vandroid
p5110
sVqunit
p5111
Vjavascript
p5112
sVvisibility
p5113
Vandroid
p5114
sVpowermock
p5115
Vjava
p5116
sVresize
p5117
Vjquery
p5118
sVemail-validation
p5119
Vregex
p5120
sVanonymous-types
p5121
Vc#
p5122
sVphing
p5123
Vphp
p5124
sVperformance-testing
p5125
Vperformance
p5126
sVinternet-explorer-11
p5127
Vinternet-explorer
p5128
sVinternet-explorer-10
p5129
Vjavascript
p5130
sVnetwork-protocols
p5131
Vnetworking
p5132
sVcontrol
p5133
Vc#
p5134
sVlinks
p5135
Vhtml
p5136
sVprogress-4gl
p5137
Vopenedge
p5138
sVsudo
p5139
Vlinux
p5140
sVsuds
p5141
Vpython
p5142
sVwebmatrix
p5143
Vrazor
p5144
sVevent-log
p5145
Vc#
p5146
sVuibarbuttonitem
p5147
Vios
p5148
sVjoomla-extensions
p5149
Vjoomla
p5150
sVuibinder
p5151
Vgwt
p5152
sVpyqt
p5153
Vpython
p5154
sVscriptaculous
p5155
Vjavascript
p5156
sVjwplayer
p5157
Vjavascript
p5158
sVgalleria
p5159
Vjquery
p5160
sVdesktop-application
p5161
Vc#
p5162
sValertdialog
p5163
Vandroid
p5164
sVpydev
p5165
Veclipse
p5166
sVxmlns
p5167
Vxml
p5168
sVexport-to-csv
p5169
Vcsv
p5170
sVvisual-studio-team-system
p5171
Vtfs
p5172
sVthread-safety
p5173
Vmultithreading
p5174
sVlandscape-portrait
p5175
Vandroid
p5176
sVjna
p5177
Vjava
p5178
sVpython-c-api
p5179
Vpython
p5180
sVjni
p5181
Vjava
p5182
sVrestful-authentication
p5183
Vrest
p5184
sVsubversive
p5185
Vsvn
p5186
sVphpbb3
p5187
Vphp
p5188
sVsmtpclient
p5189
Vc#
p5190
sVclient-certificates
p5191
Vssl
p5192
sVlistboxitem
p5193
Vwpf
p5194
sVpixel
p5195
Vimage
p5196
sVfactorial
p5197
Vrecursion
p5198
sVauto
p5199
Vc++
p5200
sVnokia
p5201
Vjava-me
p5202
sVms-word
p5203
Vc#
p5204
sVsmarty
p5205
Vphp
p5206
sVqgraphicsitem
p5207
Vqt
p5208
sVcakephp
p5209
Vphp
p5210
sVxpcom
p5211
Vfirefox-addon
p5212
sVstoryboard
p5213
Vios
p5214
sVmodx
p5215
Vmodx-revolution
p5216
sVweak-references
p5217
Vjava
p5218
sVslide
p5219
Vjquery
p5220
sViphone-privateapi
p5221
Vios
p5222
sVtabcontrol
p5223
Vc#
p5224
sVjsp-tags
p5225
Vjsp
p5226
sVbluetooth
p5227
Vandroid
p5228
sVimage-processing
p5229
Vopencv
p5230
sVcitrix
p5231
Vxenapp
p5232
sVmargins
p5233
Vcss
p5234
sVtransitions
p5235
Vcss
p5236
sVobjectdatasource
p5237
Vasp.net
p5238
sVios-4.2
p5239
Viphone
p5240
sVreboot
p5241
Vandroid
p5242
sVcritical-section
p5243
Vmultithreading
p5244
sVnsregularexpression
p5245
Vregex
p5246
sVnstask
p5247
Vobjective-c
p5248
sViostream
p5249
Vc++
p5250
sVwatermark
p5251
Vphp
p5252
sVhl7
p5253
Vmirth
p5254
sVdelegates
p5255
Vc#
p5256
sVundo
p5257
Vredo
p5258
sVqt-creator
p5259
Vqt
p5260
sVgeometry
p5261
Vmath
p5262
sVdeprecated
p5263
Vjava
p5264
sVcruisecontrol.net
p5265
Vmsbuild
p5266
sVspoj
p5267
Valgorithm
p5268
sVtimer
p5269
Vc#
p5270
sVblogger
p5271
Vjavascript
p5272
sVm2eclipse
p5273
Veclipse
p5274
sVjcombobox
p5275
Vjava
p5276
sVeclipse-adt
p5277
Vandroid
p5278
sVgoogle-chrome-devtools
p5279
Vgoogle-chrome
p5280
sVplaylist
p5281
Vjavascript
p5282
sVprivacy
p5283
Vfacebook
p5284
sVmkdir
p5285
Vphp
p5286
sVwrapper
p5287
Vc++
p5288
sVbatch-file
p5289
Vwindows
p5290
sVhttp-status-codes
p5291
Vhttp
p5292
sVphp-extension
p5293
Vphp
p5294
sVfinal
p5295
Vjava
p5296
sVconfigure
p5297
Vmake
p5298
sVws-security
p5299
Vweb-services
p5300
sVrsa
p5301
Vencryption
p5302
sVmanipulation
p5303
Vstring
p5304
sVrequiredfieldvalidator
p5305
Vasp.net
p5306
sVupdating
p5307
Vandroid
p5308
sVrss
p5309
Vphp
p5310
sVandroid-custom-view
p5311
Vandroid
p5312
sVfscanf
p5313
g222
sVfragment-shader
p5314
Vopengl
p5315
sVvideo-processing
p5316
Vvideo
p5317
sVtabs
p5318
Vandroid
p5319
sVunpivot
p5320
Vsql
p5321
sVborder
p5322
Vcss
p5323
sVfluent
p5324
Vnhibernate
p5325
sVwordpress-loop
p5326
Vwordpress
p5327
sVnsis
p5328
Vinstaller
p5329
sVinstance
p5330
Vclass
p5331
sVcocoa-bindings
p5332
Vcocoa
p5333
sVjavacv
p5334
Vopencv
p5335
sVmongrel
p5336
Vruby-on-rails
p5337
sVjboss5.x
p5338
Vjava
p5339
sVuiinterfaceorientation
p5340
Vios
p5341
sVawt
p5342
Vjava
p5343
sVvalue-type
p5344
Vc#
p5345
sVawk
p5346
Vsed
p5347
sVoptional-parameters
p5348
Vc#
p5349
sVframe-rate
p5350
Vandroid
p5351
sVgallery
p5352
Vandroid
p5353
sVepub
p5354
Vandroid
p5355
sVurl
p5356
Vphp
p5357
sVindy
p5358
Vdelphi
p5359
sVuri
p5360
Vandroid
p5361
sVspam-prevention
p5362
Vphp
p5363
sVsnapshot
p5364
Vmaven
p5365
sVclass-library
p5366
Vc#
p5367
sVloadrunner
p5368
Vperformance-testing
p5369
sVeclipselink
p5370
Vjpa
p5371
sVcss-selectors
p5372
Vcss
p5373
sVrmagick
p5374
Vruby
p5375
sVdotnetopenauth
p5376
Vopenid
p5377
sVhector
p5378
Vcassandra
p5379
sVangularjs-routing
p5380
Vangularjs
p5381
sVdatagram
p5382
Vjava
p5383
sVspring-security
p5384
Vspring
p5385
sVauto-update
p5386
Vandroid
p5387
sVubuntu-12.04
p5388
Vubuntu
p5389
sVitemrenderer
p5390
Vflex
p5391
sVstrpos
p5392
Vphp
p5393
sVtwilio
p5394
Vphp
p5395
sVtbb
p5396
Vc++
p5397
sVscrolling
p5398
Vjquery
p5399
sVprocesses
p5400
Vc#
p5401
sVnskeyedarchiver
p5402
Vobjective-c
p5403
sVnsbutton
p5404
Vcocoa
p5405
sVcoronasdk
p5406
Vlua
p5407
sVsha
p5408
Vhash
p5409
sVdatetime-format
p5410
Vdatetime
p5411
sVgit-svn
p5412
Vgit
p5413
sVdpi
p5414
Vandroid
p5415
sVcognos
p5416
Vcognos-8
p5417
sVopenoffice.org
p5418
Vjava
p5419
sVmulti-select
p5420
Vjquery
p5421
sVpreventdefault
p5422
Vjquery
p5423
sVjavasound
p5424
Vjava
p5425
sVsetup-deployment
p5426
Vc#
p5427
sVandroid-adapter
p5428
Vandroid
p5429
sVresourcebundle
p5430
Vjava
p5431
sVlegacy
p5432
Vjava
p5433
sVafnetworking
p5434
Vios
p5435
sVxtragrid
p5436
Vdevexpress
p5437
sVxerces
p5438
Vxml
p5439
sVstanford-nlp
p5440
Vnlp
p5441
sVlua
p5442
Vcorona
p5443
sVstate
p5444
Vandroid
p5445
sVquery-string
p5446
Vasp.net
p5447
sVmasking
p5448
Vjquery
p5449
sVflickr
p5450
Vflickr-api
p5451
sVcomparable
p5452
Vjava
p5453
sVangularjs-directive
p5454
Vangularjs
p5455
sVfacebook-apps
p5456
Vfacebook
p5457
sVkey
p5458
Vphp
p5459
sVvirtual-functions
p5460
Vc++
p5461
sVcoldfusion
p5462
Vcoldfusion-9
p5463
sVubuntu-10.04
p5464
Vlinux
p5465
sVandroid-notifications
p5466
Vandroid
p5467
sVdocumentation-generation
p5468
Vdocumentation
p5469
sVjersey
p5470
Vjava
p5471
sVfbml
p5472
Vfacebook
p5473
sVthickbox
p5474
Vjquery
p5475
sVvxworks
p5476
g4966
sVmodel-associations
p5477
Vruby-on-rails
p5478
sVversion-control
p5479
Vgit
p5480
sVemail-integration
p5481
Vemail
p5482
sVandroid-webview
p5483
Vandroid
p5484
sVandroid-button
p5485
Vandroid
p5486
sVcultureinfo
p5487
Vc#
p5488
sVaddition
p5489
Vjava
p5490
sVsolr
p5491
Vlucene
p5492
sVcore-data
p5493
Vios
p5494
sVuitableviewcell
p5495
Vuitableview
p5496
sVaggregate-functions
p5497
Vsql
p5498
sVusername
p5499
Vphp
p5500
sVxlsx
p5501
Vexcel
p5502
sVpic
p5503
g4966
sVmysql-real-escape-string
p5504
Vphp
p5505
sVpolicy
p5506
Vjava
p5507
sVcontroller
p5508
Vruby-on-rails
p5509
sVandroid-sdcard
p5510
Vandroid
p5511
sVotp
p5512
Verlang
p5513
sVboost-graph
p5514
Vc++
p5515
sVxpages
p5516
Vxpages-extlib
p5517
sVgoogle-maps-android-api-2
p5518
Vandroid
p5519
sVdvcs
p5520
Vmercurial
p5521
sVjquery-deferred
p5522
Vjquery
p5523
sVrequirejs
p5524
Vjavascript
p5525
sVopenstreetmap
p5526
Vandroid
p5527
sVdotnetzip
p5528
Vc#
p5529
sVsqlbulkcopy
p5530
Vc#
p5531
sVuiimageview
p5532
Vios
p5533
sVsurface
p5534
Vwpf
p5535
sVjquery-events
p5536
Vjavascript
p5537
sVcapture
p5538
Vc#
p5539
sVqgraphicsscene
p5540
Vqt
p5541
sVmatcher
p5542
Vjava
p5543
sVclassnotfoundexception
p5544
Vjava
p5545
sVhttp
p5546
Vjava
p5547
sVvideo-streaming
p5548
Vandroid
p5549
sVn-tier-architecture
p5550
Vc#
p5551
sVeffect
p5552
Vjquery
p5553
sVspree
p5554
Vruby-on-rails
p5555
sVpolymorphism
p5556
Vc++
p5557
sVreflection
p5558
Vc#
p5559
sVandroid-volley
p5560
Vandroid
p5561
sVfluent-nhibernate-mapping
p5562
Vfluent-nhibernate
p5563
sVdraggable
p5564
Vjquery
p5565
sVcase-insensitive
p5566
Vcase-sensitive
p5567
sVfacebook-comments
p5568
Vfacebook
p5569
sVweb-deployment
p5570
Vasp.net
p5571
sVrestore
p5572
Vbackup
p5573
sVlotus-notes
p5574
Vlotus-domino
p5575
sVflyway
p5576
Vjava
p5577
sVlexical-analysis
p5578
Vparsing
p5579
sVvirtual
p5580
Vc++
p5581
sVlow-level
p5582
g222
sVexception-handling
p5583
Vc#
p5584
sVextends
p5585
Vjava
p5586
sVfacebook-like
p5587
Vfacebook
p5588
sVapplication-server
p5589
Vjava
p5590
sVadodb
p5591
Vphp
p5592
sVravendb
p5593
Vc#
p5594
sVitemtemplate
p5595
Vwpf
p5596
sVplsql
p5597
Voracle
p5598
sVemgucv
p5599
Vc#
p5600
sVonmouseover
p5601
Vjavascript
p5602
sVintersection
p5603
Vjava
p5604
sVuislider
p5605
Vios
p5606
sVcountdowntimer
p5607
Vandroid
p5608
sVxss
p5609
Vjavascript
p5610
sVcommand-prompt
p5611
Vwindows
p5612
sVxquery
p5613
Vxml
p5614
sVxsd
p5615
Vxml
p5616
sVservlet-filters
p5617
Vjava
p5618
sVmonotouch.dialog
p5619
Vmonotouch
p5620
sVandroid-orientation
p5621
Vandroid
p5622
sVtwitter
p5623
Vphp
p5624
sVrepeat
p5625
Vandroid
p5626
sVhome
p5627
Vandroid
p5628
sVborland
p5629
Vc++
p5630
sVoverlay
p5631
Vandroid
p5632
sVgoogle-sites
p5633
Vgoogle-apps-script
p5634
sVkettle
p5635
Vpentaho
p5636
sVtooltip
p5637
Vjquery
p5638
sVdjango-views
p5639
Vdjango
p5640
sVjcrop
p5641
Vjquery
p5642
sVbackground-color
p5643
Vcss
p5644
sVoffset
p5645
Vjquery
p5646
sVjava
p5647
Vandroid
p5648
sVboost-asio
p5649
Vc++
p5650
sVpaypal-subscriptions
p5651
Vpaypal
p5652
sVwindows-shell
p5653
Vwindows
p5654
sVfile-system
p5655
Vjava
p5656
sVh2
p5657
Vjava
p5658
sVnested-forms
p5659
Vruby-on-rails
p5660
sVcocoa
p5661
Vobjective-c
p5662
sVdev-c++
p5663
Vc++
p5664
sVbson
p5665
Vmongodb
p5666
sVw3c
p5667
Vhtml
p5668
sVnetworking
p5669
Vjava
p5670
sVembedded-linux
p5671
Vlinux
p5672
sVprojects-and-solutions
p5673
Vvisual-studio
p5674
sVhistogram
p5675
g158
sVoverflow
p5676
Vcss
p5677
sVear
p5678
Vjava
p5679
sVconverter
p5680
Vc#
p5681
sVcells
p5682
Vexcel
p5683
sVcommit
p5684
Vgit
p5685
sVhosting
p5686
Vphp
p5687
sVsigned
p5688
Vunsigned
p5689
sVlimit
p5690
Vmysql
p5691
sVvoid-pointers
p5692
g186
sVdevise
p5693
Vruby-on-rails
p5694
sVandroid-emulator
p5695
Vandroid
p5696
sVdatacontract
p5697
Vwcf
p5698
sValassetslibrary
p5699
Vios
p5700
sVmod-wsgi
p5701
Vdjango
p5702
sVinotifypropertychanged
p5703
Vc#
p5704
sVmaster-detail
p5705
Vios
p5706
sVmeteor
p5707
Vjavascript
p5708
sVxsd-validation
p5709
Vxsd
p5710
sVworker
p5711
Vmultithreading
p5712
sVvtable
p5713
Vc++
p5714
sVamazon-dynamodb
p5715
Vamazon-web-services
p5716
sVssms
p5717
Vsql-server
p5718
sVslideshow
p5719
Vjquery
p5720
sVcpu-usage
p5721
Vperformance
p5722
sVbuffer-overflow
p5723
g4966
sVwamp
p5724
Vphp
p5725
sVfeature-detection
p5726
Vopencv
p5727
sVsphinx
p5728
Vphp
p5729
sVusing
p5730
Vc#
p5731
sVantialiasing
p5732
Vfonts
p5733
sVblogs
p5734
Vwordpress
p5735
sVflex4.6
p5736
Vflex
p5737
sVpersistent
p5738
Vhaskell
p5739
sVflex4.5
p5740
Vflex
p5741
sVfile-type
p5742
Vphp
p5743
sVvalidation
p5744
Vjquery
p5745
sVbcp
p5746
Vsql-server
p5747
sVsimilarity
p5748
Valgorithm
p5749
sVdynamic
p5750
Vc#
p5751
sVsparse-matrix
p5752
Vpython
p5753
sVbytecode
p5754
Vjava
p5755
sVgmaps4rails
p5756
Vruby-on-rails
p5757
sVswap
p5758
Vc++
p5759
sVendianness
p5760
g222
sVnew-operator
p5761
Vc++
p5762
sVsha256
p5763
Vhash
p5764
sVfieldset
p5765
Vcss
p5766
sVclojurescript
p5767
Vclojure
p5768
sVvoid
p5769
g186
sVmonodevelop
p5770
Vmono
p5771
sVspring-roo
p5772
Vspring
p5773
sVsmack
p5774
Vxmpp
p5775
sVupdates
p5776
Vandroid
p5777
sVnamespaces
p5778
Vc++
p5779
sVvoip
p5780
Vsip
p5781
sVknockout-mapping-plugin
p5782
Vknockout.js
p5783
sVsolution
p5784
Vvisual-studio
p5785
sVasp.net-mvc-partialview
p5786
Vasp.net-mvc
p5787
sVvector
p5788
Vc++
p5789
sVpartial-views
p5790
Vasp.net-mvc
p5791
sVvhdl
p5792
Vfpga
p5793
sVyacc
p5794
Vbison
p5795
sVnopcommerce
p5796
Vasp.net-mvc
p5797
sVpreferences
p5798
Vandroid
p5799
sVnumberformat
p5800
Vjava
p5801
sVadhoc
p5802
Viphone
p5803
sVmetadata
p5804
Vc#
p5805
sVmef
p5806
Vc#
p5807
sVquirks-mode
p5808
Vinternet-explorer
p5809
sVjavamail
p5810
Vjava
p5811
sVactive
p5812
Vcss
p5813
sVaxapta
p5814
Vx++
p5815
sVmex
p5816
Vmatlab
p5817
sVdry
p5818
Vruby-on-rails
p5819
sVreactive-programming
p5820
Vsystem.reactive
p5821
sVindentation
p5822
Vpython
p5823
sVprolog
p5824
Vlist
p5825
sVgroup-concat
p5826
Vmysql
p5827
sVxelement
p5828
Vc#
p5829
sVopengraph
p5830
Vfacebook
p5831
sVxmlserializer
p5832
Vc#
p5833
sVcss-border-radius
p5834
Vcss
p5835
sVlandscape
p5836
Viphone
p5837
sVcss-animations
p5838
Vcss3
p5839
sVhard-drive
p5840
Vlinux
p5841
sVado.net-entity-data-model
p5842
Ventity-framework
p5843
sVfile-format
p5844
Vc++
p5845
sVrebol
p5846
Vrebol3
p5847
sVcall
p5848
Vandroid
p5849
sVtweepy
p5850
Vpython
p5851
sVnsscrollview
p5852
Vcocoa
p5853
sVcomposite
p5854
Vjava
p5855
sVnavigationcontroller
p5856
Viphone
p5857
sVlazarus
p5858
Vdelphi
p5859
sVvcard
p5860
Vandroid
p5861
sVcomputer-vision
p5862
Vopencv
p5863
sVsetup
p5864
Vc#
p5865
sVdoctype
p5866
Vhtml
p5867
sVjquery-mobile
p5868
Vjquery
p5869
sVroot
p5870
Vandroid
p5871
sVsocial-networking
p5872
Vfacebook
p5873
sVcursors
p5874
Vsql
p5875
sVosmdroid
p5876
Vandroid
p5877
sVshapefile
p5878
g16
sVsharepoint
p5879
Vsharepoint-2010
p5880
sV.net-1.1
p5881
Vc#
p5882
sVline-breaks
p5883
Vphp
p5884
sVglobalization
p5885
Vc#
p5886
sVconfig
p5887
Vphp
p5888
sVehcache
p5889
Vjava
p5890
sVglassfish-3
p5891
Vjava
p5892
sVglassfish-4
p5893
Vjava
p5894
sVcode-behind
p5895
Vasp.net
p5896
sVethernet
p5897
Vnetworking
p5898
sVtemplate-specialization
p5899
Vc++
p5900
sVfifo
p5901
g4966
sVkeyboard
p5902
Vandroid
p5903
sVnonblocking
p5904
Vsockets
p5905
sVerlang
p5906
Votp
p5907
sVmodel-binding
p5908
Vasp.net-mvc
p5909
sVsemantic-markup
p5910
Vhtml
p5911
sVdecorator
p5912
Vpython
p5913
sVaddclass
p5914
Vjquery
p5915
sVinstanceof
p5916
Vjava
p5917
sVlinear-programming
p5918
Vmathematical-optimization
p5919
sVgrammar
p5920
Vparsing
p5921
sVprivate-members
p5922
Vc++
p5923
sVsubquery
p5924
Vmysql
p5925
sVorbeon
p5926
Vxforms
p5927
sVmean
p5928
Vr
p5929
sVfont-size
p5930
Vcss
p5931
sVadobe
p5932
Vflex
p5933
sVaidl
p5934
Vandroid
p5935
sVgridbaglayout
p5936
Vjava
p5937
sVviewdidload
p5938
Vios
p5939
sVtcplistener
p5940
Vc#
p5941
sVextract
p5942
Vphp
p5943
sVfilesystemwatcher
p5944
Vc#
p5945
sVwxwidgets
p5946
Vc++
p5947
sVgradient
p5948
Vcss
p5949
sVcontent
p5950
Vjquery
p5951
sVoscommerce
p5952
Vphp
p5953
sVgenerics
p5954
Vc#
p5955
sVlinear
p5956
g2249
sVresume
p5957
Vandroid
p5958
sVlogging
p5959
Vjava
p5960
sVckeditor
p5961
Vjavascript
p5962
sVclient-server
p5963
Vjava
p5964
sVmessages
p5965
Vwindows
p5966
sViso
p5967
Vc++
p5968
sVsignature
p5969
Vjava
p5970
sVxilinx
p5971
Vvhdl
p5972
sVadvanceddatagrid
p5973
Vflex
p5974
sVmshtml
p5975
Vc#
p5976
sVcore-motion
p5977
Vios
p5978
sVhook
p5979
Vc++
p5980
sVneo4j
p5981
Vcypher
p5982
sVandroid-library
p5983
Vandroid
p5984
sVicefaces
p5985
Vjsf
p5986
sVstruts
p5987
Vjava
p5988
sVtwisted
p5989
Vpython
p5990
sVvisual-studio-2008
p5991
Vc#
p5992
sVvisual-studio-2005
p5993
Vvisual-studio
p5994
sVnutch
p5995
Vsolr
p5996
sVsqlclr
p5997
Vsql-server
p5998
sVlighttpd
p5999
Vphp
p6000
sVfile-permissions
p6001
Vphp
p6002
sVuinavigationbar
p6003
Vios
p6004
sVdistance
p6005
Vandroid
p6006
sVbiginteger
p6007
Vjava
p6008
sVkeyword
p6009
Vc#
p6010
sVbits
p6011
g222
sVpagespeed
p6012
Vperformance
p6013
sVgae-datastore
p6014
Vgoogle-app-engine
p6015
sVdjango-south
p6016
Vdjango
p6017
sVflex-lexer
p6018
Vbison
p6019
sVseek
p6020
Vandroid
p6021
sVflowdocument
p6022
Vwpf
p6023
sVchess
p6024
Vjava
p6025
sVmicrosoft-metro
p6026
Vwindows-8
p6027
sVnetworkstream
p6028
Vc#
p6029
sVpython-import
p6030
Vpython
p6031
sVuisearchbar
p6032
Vios
p6033
sVnoclassdeffounderror
p6034
Vjava
p6035
sVnewline
p6036
Vphp
p6037
sVpentaho
p6038
Vkettle
p6039
sViterate
p6040
Vphp
p6041
sVmany-to-one
p6042
Vhibernate
p6043
sVfile-rename
p6044
Vphp
p6045
sVdom
p6046
Vjavascript
p6047
sVvisualsvn-server
p6048
Vsvn
p6049
sValarm
p6050
Vandroid
p6051
sVyahoo-pipes
p6052
Vrss
p6053
sVnpgsql
p6054
Vpostgresql
p6055
sVpoints
p6056
Vc#
p6057
sVheap-memory
p6058
Vjava
p6059
sVdos
p6060
Vbatch-file
p6061
sVdot
p6062
Vgraphviz
p6063
sVsigsegv
p6064
Vc++
p6065
sVimmutability
p6066
Vjava
p6067
sVcancan
p6068
Vruby-on-rails
p6069
sVnuget-package
p6070
Vnuget
p6071
sVvsts2008
p6072
Vc#
p6073
sVfont-face
p6074
Vcss
p6075
sVcreate-table
p6076
Vmysql
p6077
sVmembership-provider
p6078
Vasp.net
p6079
sVvisualforce
p6080
Vsalesforce
p6081
sVcross-platform
p6082
Vc++
p6083
sVcelery
p6084
Vpython
p6085
sVbezier-curve
p6086
Vbezier
p6087
sVfolder
p6088
Vfile
p6089
sVtiles
p6090
Vjava
p6091
sVkeyboard-events
p6092
Vjavascript
p6093
sVselecteditem
p6094
Vwpf
p6095
sVstop
p6096
Vjquery
p6097
sVautolayout
p6098
Vios
p6099
sVdatetimepicker
p6100
Vc#
p6101
sVcgrect
p6102
Vios
p6103
sVpowershell-v3.0
p6104
Vpowershell
p6105
sVreload
p6106
Vjavascript
p6107
sVarchitecture
p6108
Vc#
p6109
sVnsthread
p6110
Vobjective-c
p6111
sVpyside
p6112
Vpython
p6113
sVtesting
p6114
Vunit-testing
p6115
sVjquery-ui-tabs
p6116
Vjquery
p6117
sVweb-applications
p6118
Vjava
p6119
sVspring-batch
p6120
Vspring
p6121
sVenthought
p6122
Vpython
p6123
sVstatic-libraries
p6124
Vc++
p6125
sVsolr4
p6126
Vsolr
p6127
sVreddit
p6128
Vpython
p6129
sVaddsubview
p6130
Vios
p6131
sVw3c-validation
p6132
Vhtml
p6133
sVteam-build
p6134
Vtfs
p6135
sVloading
p6136
Vjquery
p6137
sVmodeling
p6138
Vuml
p6139
sVsolrj
p6140
Vsolr
p6141
sVunc
p6142
Vc#
p6143
sVxforms
p6144
Vorbeon
p6145
sVhighcharts
p6146
Vjavascript
p6147
sVloader
p6148
Vactionscript-3
p6149
sVweb-parts
p6150
Vsharepoint
p6151
sVgoogle-glass
p6152
Vgoogle-gdk
p6153
sVdjango-template-tags
p6154
Vdjango
p6155
sVcodeigniter
p6156
Vphp
p6157
sVpatch
p6158
Vdiff
p6159
sVpage-lifecycle
p6160
Vasp.net
p6161
sVhaxe
p6162
Vflash
p6163
sVhtml5-audio
p6164
Vhtml5
p6165
sVnumpy
p6166
Vpython
p6167
sVcode-formatting
p6168
Veclipse
p6169
sVwebsite
p6170
Vhtml
p6171
sVonblur
p6172
Vjavascript
p6173
sVradio-group
p6174
Vandroid
p6175
sVdismiss
p6176
Vios
p6177
sVremovechild
p6178
Vactionscript-3
p6179
sVdistributed-computing
p6180
Vjava
p6181
sVsource-code
p6182
Vjava
p6183
sVnested-sets
p6184
Vmysql
p6185
sVandroid-contentresolver
p6186
Vandroid
p6187
sVexception
p6188
Vjava
p6189
sVprivatekey
p6190
Vrsa
p6191
sVsetuptools
p6192
Vpython
p6193
sVipython-notebook
p6194
Vipython
p6195
sVanchor
p6196
Vhtml
p6197
sVspawn
p6198
Vnode.js
p6199
sVassociations
p6200
Vruby-on-rails
p6201
sVip
p6202
Vnetworking
p6203
sVjoomla3.0
p6204
Vjoomla
p6205
sVsas
p6206
Vsql
p6207
sVil
p6208
Vc#
p6209
sVio
p6210
Vjava
p6211
sVmouse
p6212
Vc#
p6213
sVmako
p6214
Vpython
p6215
sVuistoryboard
p6216
Vios
p6217
sVmake
p6218
Vmakefile
p6219
sVstring-comparison
p6220
Vstring
p6221
sVextjs4
p6222
Vextjs
p6223
sVextjs3
p6224
Vextjs
p6225
sVgoogle-spreadsheet
p6226
Vgoogle-apps-script
p6227
sVxbap
p6228
Vwpf
p6229
sVradiobuttonlist
p6230
Vasp.net
p6231
sVireport
p6232
Vjasper-reports
p6233
sVunicorn
p6234
Vruby-on-rails
p6235
sVremote-desktop
p6236
Vwindows
p6237
sVxjc
p6238
Vjaxb
p6239
sVjstl
p6240
Vjsp
p6241
sVnullreferenceexception
p6242
Vc#
p6243
sVnlog
p6244
Vc#
p6245
sVakka
p6246
Vscala
p6247
sVasihttprequest
p6248
Viphone
p6249
sVbandwidth
p6250
Vnetworking
p6251
sVagile
p6252
Vscrum
p6253
sVcharacter
p6254
Vstring
p6255
sVtuples
p6256
Vpython
p6257
sVsave
p6258
Vandroid
p6259
sVintuit-partner-platform
p6260
Vquickbooks
p6261
sVtext-extraction
p6262
Vpdf
p6263
sVhttp-live-streaming
p6264
Vios
p6265
sVlinked-list
p6266
g186
sVbackground
p6267
Vcss
p6268
sVdestroy
p6269
Vruby-on-rails
p6270
sVclickable
p6271
Vandroid
p6272
sVhttpsession
p6273
Vjava
p6274
sVdaemon
p6275
Vlinux
p6276
sVdrawrect
p6277
Vios
p6278
sVform-validation
p6279
Vjquery
p6280
sVstress-testing
p6281
Vload-testing
p6282
sVcentos
p6283
Vlinux
p6284
sVautowired
p6285
Vspring
p6286
sVpom.xml
p6287
Vmaven
p6288
sVconnection-string
p6289
Vc#
p6290
sVautofill
p6291
Vjavascript
p6292
sVtabbar
p6293
Viphone
p6294
sVhttpresponse
p6295
Vandroid
p6296
sVormlite-servicestack
p6297
Vservicestack
p6298
sVshapes
p6299
Vc#
p6300
sVbigdecimal
p6301
Vjava
p6302
sVswfupload
p6303
Vjavascript
p6304
sVmidlet
p6305
Vjava-me
p6306
sVlocalhost
p6307
Vphp
p6308
sVservicestack
p6309
Vc#
p6310
sVburn
p6311
Vwix
p6312
sVsift
p6313
Vopencv
p6314
sVsifr
p6315
Vjavascript
p6316
sVsuper
p6317
Vjava
p6318
sVcodedom
p6319
Vc#
p6320
sVpostgresql
p6321
Vsql
p6322
sVvb6-migration
p6323
Vvb6
p6324
sVazure
p6325
Vc#
p6326
sVviewpagerindicator
p6327
Vandroid
p6328
sVsprites
p6329
Vcss
p6330
sVsugarcrm
p6331
Vphp
p6332
sVparsing
p6333
Vjava
p6334
sVdoctrine
p6335
Vphp
p6336
sVjena
p6337
Vjava
p6338
sVeditor
p6339
Vjavascript
p6340
sVhttpclient
p6341
Vjava
p6342
sVfork
p6343
g222
sVimageicon
p6344
Vjava
p6345
sVdelayed-job
p6346
Vruby-on-rails
p6347
sVpreg-match
p6348
Vphp
p6349
sVcomputational-geometry
p6350
Valgorithm
p6351
sVedge-detection
p6352
Vimage-processing
p6353
sVdisassembling
p6354
Vassembly
p6355
sVstreaming
p6356
Vandroid
p6357
sVbounds
p6358
Vios
p6359
sVcompiler-errors
p6360
Vc++
p6361
sVdelete
p6362
Vc++
p6363
sVcustom-post-type
p6364
Vwordpress
p6365
sVfacebook-insights
p6366
Vfacebook
p6367
sVrecommendation-engine
p6368
Vmahout
p6369
sVsticky
p6370
Vjquery
p6371
sVfloating
p6372
Vcss
p6373
sVexcel
p6374
Vvba
p6375
sVentity-framework-6
p6376
Ventity-framework
p6377
sVentity-framework-5
p6378
Ventity-framework
p6379
sVentity-framework-4
p6380
Ventity-framework
p6381
sVsybase
p6382
Vsql
p6383
sVjinternalframe
p6384
Vjava
p6385
sVorchardcms-1.6
p6386
Vorchardcms
p6387
sVmacports
p6388
Vosx
p6389
sVdidselectrowatindexpath
p6390
Vuitableview
p6391
sVmouselistener
p6392
Vjava
p6393
sVgetjson
p6394
Vjquery
p6395
sVhmac
p6396
Vjava
p6397
sVslf4j
p6398
Vjava
p6399
sVvertex-shader
p6400
Vopengl
p6401
sVseparation-of-concerns
p6402
Vasp.net-mvc
p6403
sVempty-string
p6404
Vphp
p6405
sVmanaged
p6406
Vc#
p6407
sVtwitter-bootstrap
p6408
Vcss
p6409
sVskip
p6410
Vc#
p6411
sVthemes
p6412
Vandroid
p6413
sVmanager
p6414
Vandroid
p6415
sVinformix
p6416
Vsql
p6417
sVskin
p6418
Vflex
p6419
sVprimes
p6420
Valgorithm
p6421
sVmenubar
p6422
Vcss
p6423
sVcountdown
p6424
Vjavascript
p6425
sVfoursquare
p6426
Vapi
p6427
sVwix3.7
p6428
Vwix
p6429
sVsmartphone
p6430
Vandroid
p6431
sVstring
p6432
Vjava
p6433
sVios6.1
p6434
Vios
p6435
sVnsfetchedresultscontrolle
p6436
Vcore-data
p6437
sVx86-64
p6438
Vassembly
p6439
sVserver-sent-events
p6440
Vjavascript
p6441
sVdatetime
p6442
Vc#
p6443
sVio-redirection
p6444
Vbash
p6445
sVfile-handling
p6446
g186
sVfreemarker
p6447
Vjava
p6448
sVfunction-pointers
p6449
Vc++
p6450
sVitem
p6451
Vandroid
p6452
sVdiv
p6453
Vcss
p6454
sVround
p6455
Vphp
p6456
sVdir
p6457
Vphp
p6458
sVfont-awesome
p6459
Vcss
p6460
sVnsfilemanager
p6461
Vobjective-c
p6462
sVjtable
p6463
Vjava
p6464
sVlanguage-features
p6465
Vc#
p6466
sVreporting-services
p6467
Vssrs-2008
p6468
sVssis
p6469
Vsql-server
p6470
sVcomputer-architecture
p6471
Vassembly
p6472
sVerb
p6473
Vruby-on-rails
p6474
sVflexbox
p6475
Vcss
p6476
sVaptana3
p6477
Vaptana
p6478
sVxcode4.6
p6479
Vios
p6480
sVxcode4.5
p6481
Vobjective-c
p6482
sVxcode4.3
p6483
Viphone
p6484
sVxcode4.2
p6485
Viphone
p6486
sVwait
p6487
Vjava
p6488
sVshift
p6489
Varrays
p6490
sVmulticast
p6491
Vudp
p6492
sVminecraft
p6493
Vjava
p6494
sVfpdf
p6495
Vphp
p6496
sVwindows-store
p6497
Vwindows-store-apps
p6498
sVftpwebrequest
p6499
Vc#
p6500
sVjquery-select2
p6501
Vjquery
p6502
sVlicensing
p6503
Vgpl
p6504
sVc-preprocessor
p6505
g222
sVmouseevent
p6506
Vjavascript
p6507
sVrecursive-query
p6508
Vsql
p6509
sVcustom-cell
p6510
Vuitableview
p6511
sVstylesheet
p6512
Vcss
p6513
sVdbpedia
p6514
Vsparql
p6515
sVvisio
p6516
Vc#
p6517
sVencode
p6518
Vphp
p6519
sVcheckout
p6520
Vmagento
p6521
sVandroid-activity
p6522
Vandroid
p6523
sVdirectx-9
p6524
Vc++
p6525
sVsharing
p6526
Vfacebook
p6527
sVblackberry-jde
p6528
Vblackberry
p6529
sVjlabel
p6530
Vjava
p6531
sVbluetooth-lowenergy
p6532
Vbluetooth
p6533
sVnsmanagedobjectcontext
p6534
Vcore-data
p6535
sVurl-parameters
p6536
Vjavascript
p6537
sVtry-catch
p6538
Vjava
p6539
sVflv
p6540
Vflash
p6541
sVdjango-rest-framework
p6542
Vdjango
p6543
sVranking
p6544
Vmysql
p6545
sVagent
p6546
Vjava
p6547
sVsample
p6548
Vandroid
p6549
sVoracleforms
p6550
Voracle
p6551
sVc++11
p6552
Vc++
p6553
sVclient-side-validation
p6554
Vruby-on-rails
p6555
sVcode-efficiency
p6556
Vperformance
p6557
sVsimulink
p6558
Vmatlab
p6559
sVasmx
p6560
Vweb-services
p6561
sVping
p6562
Vnetworking
p6563
sVprovisioning
p6564
Viphone
p6565
sVcode-first-migrations
p6566
Ventity-framework
p6567
sVforeach
p6568
Vphp
p6569
sVtile
p6570
Vjava
p6571
sVmap
p6572
Vc++
p6573
sVdesigner
p6574
Vc#
p6575
sVliferay-6
p6576
Vliferay
p6577
sVmax
p6578
Vsql
p6579
sVmembership
p6580
Vasp.net
p6581
sVandroid-styles
p6582
Vandroid
p6583
sVmessaging
p6584
Vjava
p6585
sVworkflow-foundation
p6586
Vworkflow-foundation-4
p6587
sVentity-framework
p6588
Vc#
p6589
sVaudio-recording
p6590
Vandroid
p6591
sVq
p6592
Vpromise
p6593
sVcascade
p6594
Vhibernate
p6595
sVswitch
p6596
Vjava
p6597
sVlookup-tables
p6598
Vc++
p6599
sVbuddypress
p6600
Vwordpress
p6601
sVgesture
p6602
Vandroid
p6603
sVdojo
p6604
Vjavascript
p6605
sVentity
p6606
Ventity-framework
p6607
sVgoogle-earth
p6608
Vkml
p6609
sVimage-rotation
p6610
Vandroid
p6611
sVmemory-allocation
p6612
Vc++
p6613
sVgroup
p6614
Vmysql
p6615
sVmonitor
p6616
Vc#
p6617
sVtweets
p6618
Vtwitter
p6619
sVflex3
p6620
Vflex
p6621
sVmain
p6622
Vjava
p6623
sVflex4
p6624
Vflex
p6625
sVjquery-chosen
p6626
Vjquery
p6627
sVfinance
p6628
g16
sVviews
p6629
Vdrupal
p6630
sVstdvector
p6631
Vc++
p6632
sVpopover
p6633
Vtwitter-bootstrap
p6634
sVfile-download
p6635
Vphp
p6636
sVsafari
p6637
Vjavascript
p6638
sVnhibernate-criteria
p6639
Vnhibernate
p6640
sVosx-mavericks
p6641
Vosx
p6642
sVpseudo-element
p6643
Vcss
p6644
sVdirectories
p6645
Vfile
p6646
sVntlm
p6647
Vauthentication
p6648
sVgerrit
p6649
Vgit
p6650
sVadmob
p6651
Vandroid
p6652
sVcode-duplication
p6653
Vc#
p6654
sVmysql-workbench
p6655
Vmysql
p6656
sVxls
p6657
Vexcel
p6658
sVbinary-search
p6659
Valgorithm
p6660
sVecmascript-5
p6661
Vjavascript
p6662
sVvim-plugin
p6663
Vvim
p6664
sVgoogle-oauth
p6665
Voauth-2.0
p6666
sVconventions
p6667
Vjava
p6668
sVreportlab
p6669
Vpython
p6670
sVjsfiddle
p6671
Vjavascript
p6672
sVjackson
p6673
Vjson
p6674
sVmultiplayer
p6675
Vandroid
p6676
sVpoco
p6677
Ventity-framework
p6678
sVnsoutlineview
p6679
Vcocoa
p6680
sVcode-first
p6681
Ventity-framework
p6682
sVderived-class
p6683
Vc++
p6684
sVsensor
p6685
Vandroid
p6686
sVgoto
p6687
g4966
sVamazon-web-services
p6688
Vamazon-ec2
p6689
sVhistory.js
p6690
Vjavascript
p6691
sVajax
p6692
Vjquery
p6693
sVorm
p6694
Vjava
p6695
sVdatabase-administration
p6696
Vsql
p6697
sVphpexcel
p6698
Vphp
p6699
sVdirectory-structure
p6700
Vphp
p6701
sVvbscript
p6702
Vasp-classic
p6703
sVtext-alignment
p6704
Vcss
p6705
sVurl-redirection
p6706
V.htaccess
p6707
sVrtsp
p6708
Vandroid
p6709
sVpowerpoint-vba
p6710
Vvba
p6711
sVsounds
p6712
Vaudio
p6713
sVandroid-file
p6714
Vandroid
p6715
sVvsto
p6716
Vc#
p6717
sVservlet-3.0
p6718
Vjava
p6719
sVstruts2-jquery
p6720
Vstruts2
p6721
sVwcf-binding
p6722
Vwcf
p6723
sVbroadcast
p6724
Vandroid
p6725
sVxmppframework
p6726
Vios
p6727
sVprotected
p6728
Vjava
p6729
sVzsh
p6730
Vshell
p6731
sVcore-text
p6732
Vios
p6733
sV2d-games
p6734
Vjava
p6735
sVios5.1
p6736
Vios
p6737
sVmatlab-guide
p6738
Vmatlab
p6739
sVimage-manipulation
p6740
Vimage-processing
p6741
sVmechanize
p6742
Vpython
p6743
sVcassandra
p6744
Vnosql
p6745
sVfilereader
p6746
Vjavascript
p6747
sVbezier
p6748
Vbezier-curve
p6749
sVcordova-3
p6750
Vcordova
p6751
sVdouble-click
p6752
Vjavascript
p6753
sVperformance
p6754
Vjava
p6755
sVmodulus
p6756
Vmath
p6757
sVchannel
p6758
Vgo
p6759
sVwindowbuilder
p6760
Vjava
p6761
sVtrace
p6762
Vc#
p6763
sVartificial-intelligence
p6764
Vmachine-learning
p6765
sVazure-web-sites
p6766
Vazure
p6767
sVc99
p6768
g4966
sVcorrelation
p6769
g5929
sVlibsvm
p6770
Vsvm
p6771
sVpair
p6772
Vc++
p6773
sVgeodjango
p6774
Vdjango
p6775
sVkendo-ui
p6776
Vkendo-grid
p6777
sVflat-file
p6778
Vssis
p6779
sVdurandal
p6780
Vknockout.js
p6781
sVwebbrowser-control
p6782
Vc#
p6783
sVjquery-hover
p6784
Vjquery
p6785
sVrating
p6786
Vphp
p6787
sVjquery-masonry
p6788
Vjquery
p6789
sVshow
p6790
Vhide
p6791
sVandroid-menu
p6792
Vandroid
p6793
sVtridion-2011
p6794
Vtridion
p6795
sVc#-2.0
p6796
NsVmac-address
p6797
Vnetworking
p6798
sVnunit
p6799
Vc#
p6800
sVmanaged-bean
p6801
Vjsf
p6802
sVget
p6803
Vphp
p6804
sVstring-concatenation
p6805
Vstring
p6806
sVbatch-processing
p6807
Vbatch-file
p6808
sVgeo
p6809
Vgeolocation
p6810
sVgem
p6811
Vruby
p6812
sVpdf-generation
p6813
Vpdf
p6814
sVmedian
p6815
Valgorithm
p6816
sVxpages-ssjs
p6817
Vxpages
p6818
sVyield
p6819
Vpython
p6820
sVsummary
p6821
g16
sVwiki
p6822
Vmediawiki
p6823
sVkernel
p6824
Vlinux
p6825
sVfullcalendar
p6826
Vjquery
p6827
sVrelative
p6828
Vcss
p6829
sVseam
p6830
Vjava
p6831
sVcalendar
p6832
Vjava
p6833
sVandroid-animation
p6834
Vandroid
p6835
sVlabel
p6836
Vc#
p6837
sVxtext
p6838
Veclipse
p6839
sVios-provisioning
p6840
Vios
p6841
sVfusioncharts
p6842
Vjavascript
p6843
sVscreen
p6844
Vandroid
p6845
sVplupload
p6846
Vjquery
p6847
sVgoogle-cloud-storage
p6848
Vgoogle-app-engine
p6849
sVparent
p6850
Vjquery
p6851
sVparentheses
p6852
Vregex
p6853
sVmagento-1.4
p6854
Vmagento
p6855
sVmagento-1.5
p6856
Vmagento
p6857
sVmagento-1.6
p6858
Vmagento
p6859
sVmagento-1.7
p6860
Vmagento
p6861
sVaspect-ratio
p6862
Vandroid
p6863
sVphpmyadmin
p6864
Vmysql
p6865
sVgooglebot
p6866
Vseo
p6867
sVfirewall
p6868
Vnetworking
p6869
sVfine-uploader
p6870
Vjavascript
p6871
sVandroid-scrollview
p6872
Vandroid
p6873
sVgit-pull
p6874
Vgit
p6875
sVeventmachine
p6876
Vruby
p6877
sVopentk
p6878
Vc#
p6879
sVcancel
p6880
Vandroid
p6881
sVaccess-denied
p6882
Vc#
p6883
sVencryption
p6884
Vjava
p6885
sVadfs
p6886
Vadfs2.0
p6887
sV.net-2.0
p6888
Vc#
p6889
sVproduction
p6890
Vruby-on-rails
p6891
sVpsexec
p6892
Vbatch-file
p6893
sVuser-accounts
p6894
Vc#
p6895
sVvisual-web-developer
p6896
Vasp.net
p6897
sVtraversal
p6898
Vjquery
p6899
sVbmp
p6900
Vimage
p6901
sVembedded-resource
p6902
Vc#
p6903
sVdeclaration
p6904
Vc++
p6905
sVbayesian
p6906
Vmachine-learning
p6907
sVencapsulation
p6908
Voop
p6909
sVgoogle-chrome-app
p6910
Vgoogle-chrome
p6911
sVapi-design
p6912
Vapi
p6913
sVfluent-nhibernate
p6914
Vnhibernate
p6915
sVprofiler
p6916
Vprofiling
p6917
sVmargin
p6918
Vcss
p6919
sVcq5
p6920
Vaem
p6921
sVvisual-studio-express
p6922
Vc#
p6923
sVwordnet
p6924
Vnlp
p6925
sVidisposable
p6926
Vc#
p6927
sVsaml
p6928
Vsingle-sign-on
p6929
sVgroup-by
p6930
Vsql
p6931
sVauthentication
p6932
Vphp
p6933
sVcode-analysis
p6934
Vc#
p6935
sVspeech
p6936
Vspeech-recognition
p6937
sVarguments
p6938
Vfunction
p6939
sVillegalstateexception
p6940
Vandroid
p6941
sVocunit
p6942
Vunit-testing
p6943
sVthird-party
p6944
Vc#
p6945
sVhtml-encode
p6946
Vc#
p6947
sVemacs24
p6948
Vemacs
p6949
sVcakephp-2.0
p6950
Vcakephp
p6951
sVcakephp-2.1
p6952
Vcakephp
p6953
sVcakephp-2.3
p6954
Vcakephp
p6955
sVsql-server-express
p6956
Vsql-server
p6957
sVwatin
p6958
Vc#
p6959
sVmarkup
p6960
Vhtml
p6961
sVwatir
p6962
Vruby
p6963
sVbottle
p6964
Vpython
p6965
sVtabwidget
p6966
Vandroid
p6967
sVjava-web-start
p6968
Vjava
p6969
sVselenium-webdriver
p6970
Vselenium
p6971
sVjquery-ui-datepicker
p6972
Vjquery
p6973
sVmoney
p6974
Vc#
p6975
sVjdom
p6976
Vjava
p6977
sVsitecore
p6978
Vsitecore6
p6979
sVmarker
p6980
Vandroid
p6981
sVdisplaytag
p6982
Vjsp
p6983
sVautocad
p6984
Vc#
p6985
sVsfinae
p6986
Vc++
p6987
sVgoogle-docs-api
p6988
Vgoogle-docs
p6989
sVmoq
p6990
Vc#
p6991
sVone-to-many
p6992
Vhibernate
p6993
sVone-to-one
p6994
Vhibernate
p6995
sVgrid
p6996
Vwpf
p6997
sVdatabase-schema
p6998
Vdatabase-design
p6999
sVcredentials
p7000
Vc#
p7001
sVweb2py
p7002
Vpython
p7003
sVavaudioplayer
p7004
Vios
p7005
sVifstream
p7006
Vc++
p7007
sVanonymous-class
p7008
Vjava
p7009
sVunique-ptr
p7010
Vc++
p7011
sVnose
p7012
Vpython
p7013
sVnsimage
p7014
Vcocoa
p7015
sVfatal-error
p7016
Vphp
p7017
sVerase
p7018
Vc++
p7019
sVmatching
p7020
Valgorithm
p7021
sVconfirm
p7022
Vjavascript
p7023
sVkml
p7024
Vgoogle-maps
p7025
sVinject
p7026
Vruby
p7027
sVandroid-imageview
p7028
Vandroid
p7029
sVspell-checking
p7030
Vc#
p7031
sVcql
p7032
Vcassandra
p7033
sVxna
p7034
Vc#
p7035
sVandroid-2.3
p7036
Vandroid
p7037
sVandroid-2.2
p7038
Vandroid
p7039
sVdetailsview
p7040
Vasp.net
p7041
sVproduction-environment
p7042
Vruby-on-rails
p7043
sVstrip
p7044
Vpython
p7045
sVfloating-accuracy
p7046
Vfloating-point
p7047
sVdatabase-partitioning
p7048
Vmysql
p7049
sVmingw32
p7050
Vc++
p7051
sVstyling
p7052
Vcss
p7053
sVdecode
p7054
Vphp
p7055
sVlaravel-3
p7056
Vlaravel
p7057
sVlaravel-4
p7058
Vlaravel
p7059
sVipv6
p7060
Vipv4
p7061
sVcluster-computing
p7062
Vjava
p7063
sVnsdocument
p7064
Vcocoa
p7065
sVshoutcast
p7066
Vandroid
p7067
sVcom-interop
p7068
Vc#
p7069
sVandroid-logcat
p7070
Vandroid
p7071
sVconditional-operator
p7072
Vc#
p7073
sVself-join
p7074
Vsql
p7075
sVgorm
p7076
Vgrails
p7077
sVsvg
p7078
Vjavascript
p7079
sVsystem.data.sqlite
p7080
Vsqlite
p7081
sVembed
p7082
Vhtml
p7083
sVdeadlock
p7084
Vmultithreading
p7085
sVmoles
p7086
Vunit-testing
p7087
sVnstextfield
p7088
Vcocoa
p7089
sVfile
p7090
Vjava
p7091
sVfacebook-javascript-sdk
p7092
Vfacebook
p7093
sVremote-server
p7094
Vphp
p7095
sVdrivers
p7096
Vwindows
p7097
sVdepth
p7098
Vopengl
p7099
sVfield
p7100
Vforms
p7101
sVprism
p7102
Vwpf
p7103
sVutf-8
p7104
Vphp
p7105
sVopacity
p7106
Vcss
p7107
sVdrawimage
p7108
Vcanvas
p7109
sVwindows-authentication
p7110
Vasp.net
p7111
sVvertex
p7112
Vopengl
p7113
sVansi
p7114
g4966
sVdjango-cms
p7115
Vdjango
p7116
sVunit-of-work
p7117
Vrepository-pattern
p7118
sVdropbox
p7119
Vdropbox-api
p7120
sVstr-replace
p7121
Vphp
p7122
sVconcat
p7123
Vmysql
p7124
sVassets
p7125
Vandroid
p7126
sVnetlogo
p7127
Vsimulation
p7128
sVextjs-mvc
p7129
Vextjs
p7130
sVresolution
p7131
Vandroid
p7132
sVaccess-violation
p7133
Vc++
p7134
sVtibco
p7135
Vjava
p7136
sVduplicates
p7137
Vmysql
p7138
sVdrag-and-drop
p7139
Vjquery
p7140
sVapplication-pool
p7141
Viis
p7142
sVfixtures
p7143
Vruby-on-rails
p7144
sVchildren
p7145
Vjquery
p7146
sVsystem.reflection
p7147
Vc#
p7148
sVplesk
p7149
Vphp
p7150
sVwsh
p7151
Vvbscript
p7152
sVjrubyonrails
p7153
Vjruby
p7154
sVnsbundle
p7155
Vios
p7156
sVwss
p7157
Vsharepoint
p7158
sVstderr
p7159
Vstdout
p7160
sVgoogle-maps-api-2
p7161
Vandroid
p7162
sVgoogle-maps-api-3
p7163
Vgoogle-maps
p7164
sVstripe-payments
p7165
Vruby-on-rails
p7166
sVbeagleboard
p7167
Vlinux
p7168
sVzero
p7169
Vphp
p7170
sVurbanairship.com
p7171
Vandroid
p7172
sVperspective
p7173
V3d
p7174
sVplugins
p7175
Vjquery
p7176
sVpyodbc
p7177
Vpython
p7178
sVribbon
p7179
Vwpf
p7180
sVcentering
p7181
Vcss
p7182
sVbrackets
p7183
Vphp
p7184
sVuistoryboardsegue
p7185
Vios
p7186
sVpublic
p7187
Vprivate
p7188
sVmovement
p7189
Vjava
p7190
sVvala
p7191
Vgtk
p7192
sVmule
p7193
Vmule-studio
p7194
sVfirebase
p7195
Vangularjs
p7196
sVmkannotation
p7197
Vios
p7198
sVsearch
p7199
Vphp
p7200
sVjax-ws
p7201
Vjava
p7202
sVhtml-agility-pack
p7203
Vc#
p7204
sVeclipse-plugin
p7205
Veclipse
p7206
sVoledbconnection
p7207
Vc#
p7208
sVjailbreak
p7209
Vios
p7210
sVjruby
p7211
Vruby
p7212
sVfactory-pattern
p7213
Vdesign-patterns
p7214
sVcalculated-columns
p7215
Vsql
p7216
sVpretty-print
p7217
Vpython
p7218
sVremember-me
p7219
Vspring-security
p7220
sVlinear-algebra
p7221
Vmatrix
p7222
sVrollover
p7223
Vcss
p7224
sVinterface-builder
p7225
Viphone
p7226
sVdistinct
p7227
Vsql
p7228
sVmicrosoft-dynamics
p7229
Vdynamics-crm-2011
p7230
sVface-detection
p7231
Vopencv
p7232
sVlogcat
p7233
Vandroid
p7234
sVandroid-service
p7235
Vandroid
p7236
sVmozilla
p7237
Vjavascript
p7238
sVactionlistener
p7239
Vjava
p7240
sVjsonp
p7241
Vjquery
p7242
sVandroid-broadcast
p7243
Vandroid
p7244
sVpsql
p7245
Vpostgresql
p7246
sVjdo
p7247
Vgoogle-app-engine
p7248
sVsalesforce
p7249
Vapex-code
p7250
sVjdk
p7251
Vandroid
p7252
sVdes
p7253
Vencryption
p7254
sVparagraph
p7255
Vhtml
p7256
sVactiverecord
p7257
Vruby-on-rails
p7258
sVjdt
p7259
Veclipse
p7260
sVtail-recursion
p7261
Vrecursion
p7262
sVcompare
p7263
Vjava
p7264
sVsynchronized
p7265
Vjava
p7266
sVshare
p7267
Vfacebook
p7268
sVcollision
p7269
Vjava
p7270
sVminimum
p7271
Vmax
p7272
sVnumbers
p7273
Vjava
p7274
sVjackrabbit
p7275
Vjcr
p7276
sVcsh
p7277
Vshell
p7278
sVwindows-media-player
p7279
Vc#
p7280
sVmapi
p7281
Voutlook
p7282
sVmaps
p7283
Vandroid
p7284
sVweb-controls
p7285
Vasp.net
p7286
sVmutable
p7287
Vimmutability
p7288
sVcsv
p7289
Vpython
p7290
sVcss
p7291
Vhtml
p7292
sVconnectivity
p7293
Vandroid
p7294
sVmariadb
p7295
Vmysql
p7296
sVresponse
p7297
Vajax
p7298
sVpattern-matching
p7299
Vregex
p7300
sVonresume
p7301
Vandroid
p7302
sVentry
p7303
Vpython
p7304
sVscrollto
p7305
Vjquery
p7306
sVk-means
p7307
Vcluster-analysis
p7308
sViis-express
p7309
Vasp.net
p7310
sVflickr-api
p7311
Vflickr
p7312
sVnltk
p7313
Vpython
p7314
sVautoload
p7315
Vphp
p7316
sVproducer-consumer
p7317
Vmultithreading
p7318
sVdrupal-theming
p7319
Vdrupal
p7320
sVforms-authentication
p7321
Vasp.net
p7322
sVmongodb-query
p7323
Vmongodb
p7324
sVasp.net-routing
p7325
Vasp.net
p7326
sVcombobox
p7327
Vc#
p7328
sVuitapgesturerecognizer
p7329
Vios
p7330
sVcontinuations
p7331
Vscala
p7332
sVpcm
p7333
Vaudio
p7334
sVviewstate
p7335
Vasp.net
p7336
sVplayframework
p7337
Vjava
p7338
sVtimestamp
p7339
Vphp
p7340
sVframelayout
p7341
Vandroid
p7342
sVcgcontext
p7343
Vios
p7344
sV2d
p7345
Vjava
p7346
sVtoken
p7347
Vphp
p7348
sVgoogle-search-api
p7349
Vgoogle-search
p7350
sVwindow.open
p7351
Vjavascript
p7352
sVjmeter
p7353
Vjava
p7354
sVlaunchd
p7355
Vosx
p7356
sVstored-procedures
p7357
Vsql
p7358
sVfunctor
p7359
Vc++
p7360
sVcore-plot
p7361
Vios
p7362
sVconnect
p7363
Vnode.js
p7364
sVnewrelic
p7365
Vruby-on-rails
p7366
sVsencha
p7367
Vjavascript
p7368
sVtwitter4j
p7369
Vtwitter
p7370
sVsqlcommand
p7371
Vc#
p7372
sVdotnetnuke
p7373
Vasp.net
p7374
sVandroid-pendingintent
p7375
Vandroid
p7376
sVforeground
p7377
Vandroid
p7378
sVcore-animation
p7379
Vios
p7380
sVsbt
p7381
Vscala
p7382
sVhashset
p7383
Vjava
p7384
sVnscalendar
p7385
Vnsdate
p7386
sVmms
p7387
Vandroid
p7388
sVlinq-to-objects
p7389
Vlinq
p7390
sVgdal
p7391
Vpython
p7392
sVdiv-layouts
p7393
Vcss
p7394
sVyoutube-javascript-api
p7395
Vyoutube-api
p7396
sVwebforms
p7397
Vasp.net
p7398
sVwindows-runtime
p7399
Vc#
p7400
sVjogl
p7401
Vjava
p7402
sVdylib
p7403
Vosx
p7404
sVinternal-server-error
p7405
Vphp
p7406
sVrazor
p7407
Vasp.net-mvc
p7408
sVwss-3.0
p7409
Vsharepoint
p7410
sVmamp
p7411
Vphp
p7412
sVjetty
p7413
Vjava
p7414
sVpaint
p7415
Vjava
p7416
sVstatement
p7417
Vif-statement
p7418
sVjquery-validation-engine
p7419
Vjquery
p7420
sVnsjsonserialization
p7421
Vios
p7422
sVjsonarray
p7423
Vjson
p7424
sVcross-browser
p7425
Vcss
p7426
sVselector
p7427
Vjquery
p7428
sVbubble-sort
p7429
Vsorting
p7430
sVrecording
p7431
Vaudio
p7432
sVuiapplicationdelegate
p7433
Vios
p7434
sVinteractive
p7435
Vpython
p7436
sVdebugging
p7437
Vc++
p7438
sVfavicon
p7439
Vhtml
p7440
sVsmart-pointers
p7441
Vc++
p7442
sVmonodroid
p7443
Vandroid
p7444
sVvisual-c++-2010
p7445
Vc++
p7446
sVencryption-symmetric
p7447
Vencryption
p7448
sVteechart
p7449
Vdelphi
p7450
sVjquery-datatables
p7451
Vjquery
p7452
sVopenshift
p7453
Vjava
p7454
sVfolders
p7455
Vfile
p7456
sVvnc
p7457
Vvnc-server
p7458
sVlinq-to-xml
p7459
Vc#
p7460
sVcygwin
p7461
Vwindows
p7462
sVmyisam
p7463
Vmysql
p7464
sVsharding
p7465
Vmongodb
p7466
sVqthread
p7467
Vqt
p7468
sVkey-value
p7469
Varrays
p7470
sVandroid-canvas
p7471
Vandroid
p7472
sVhttphandler
p7473
Vasp.net
p7474
sVgoogle-tv
p7475
Vandroid
p7476
sVnode.js
p7477
Vjavascript
p7478
sVblueimp
p7479
Vjquery
p7480
sVrelation
p7481
Vdatabase
p7482
sVnetworkx
p7483
Vpython
p7484
sVfind
p7485
Vbash
p7486
sVbacktracking
p7487
Vrecursion
p7488
sVeventtrigger
p7489
Vwpf
p7490
sVbase-class
p7491
Vc++
p7492
sVdistributed
p7493
Vjava
p7494
sVoverride
p7495
Vjava
p7496
sVasp.net-ajax
p7497
Vasp.net
p7498
sVemail-client
p7499
Vemail
p7500
sVtouchscreen
p7501
Vandroid
p7502
sVnotation
p7503
Vjava
p7504
sVsubsonic3
p7505
Vsubsonic
p7506
sVexpress
p7507
Vnode.js
p7508
sVopensuse
p7509
Vlinux
p7510
sVandroid-loadermanager
p7511
Vandroid
p7512
sVrestart
p7513
Vandroid
p7514
sVcontinuous-integration
p7515
Vjenkins
p7516
sVandroid-tabs
p7517
Vandroid
p7518
sVmultilanguage
p7519
Vphp
p7520
sVgit-push
p7521
Vgit
p7522
sVuser-interface
p7523
Vjava
p7524
sVmove-semantics
p7525
Vc++
p7526
sVeclipse-juno
p7527
Veclipse
p7528
sVgithooks
p7529
Vgit
p7530
sVuibutton
p7531
Vios
p7532
sVms-access
p7533
Vsql
p7534
sVpopup
p7535
Vjavascript
p7536
sVzedgraph
p7537
Vc#
p7538
sVcustom-attributes
p7539
Vc#
p7540
sVmoodle
p7541
Vphp
p7542
sVdesign-time
p7543
Vc#
p7544
sVipython
p7545
Vpython
p7546
sVosx-snow-leopard
p7547
Vosx
p7548
sVreverse
p7549
Vstring
p7550
sVif-statement
p7551
Vphp
p7552
sVwebrick
p7553
Vruby-on-rails
p7554
sVsilverlight-2.0
p7555
Vsilverlight
p7556
sVpoint
p7557
Vjava
p7558
sVshutdown
p7559
Vjava
p7560
sVfuelphp
p7561
Vphp
p7562
sVbackend
p7563
Vfrontend
p7564
sVtestflight
p7565
Vios
p7566
sVsingly-linked-list
p7567
Vlinked-list
p7568
sVexternalinterface
p7569
Vjavascript
p7570
sVasp.net-mvc-routing
p7571
Vasp.net-mvc
p7572
sVdata-binding
p7573
Vwpf
p7574
sVncurses
p7575
g4966
sVstandard-library
p7576
Vc++
p7577
sVgac
p7578
V.net
p7579
sVcomparator
p7580
Vjava
p7581
sVcss-transform
p7582
Vcss3
p7583
sVdeferred
p7584
Vjquery
p7585
sVblackberry-cascades
p7586
Vblackberry-10
p7587
sVclearcase
p7588
Vclearcase-ucm
p7589
sVaccountmanager
p7590
Vandroid
p7591
sVvisual-sourcesafe
p7592
Vversion-control
p7593
sVfacelets
p7594
Vjsf
p7595
sVpython-imaging-library
p7596
Vpython
p7597
sVuitableview
p7598
Vios
p7599
sVjquery-accordion
p7600
Vjquery
p7601
sVhtml-entities
p7602
Vphp
p7603
sVupdatepanel
p7604
Vasp.net
p7605
sVpagemethods
p7606
Vasp.net
p7607
sVwebgl
p7608
Vthree.js
p7609
sVphonegap-plugins
p7610
Vcordova
p7611
sVgoogle-visualization
p7612
Vjavascript
p7613
sVgeoserver
p7614
Vopenlayers
p7615
sVews
p7616
Vexchange-server
p7617
sVext.net
p7618
Vasp.net
p7619
sVpasswords
p7620
Vphp
p7621
sVdereference
p7622
Vpointers
p7623
sVflurry
p7624
Vandroid
p7625
sVaggregate
p7626
g16
sVdart
p7627
Vdart-polymer
p7628
sVandroid-softkeyboard
p7629
Vandroid
p7630
sVtask
p7631
Vc#
p7632
sVmemoization
p7633
Vpython
p7634
sVworkflow-activity
p7635
Vworkflow-foundation-4
p7636
sVflags
p7637
Vc#
p7638
sVorganization
p7639
Vphp
p7640
sVdistutils
p7641
Vpython
p7642
sVantlr
p7643
Vantlr3
p7644
sVshape
p7645
Vandroid
p7646
sVatomic
p7647
Vc++
p7648
sVphpbb
p7649
Vphp
p7650
sVopenstack
p7651
Vopenstack-nova
p7652
sValignment
p7653
Vcss
p7654
sVcut
p7655
Vbash
p7656
sVkeyevent
p7657
Vjava
p7658
sVreturn-type
p7659
Vc++
p7660
sVrestructuredtext
p7661
Vpython-sphinx
p7662
sVkinect
p7663
Vc#
p7664
sVsource
p7665
Vandroid
p7666
sVrgb
p7667
Vcolors
p7668
sVexecutorservice
p7669
Vjava
p7670
sVxcodebuild
p7671
Vxcode
p7672
sVvarchar
p7673
Vmysql
p7674
sVjcomponent
p7675
Vjava
p7676
sVspring-data-neo4j
p7677
Vneo4j
p7678
sVuiviewanimation
p7679
Vios
p7680
sVbit
p7681
g4966
sVreusability
p7682
Vandroid
p7683
sVsql-server-2012
p7684
Vsql-server
p7685
sVsurfaceview
p7686
Vandroid
p7687
sVautorotate
p7688
Vios
p7689
sVmapkit
p7690
Vios
p7691
sVbamboo
p7692
Vcontinuous-integration
p7693
sVbranching-and-merging
p7694
Vgit
p7695
sVclass-diagram
p7696
Vuml
p7697
sVdllimport
p7698
Vc#
p7699
sVback
p7700
Vandroid
p7701
sVdelegation
p7702
Vobjective-c
p7703
sVsimple-form
p7704
Vruby-on-rails
p7705
sVapc
p7706
Vphp
p7707
sVimageview
p7708
Vandroid
p7709
sVsizeof
p7710
g186
sVuipagecontrol
p7711
Vios
p7712
sVnsurlconnection
p7713
Vios
p7714
sVscale
p7715
Vandroid
p7716
sVscala
p7717
Vjava
p7718
sVsaas
p7719
Vmulti-tenant
p7720
sVintegration
p7721
Vjava
p7722
sVrobotium
p7723
Vandroid
p7724
sVellipsis
p7725
Vcss
p7726
sVnotepad++
p7727
Vregex
p7728
sVexport-to-excel
p7729
Vexcel
p7730
sVgit-submodules
p7731
Vgit
p7732
sVcastle-windsor
p7733
Vc#
p7734
sVfacebook-fanpage
p7735
Vfacebook
p7736
sVwsdl
p7737
Vweb-services
p7738
sVreadability
p7739
Vc#
p7740
sVusb
p7741
Vandroid
p7742
sVdelphi-2010
p7743
Vdelphi
p7744
sVtiff
p7745
Vc#
p7746
sVframes
p7747
Vhtml
p7748
sVbindingsource
p7749
Vc#
p7750
sVfindcontrol
p7751
Vasp.net
p7752
sVhudson-plugins
p7753
Vhudson
p7754
sVopenerp
p7755
Vpython
p7756
sVdynamics-ax-2009
p7757
Vaxapta
p7758
sVforward
p7759
Vredirect
p7760
sVtranslate
p7761
Vandroid
p7762
sVc#-5.0
p7763
NsVnavigation-drawer
p7764
Vandroid
p7765
sVswingworker
p7766
Vjava
p7767
sVsdl
p7768
Vc++
p7769
sVsdk
p7770
Viphone
p7771
sVgroovy
p7772
Vgrails
p7773
sVgstreamer
p7774
Vpython
p7775
sVjavascript-objects
p7776
Vjavascript
p7777
sVlabview
p7778
Vc#
p7779
sVrubymotion
p7780
Vios
p7781
sVquickfix
p7782
Vfix
p7783
sVbusiness-intelligence
p7784
Vssas
p7785
sVoauth-2.0
p7786
Voauth
p7787
sVcurl
p7788
Vphp
p7789
sVuser-experience
p7790
Vuser-interface
p7791
sVcmake
p7792
Vc++
p7793
sVigraph
p7794
g5929
sVslick2d
p7795
Vjava
p7796
sVllvm
p7797
Vclang
p7798
sVillegalargumentexception
p7799
Vjava
p7800
sVmod-proxy
p7801
Vapache
p7802
sVdrupal-views
p7803
Vdrupal
p7804
sVsudoku
p7805
Vjava
p7806
sVntfs
p7807
Vwindows
p7808
sVsystem-calls
p7809
g222
sVcreatefile
p7810
Vwinapi
p7811
sVsftp
p7812
Vftp
p7813
sVnaming-conventions
p7814
Vc#
p7815
sVxstream
p7816
Vjava
p7817
sVhittest
p7818
Vactionscript-3
p7819
sVxampp
p7820
Vphp
p7821
sVnsxmlparser
p7822
Viphone
p7823
sVjava-2d
p7824
Vjava
p7825
sVasp.net-identity
p7826
Vasp.net-mvc-5
p7827
sVkeep-alive
p7828
Vhttp
p7829
sVdatabase-migration
p7830
Vmysql
p7831
sVtree-traversal
p7832
Vtree
p7833
sVcss3pie
p7834
Vcss3
p7835
sVistream
p7836
Vc++
p7837
sVrandom
p7838
Vjava
p7839
sVvlc
p7840
Vlibvlc
p7841
sVloadlibrary
p7842
Vdll
p7843
sVversioning
p7844
V.net
p7845
sVelisp
p7846
Vemacs
p7847
sVcrop
p7848
Vimage
p7849
sVcron
p7850
Vphp
p7851
sVsmlnj
p7852
Vsml
p7853
sVinsertion
p7854
Vsorting
p7855
sVappend
p7856
Vjquery
p7857
sVappendchild
p7858
Vjavascript
p7859
sVd2
p7860
Vd
p7861
sVpipes
p7862
g4966
sVjboss
p7863
Vjava
p7864
sVuser-controls
p7865
Vc#
p7866
sVclipboard
p7867
Vc#
p7868
sVmathjax
p7869
Vjavascript
p7870
sVcordova
p7871
Vandroid
p7872
sVmagento-admin
p7873
Vphp
p7874
sVbinary-search-tree
p7875
Vc++
p7876
sVtext-files
p7877
Vc#
p7878
sVxml-deserialization
p7879
Vc#
p7880
sVspacing
p7881
Vcss
p7882
sVimplicit
p7883
Vscala
p7884
sVc++-cli
p7885
Vc++
p7886
sVdoctrine2
p7887
Vsymfony2
p7888
sVcomposite-key
p7889
Vhibernate
p7890
sVuicollectionview
p7891
Vios
p7892
sVxdocument
p7893
Vc#
p7894
sVnsoperation
p7895
Vios
p7896
sVtalend
p7897
Vjava
p7898
sVphone-number
p7899
Vandroid
p7900
sVprivate
p7901
Vc++
p7902
sVnth-child
p7903
Vcss
p7904
sVnames
p7905
g16
sVgateway
p7906
Vsms
p7907
sVchm
p7908
Vc#
p7909
sVpowershell-remoting
p7910
Vpowershell
p7911
sViis
p7912
Vasp.net
p7913
sVcakephp-1.3
p7914
Vcakephp
p7915
sVcakephp-1.2
p7916
Vcakephp
p7917
sVsetup.py
p7918
Vpython
p7919
sVsubscription
p7920
Vin-app-purchase
p7921
sVaccount
p7922
Vandroid
p7923
sVopenjdk
p7924
Vjava
p7925
sVfetch
p7926
Vphp
p7927
sVunobtrusive-validation
p7928
Vasp.net-mvc-3
p7929
sVsqlite
p7930
Vandroid
p7931
sVparser-generator
p7932
Vparsing
p7933
sVnative
p7934
Vandroid
p7935
sVgcc
p7936
g4966
sVfilepath
p7937
Vjava
p7938
sVboxing
p7939
Vc#
p7940
sVgcm
p7941
Vandroid
p7942
sVprestashop
p7943
Vphp
p7944
sVlamp
p7945
Vphp
p7946
sVattachment
p7947
Vemail
p7948
sVuinavigationcontroller
p7949
Vios
p7950
sVprofile
p7951
Vasp.net
p7952
sVjquery-ui-sortable
p7953
Vjquery
p7954
sVgoogle-drive-sdk
p7955
Vgoogle-drive
p7956
sVmultiplication
p7957
Vmatrix
p7958
sVbind
p7959
Vjquery
p7960
sVbing
p7961
Vbing-api
p7962
sVgrails
p7963
Vgroovy
p7964
sVgitolite
p7965
Vgit
p7966
sVmustache
p7967
Vjavascript
p7968
sVjira
p7969
Vjira-plugin
p7970
sVdoctrine-1.2
p7971
Vdoctrine
p7972
sVsymbols
p7973
Vc++
p7974
sVhbase
p7975
Vhadoop
p7976
sVgalaxy
p7977
Vandroid
p7978
sVld
p7979
Vgcc
p7980
sVtext-parsing
p7981
Vparsing
p7982
sVls
p7983
Vbash
p7984
sVandroid-fragmentactivity
p7985
Vandroid
p7986
sVyeoman
p7987
Vgruntjs
p7988
sVcode-signing
p7989
Vxcode
p7990
sVdomdocument
p7991
Vphp
p7992
sVdao
p7993
Vjava
p7994
sVautorelease
p7995
Vobjective-c
p7996
sVactionbarsherlock
p7997
Vandroid
p7998
sVjsch
p7999
Vjava
p8000
sVjsf-1.2
p8001
Vjsf
p8002
sVdoubly-linked-list
p8003
Vc++
p8004
sVscrollbar
p8005
Vcss
p8006
sVpolymorphic-associations
p8007
Vruby-on-rails
p8008
sVidentifier
p8009
Vc++
p8010
sVjquery-file-upload
p8011
Vjquery
p8012
sValphablending
p8013
Vopengl
p8014
sVjodatime
p8015
Vjava
p8016
sVimage-gallery
p8017
Vjquery
p8018
sVmsdn
p8019
Vc#
p8020
sVflex-mobile
p8021
Vflex
p8022
sVopenni
p8023
Vkinect
p8024
sVxml-validation
p8025
Vxml
p8026
sVssas
p8027
Vmdx
p8028
sVstub
p8029
Vrspec
p8030
sVspring-mvc
p8031
Vspring
p8032
sVref
p8033
Vc#
p8034
sVmath
p8035
Valgorithm
p8036
sVsafari-extension
p8037
Vsafari
p8038
sVworkflow
p8039
Vsharepoint
p8040
sV.net-assembly
p8041
Vc#
p8042
sVtrigger.io
p8043
Vios
p8044
sVwcf-web-api
p8045
Vwcf
p8046
sVfirefox-addon
p8047
Vfirefox
p8048
sVlaravel
p8049
Vphp
p8050
sVinteraction
p8051
g5929
sVindent
p8052
Vvim
p8053
sVmidi
p8054
Vjava
p8055
sVnavbar
p8056
Vcss
p8057
sVsms-gateway
p8058
Vsms
p8059
sVcname
p8060
Vdns
p8061
sVelasticsearch
p8062
Vtire
p8063
sVzend-form
p8064
Vzend-framework
p8065
sVretain
p8066
Vobjective-c
p8067
sVmidp
p8068
Vjava-me
p8069
sVjcheckbox
p8070
Vjava
p8071
sVsencha-touch-2
p8072
Vsencha-touch
p8073
sVkeyboard-shortcuts
p8074
Veclipse
p8075
sVsmartcard
p8076
Vjava
p8077
sVandroid-view
p8078
Vandroid
p8079
sVhtml5boilerplate
p8080
Vhtml5
p8081
sVpuppet
p8082
Vvagrant
p8083
sVsockets
p8084
Vjava
p8085
sVright-click
p8086
Vcontextmenu
p8087
sVepplus
p8088
Vc#
p8089
sVscanf
p8090
g186
sVibaction
p8091
Vios
p8092
sVcarrierwave
p8093
Vruby-on-rails
p8094
sVmybatis
p8095
Vjava
p8096
sVwebdeploy
p8097
Vmsdeploy
p8098
sVipv4
p8099
Vipv6
p8100
sVflume
p8101
Vhadoop
p8102
sVudp
p8103
Vsockets
p8104
sVmemorystream
p8105
Vc#
p8106
sVdynamic-programming
p8107
Valgorithm
p8108
sVperforce
p8109
Vversion-control
p8110
sVcomposite-component
p8111
Vjsf-2
p8112
sVjndi
p8113
Vjava
p8114
sVstrongly-typed-dataset
p8115
Vc#
p8116
sVlinkbutton
p8117
Vasp.net
p8118
sVwhile-loop
p8119
Vphp
p8120
sVtextfield
p8121
Vactionscript-3
p8122
sVandroid-gridview
p8123
Vandroid
p8124
sVipad
p8125
Viphone
p8126
sVnetwork-programming
p8127
Vsockets
p8128
sVpointers
p8129
Vc++
p8130
sVphp-mail
p8131
Vmysql
p8132
sVcompass-css
p8133
Vsass
p8134
sVfailover
p8135
Vcluster-computing
p8136
sVplaintext
p8137
Vphp
p8138
sVexcel-vba
p8139
Vexcel
p8140
sVparamiko
p8141
Vpython
p8142
sVtemplate-engine
p8143
Vphp
p8144
sVmin
p8145
Vmax
p8146
sVuisplitviewcontroller
p8147
Vipad
p8148
sVgravity
p8149
Vandroid
p8150
sVworksheet-function
p8151
Vexcel
p8152
sVjaas
p8153
Vjava
p8154
sVmod-python
p8155
Vpython
p8156
sVwpfdatagrid
p8157
Vwpf
p8158
sVspecflow
p8159
Vbdd
p8160
sVoozie
p8161
Vhadoop
p8162
sVpayment
p8163
Vpaypal
p8164
sVload-testing
p8165
Vjmeter
p8166
sVrequest
p8167
Vhttp
p8168
sVreachability
p8169
Vios
p8170
sVworkspace
p8171
Veclipse
p8172
sVdllexport
p8173
Vc++
p8174
sVselection
p8175
Vjavascript
p8176
sVbrute-force
p8177
Valgorithm
p8178
sVpolynomial-math
p8179
Vmath
p8180
sVtext
p8181
Vjava
p8182
sVsetter
p8183
Vgetter
p8184
sVserial-port
p8185
Vc#
p8186
sVxmlwriter
p8187
Vxml
p8188
sVcontrols
p8189
Vc#
p8190
sVhttp-redirect
p8191
Vredirect
p8192
sVksh
p8193
Vshell
p8194
sVuitabbar
p8195
Vios
p8196
sVjquery-ui-droppable
p8197
Vjquery
p8198
sVcsrf
p8199
Vsecurity
p8200
sVtiming
p8201
Vjavascript
p8202
sVnetsuite
p8203
Vphp
p8204
sVlotus-domino
p8205
Vlotus-notes
p8206
sVfixed
p8207
Vcss
p8208
sVdreamhost
p8209
Vruby-on-rails
p8210
sVexists
p8211
Vsql
p8212
sVdatalist
p8213
Vasp.net
p8214
sVsubreport
p8215
Vjasper-reports
p8216
sVracket
p8217
Vscheme
p8218
sVinterceptor
p8219
Vjava
p8220
sVuialertview
p8221
Vios
p8222
sVxcode3.2
p8223
Vxcode
p8224
sVsoapui
p8225
Vsoap
p8226
sVprogress
p8227
Vandroid
p8228
sVad-hoc-distribution
p8229
Vios
p8230
sVjquery-ui-accordion
p8231
Vjquery
p8232
sVcmd.exe
p8233
Vbatch-file
p8234
sVtranspose
p8235
Vmatrix
p8236
sVtkinter
p8237
Vpython
p8238
sVwpftoolkit
p8239
Vwpf
p8240
sVioexception
p8241
Vjava
p8242
sVattributes
p8243
Vc#
p8244
sVssrs-reports
p8245
Vssrs-2008
p8246
sVgnu-screen
p8247
Vlinux
p8248
sVphonegap-build
p8249
Vcordova
p8250
sVwebsphere-mq
p8251
Vjava
p8252
sVcompile-time
p8253
Vc++
p8254
sVscientific-computing
p8255
Vpython
p8256
sVrdbms
p8257
Vdatabase
p8258
sVjson
p8259
Vjavascript
p8260
sVhttpconnection
p8261
Vjava
p8262
sVuidatepicker
p8263
Vios
p8264
sVpaperclip
p8265
Vruby-on-rails
p8266
sVevent-bubbling
p8267
Vjquery
p8268
sVpicturebox
p8269
Vc#
p8270
sVassert
p8271
Vc++
p8272
sVnagios
p8273
Vmonitoring
p8274
sVcypher
p8275
Vneo4j
p8276
sVfault
p8277
Vwcf
p8278
sVboost-serialization
p8279
Vc++
p8280
sVintellisense
p8281
Vvisual-studio-2010
p8282
sVdatacontext
p8283
Vc#
p8284
sVcherrypy
p8285
Vpython
p8286
sVsquid
p8287
Vproxy
p8288
sVlinkedin
p8289
Vapi
p8290
sVarabic
p8291
Vandroid
p8292
sVregression
p8293
g5929
sVcjk
p8294
Vunicode
p8295
sVproductivity
p8296
Vvisual-studio
p8297
sVjsf-2.2
p8298
Vjsf
p8299
sVadministration
p8300
Vwindows
p8301
sVfill
p8302
Vandroid
p8303
sVgoogle-adwords
p8304
Vphp
p8305
sVmousewheel
p8306
Vjquery
p8307
sVmyfaces
p8308
Vjsf
p8309
sVreporting
p8310
Vreporting-services
p8311
sVcode-organization
p8312
Vc++
p8313
sVdealloc
p8314
Vobjective-c
p8315
sVjboss-arquillian
p8316
Vjava
p8317
sVsetcookie
p8318
Vcookies
p8319
sVcodemirror
p8320
Vjavascript
p8321
sVcenter
p8322
Vcss
p8323
sVbuilder
p8324
Vflash
p8325
sVposition
p8326
Vcss
p8327
sVparallel-processing
p8328
Vmultithreading
p8329
sVwsimport
p8330
Vjava
p8331
sVsubtraction
p8332
Vpython
p8333
sVmultiple-tables
p8334
Vmysql
p8335
sVproximity
p8336
Vandroid
p8337
sVunordered-map
p8338
Vc++
p8339
sVabap
p8340
Vsap
p8341
sVtoggleclass
p8342
Vjquery
p8343
sVxml-serialization
p8344
Vc#
p8345
sVwmi-query
p8346
Vwmi
p8347
sVsimple-html-dom
p8348
Vphp
p8349
sVadt
p8350
Vandroid
p8351
sVads
p8352
Vandroid
p8353
sVpython-module
p8354
Vpython
p8355
sVadf
p8356
Voracle-adf
p8357
sVadd
p8358
Vjquery
p8359
sVadb
p8360
Vandroid
p8361
sVada
p8362
Vgnat
p8363
sVado
p8364
Vdelphi
p8365
sVgmp
p8366
Vc++
p8367
sVvisual-studio-lightswitch
p8368
Vc#
p8369
sVmatch
p8370
Vregex
p8371
sVc#-3.0
p8372
NsVandroid-location
p8373
Vandroid
p8374
sVmessage-queue
p8375
Vjava
p8376
sVtouch-event
p8377
Vandroid
p8378
sVdeployment
p8379
Vjava
p8380
sVinsert
p8381
Vmysql
p8382
sVlike
p8383
Vfacebook
p8384
sVpayment-processing
p8385
Vpayment-gateway
p8386
sVmobile-phones
p8387
Vmobile
p8388
sVboost-spirit
p8389
Vc++
p8390
sVandroid-mapview
p8391
Vandroid
p8392
sVcrawler
p8393
Vweb-crawler
p8394
sVpropel
p8395
Vphp
p8396
sVmschart
p8397
Vc#
p8398
sVpolyline
p8399
Vgoogle-maps
p8400
sVrubymine
p8401
Vruby
p8402
sVboost-thread
p8403
Vc++
p8404
sVpaypal-adaptive-payments
p8405
Vpaypal
p8406
sVcllocation
p8407
Vios
p8408
sVhighlighting
p8409
Vjavascript
p8410
sVstatic-variables
p8411
Vc++
p8412
sVesb
p8413
Vwso2
p8414
sVfacebook-login
p8415
Vfacebook
p8416
sVtimertask
p8417
Vandroid
p8418
sVmode
p8419
Vandroid
p8420
sVat-command
p8421
Vgsm
p8422
sVnoise
p8423
Vmatlab
p8424
sVbar-chart
p8425
g158
sVhost
p8426
Vandroid
p8427
sVpanel
p8428
Vc#
p8429
sVdatareader
p8430
Vc#
p8431
sVglade
p8432
Vgtk
p8433
sVguice
p8434
Vjava
p8435
sVpowerpoint
p8436
Vvba
p8437
sVfacebook-oauth
p8438
Vfacebook
p8439
sVsocks
p8440
Vproxy
p8441
sVdataset
p8442
Vc#
p8443
sVguard
p8444
Vruby-on-rails
p8445
sVrenderer
p8446
Vjava
p8447
sVrcp
p8448
Veclipse
p8449
sVandroid-spinner
p8450
Vandroid
p8451
sVglib
p8452
g4966
sVrepeater
p8453
Vasp.net
p8454
sVsequel
p8455
Vruby
p8456
sVpy.test
p8457
Vpython
p8458
sVantlr3
p8459
Vantlr
p8460
sVantlr4
p8461
Vantlr
p8462
sVoauth
p8463
Vphp
p8464
sVediting
p8465
Viphone
p8466
sVscrollable
p8467
Vjquery
p8468
sVweb-scraping
p8469
Vpython
p8470
sVvariadic-templates
p8471
Vc++
p8472
sVlync
p8473
Vlync-2010
p8474
sVflip
p8475
Vjquery
p8476
sVstring-parsing
p8477
Vstring
p8478
sVblackberry-10
p8479
Vblackberry-cascades
p8480
sVdatepicker
p8481
Vjquery
p8482
sVandroid-tabhost
p8483
Vandroid
p8484
sVinternals
p8485
Vwindows
p8486
sVpid
p8487
Vlinux
p8488
sVpig
p8489
Vhadoop
p8490
sVmime-types
p8491
Vphp
p8492
sVpip
p8493
Vpython
p8494
sVupnp
p8495
Vdlna
p8496
sVresharper
p8497
Vc#
p8498
sVretina-display
p8499
Vios
p8500
sVsubsonic
p8501
Vsubsonic3
p8502
sVout
p8503
Vc#
p8504
sVbundle
p8505
Vandroid
p8506
sVinputstream
p8507
Vjava
p8508
sVreadline
p8509
Vpython
p8510
sVbing-maps
p8511
Vc#
p8512
sVextjs
p8513
Vjavascript
p8514
sVstatusbar
p8515
Vandroid
p8516
sVsharepoint-designer
p8517
Vsharepoint
p8518
sVpythonpath
p8519
Vpython
p8520
sVfloating-point-precision
p8521
Vfloating-point
p8522
sVweb-browser
p8523
Vc#
p8524
sVnsdate
p8525
Vobjective-c
p8526
sVsleep
p8527
Vmultithreading
p8528
sVnsdata
p8529
Vios
p8530
sVios4.3
p8531
Viphone
p8532
sVtween
p8533
Vactionscript-3
p8534
sVquicktime
p8535
Vosx
p8536
sVtostring
p8537
Vjava
p8538
sVprepared-statement
p8539
Vphp
p8540
sVopen-source
p8541
Vjava
p8542
sVdjango-tastypie
p8543
Vdjango
p8544
sVnstableview
p8545
Vcocoa
p8546
sVruntime.exec
p8547
Vjava
p8548
sVnetbeans
p8549
Vjava
p8550
sVguidelines
p8551
Vc#
p8552
sVmultiple-databases
p8553
Vmysql
p8554
sVcustom-view
p8555
Vandroid
p8556
sVkivy
p8557
Vpython
p8558
sVexpressions
p8559
Vc#
p8560
sVboost-python
p8561
Vc++
p8562
sVhide
p8563
Vjquery
p8564
sVselected
p8565
Vjquery
p8566
sVtablelayout
p8567
Vandroid
p8568
sVblur
p8569
Vjquery
p8570
sVgyroscope
p8571
Vaccelerometer
p8572
sVcode-contracts
p8573
Vc#
p8574
sVnslog
p8575
Vobjective-c
p8576
sVeventlistener
p8577
Vjavascript
p8578
sVandroid-networking
p8579
Vandroid
p8580
sVpath
p8581
Vjava
p8582
sVforward-declaration
p8583
Vc++
p8584
sVdigits
p8585
Vnumbers
p8586
sVmvc-mini-profiler
p8587
Vasp.net-mvc
p8588
sVforum
p8589
Vphp
p8590
sVoracle9i
p8591
Voracle
p8592
sVgoogle-plus
p8593
Vandroid
p8594
sVvisible
p8595
Vjquery
p8596
sVproject-management
p8597
Vagile
p8598
sVmysqldump
p8599
Vmysql
p8600
sVprintf
p8601
g222
sVlive-wallpaper
p8602
Vandroid
p8603
sVscaffolding
p8604
Vruby-on-rails
p8605
sVswingx
p8606
Vjava
p8607
sVtail
p8608
Vbash
p8609
sVback-button
p8610
Vandroid
p8611
sVpreview
p8612
Vandroid
p8613
sVannotations
p8614
Vjava
p8615
sVvps
p8616
Vphp
p8617
sVphone
p8618
Vwindows
p8619
sVreal-time
p8620
Vjava
p8621
sVvpn
p8622
Vandroid
p8623
sVjoin
p8624
Vmysql
p8625
sVwowza
p8626
Vvideo-streaming
p8627
sVml
p8628
Vsml
p8629
sVhas-many-through
p8630
Vruby-on-rails
p8631
sVrails-engines
p8632
Vruby-on-rails
p8633
sVcompiler-optimization
p8634
Vc++
p8635
sVnine-patch
p8636
Vandroid
p8637
sVmq
p8638
Vwebsphere-mq
p8639
sVinstall
p8640
Vpython
p8641
sVeager-loading
p8642
Vruby-on-rails
p8643
sVroute
p8644
Vphp
p8645
sVcaptcha
p8646
Vphp
p8647
sVavplayer
p8648
Vios
p8649
sVfile-conversion
p8650
Vpdf
p8651
sVscheduling
p8652
Vjava
p8653
sVxdebug
p8654
Vphp
p8655
sVlinker-error
p8656
Vc++
p8657
sVvertical-alignment
p8658
Vcss
p8659
sVvagrant
p8660
Vchef
p8661
sV.net-3.5
p8662
Vc#
p8663
sVnusoap
p8664
Vphp
p8665
sVgdata-api
p8666
Vgdata
p8667
sVx509
p8668
Vopenssl
p8669
sVyesod
p8670
Vhaskell
p8671
sVyii-extensions
p8672
Vyii
p8673
sVibm-midrange
p8674
Vdb2
p8675
sVmesh
p8676
V3d
p8677
sVyql
p8678
Vjavascript
p8679
sVbootstrap
p8680
Vzend-framework
p8681
sVe-commerce
p8682
Vphp
p8683
sVenter
p8684
Vjavascript
p8685
sVfrontend
p8686
Vjavascript
p8687
sVjpeg
p8688
Vimage
p8689
sVsyntax-error
p8690
Vphp
p8691
sVdijkstra
p8692
Valgorithm
p8693
sVweblogic11g
p8694
Vweblogic
p8695
sVrestful-architecture
p8696
Vrest
p8697
sVsendkeys
p8698
Vc#
p8699
sVtextbox
p8700
Vc#
p8701
sVappstore-approval
p8702
Vios
p8703
sVime
p8704
Vandroid
p8705
sVcli
p8706
Vphp
p8707
sVemail-attachments
p8708
Vemail
p8709
sVfwrite
p8710
Vphp
p8711
sVfade
p8712
Vjquery
p8713
sVchromecast
p8714
Vgoogle-cast
p8715
sVclr
p8716
V.net
p8717
sVjava-util-scanner
p8718
Vjava
p8719
sVindexeddb
p8720
Vjavascript
p8721
sVfonts
p8722
Vcss
p8723
sVodbc
p8724
Vsql
p8725
sVexplode
p8726
Vphp
p8727
sVhql
p8728
Vhibernate
p8729
sVeach
p8730
Vjquery
p8731
sVorchardcms
p8732
Vasp.net-mvc
p8733
sVgprs
p8734
Vandroid
p8735
sVsigning
p8736
Vandroid
p8737
sVinterop
p8738
Vc#
p8739
sVsemantic-web
p8740
Vrdf
p8741
sVhandlebars.js
p8742
Vjavascript
p8743
sVrule-engine
p8744
Vdrools
p8745
sVghci
p8746
Vhaskell
p8747
sVtype-erasure
p8748
Vjava
p8749
sVfree
p8750
g4966
sVnsobject
p8751
Vobjective-c
p8752
sVrestful-url
p8753
Vrest
p8754
sVacrobat
p8755
Vpdf
p8756
sVscala-2.10
p8757
Vscala
p8758
sVopenssh
p8759
Vssh
p8760
sVopenssl
p8761
Vssl
p8762
sVfilter
p8763
Vjquery
p8764
sVextjs4.2
p8765
Vextjs
p8766
sVextjs4.1
p8767
Vextjs
p8768
sVazure-mobile-services
p8769
Vazure
p8770
sVglsl
p8771
Vopengl
p8772
sVwpf-4.0
p8773
Vwpf
p8774
sVrank
p8775
Vmysql
p8776
sVwoocommerce
p8777
Vwordpress
p8778
sVjava-7
p8779
Vjava
p8780
sVjava-6
p8781
Vjava
p8782
sVjava-8
p8783
Vjava
p8784
sVpriority
p8785
Vjava
p8786
sVattach
p8787
Vandroid
p8788
sVcstring
p8789
Vc++
p8790
sVbitcoin
p8791
Vphp
p8792
sVpercentage
p8793
Vcss
p8794
sVknockout-validation
p8795
Vknockout.js
p8796
sVoracle-sqldeveloper
p8797
Voracle
p8798
sVmulti-touch
p8799
Vandroid
p8800
sVapi-key
p8801
Vandroid
p8802
sVhttp-headers
p8803
Vphp
p8804
sVroles
p8805
Vasp.net
p8806
sVandroid-3.0
p8807
Vandroid
p8808
sVzend-framework
p8809
Vphp
p8810
sVkernel-module
p8811
Vlinux-kernel
p8812
sVpage-refresh
p8813
Vjavascript
p8814
sVrad
p8815
Vjava
p8816
sVram
p8817
Vmemory
p8818
sVandroid-support-library
p8819
Vandroid
p8820
sVplpgsql
p8821
Vpostgresql
p8822
sVnsnumberformatter
p8823
Vobjective-c
p8824
sVhigh-availability
p8825
Vjava
p8826
sVmany-to-many
p8827
Vdjango
p8828
sVsbcl
p8829
Vcommon-lisp
p8830
sVxfbml
p8831
Vfacebook
p8832
sVqooxdoo
p8833
Vjavascript
p8834
sVglob
p8835
Vphp
p8836
sVsharekit
p8837
Vios
p8838
sVbsd
p8839
Vlinux
p8840
sVmouseleave
p8841
Vjquery
p8842
sVpaintcomponent
p8843
Vjava
p8844
sVclassloader
p8845
Vjava
p8846
sVflow
p8847
Vmule
p8848
sVjquery-ui-slider
p8849
Vjquery
p8850
sVflot
p8851
Vjquery
p8852
sVenterprise
p8853
Vios
p8854
sVscreensaver
p8855
Vc#
p8856
sVpattern-recognition
p8857
Vimage-processing
p8858
sVlabels
p8859
g5929
sVmediawiki
p8860
Vphp
p8861
sVcolors
p8862
Vandroid
p8863
sVradio
p8864
Vjquery
p8865
sVqstring
p8866
Vqt
p8867
sVprettyphoto
p8868
Vjquery
p8869
sVpki
p8870
Vjava
p8871
sVoci
p8872
Voracle
p8873
sVjava-ee-6
p8874
Vjava
p8875
sVhttp-status-code-302
p8876
Vredirect
p8877
sVocr
p8878
Vtesseract
p8879
sVelmah
p8880
Vasp.net
p8881
sVdelphi-2009
p8882
Vdelphi
p8883
sVwatch
p8884
Vdebugging
p8885
sVfluid
p8886
Vcss
p8887
sVc3p0
p8888
Vhibernate
p8889
sVpop3
p8890
Vemail
p8891
sVamazon
p8892
Vamazon-web-services
p8893
sVfadein
p8894
Vjquery
p8895
sVreport
p8896
Vcrystal-reports
p8897
sVcouchbase
p8898
Vcouchdb
p8899
sVbulkinsert
p8900
Vsql-server
p8901
sVcruisecontrol
p8902
Vcruisecontrol.net
p8903
sVclickonce
p8904
Vc#
p8905
sVisolation-level
p8906
Vtransactions
p8907
sVwpf-controls
p8908
Vwpf
p8909
sVpseudo-class
p8910
Vcss
p8911
sVjquery-plugins
p8912
Vjquery
p8913
sVdetection
p8914
Vopencv
p8915
sVhash
p8916
Vruby
p8917
sVunmarshalling
p8918
Vjaxb
p8919
sVbaseadapter
p8920
Vandroid
p8921
sVactionlink
p8922
Vasp.net-mvc
p8923
sVurllib
p8924
Vpython
p8925
sVcompilation
p8926
Vc++
p8927
sVonload
p8928
Vjavascript
p8929
sVaccess-modifiers
p8930
Vc#
p8931
sVonkeydown
p8932
Vandroid
p8933
sVhtml5
p8934
Vjavascript
p8935
sVssrs-2008
p8936
Vreporting-services
p8937
sVgdi+
p8938
Vc#
p8939
sVtemplate-meta-programming
p8940
Vc++
p8941
sVcredit-card
p8942
Vpayment-gateway
p8943
sVfacet
p8944
Vsolr
p8945
sVhttp-get
p8946
Vandroid
p8947
sVwtforms
p8948
Vpython
p8949
sVeaseljs
p8950
Vjavascript
p8951
sVmaster-pages
p8952
Vasp.net
p8953
sVchar-array
p8954
g186
sVflexslider
p8955
Vjquery
p8956
sVimage-uploading
p8957
Vphp
p8958
sVcrystal-reports-xi
p8959
Vcrystal-reports
p8960
sVcontainers
p8961
Vc++
p8962
sVsprite
p8963
Vcss
p8964
sVdirectshow
p8965
Vc++
p8966
sVcore-data-migration
p8967
Vcore-data
p8968
sVlook-and-feel
p8969
Vjava
p8970
sVqueryover
p8971
Vnhibernate
p8972
sVdashboard
p8973
Vjavascript
p8974
sVexchangewebservices
p8975
Vews
p8976
sVprocedure
p8977
Vmysql
p8978
sVhas-many
p8979
Vruby-on-rails
p8980
sVpyramid
p8981
Vpython
p8982
sVslideup
p8983
Vjquery
p8984
sVquartz-scheduler
p8985
Vjava
p8986
sVhttprequest
p8987
Vjava
p8988
sVcgimage
p8989
Vios
p8990
sVrecursion
p8991
Vjava
p8992
sVfxml
p8993
Vjavafx-2
p8994
sVcss-float
p8995
Vcss
p8996
sVenvironment-variables
p8997
Vjava
p8998
sVmoose
p8999
Vperl
p9000
sVinstrumentation
p9001
Vjava
p9002
sVnumerical
p9003
Vc++
p9004
sVmicrophone
p9005
Vaudio
p9006
sVsymfony-1.4
p9007
Vsymfony1
p9008
sVportal
p9009
Vliferay
p9010
sVnormalization
p9011
Vdatabase
p9012
sVcycle
p9013
Vjquery
p9014
sVjframe
p9015
Vjava
p9016
sVfbconnect
p9017
Vfacebook
p9018
sVuploading
p9019
Vphp
p9020
sVcloudfoundry
p9021
Vvmc
p9022
sVtestng
p9023
Vjava
p9024
sVbugzilla
p9025
Vperl
p9026
sVremoting
p9027
V.net
p9028
sVglsurfaceview
p9029
Vandroid
p9030
sVmemory-address
p9031
g4966
sVelf
p9032
Vlinux
p9033
sVdataprovider
p9034
Vflex
p9035
sVcasting
p9036
Vc#
p9037
sVamazon-rds
p9038
Vamazon-web-services
p9039
sVrecaptcha
p9040
Vphp
p9041
sVconsole-application
p9042
Vc#
p9043
sV960.gs
p9044
Vcss
p9045
sVdelphi-xe
p9046
Vdelphi
p9047
sVseekbar
p9048
Vandroid
p9049
sVzoom
p9050
Vandroid
p9051
sVgoogle-search
p9052
Vseo
p9053
sVbpm
p9054
Vjbpm
p9055
sVtexture-mapping
p9056
Vopengl
p9057
sVjunit4
p9058
Vjava
p9059
sVauto-increment
p9060
Vmysql
p9061
sVcomposite-primary-key
p9062
Vmysql
p9063
sVdataframes
p9064
Vpandas
p9065
sVrhino
p9066
Vjavascript
p9067
sVwampserver
p9068
Vphp
p9069
sVlistitem
p9070
Vandroid
p9071
sVarmv7
p9072
Vios
p9073
sVandroid-4.2
p9074
Vandroid
p9075
sVandroid-4.0
p9076
Vandroid
p9077
sVicu
p9078
Vc++
p9079
sVandroid-4.4
p9080
Vandroid
p9081
sVcore
p9082
Vjava
p9083
sVquaternion
p9084
Vrotation
p9085
sVcors
p9086
Vjavascript
p9087
sVdelphi-xe4
p9088
Vdelphi
p9089
sVdelphi-xe5
p9090
Vdelphi
p9091
sVspring-annotations
p9092
Vspring
p9093
sVlightbox
p9094
Vjquery
p9095
sVontouchlistener
p9096
Vandroid
p9097
sVmod-perl
p9098
Vperl
p9099
sVdelphi-xe3
p9100
Vdelphi
p9101
sVruntime
p9102
Vjava
p9103
sVprimitive
p9104
Vjava
p9105
sVjavac
p9106
Vjava
p9107
sVpuzzle
p9108
Valgorithm
p9109
sVmodalviewcontroller
p9110
Vios
p9111
sV32-bit
p9112
V64bit
p9113
sVgis
p9114
g5929
sVtransform
p9115
Vcss3
p9116
sVgif
p9117
Vimage
p9118
sVtfs2008
p9119
Vtfs
p9120
sVhead
p9121
Vhtml
p9122
sVwireless
p9123
Vnetworking
p9124
sVsubclassing
p9125
Vobjective-c
p9126
sVapache-poi
p9127
Vjava
p9128
sVheap
p9129
Vjava
p9130
sVselenium2
p9131
Vselenium
p9132
sVandroid-linearlayout
p9133
Vandroid
p9134
sVfosuserbundle
p9135
Vsymfony2
p9136
sVattr
p9137
Vjquery
p9138
sVjtextpane
p9139
Vjava
p9140
sVdevexpress
p9141
Vc#
p9142
sVbids
p9143
Vssis
p9144
sVfilepicker.io
p9145
Vink-file-picker
p9146
sVpaging
p9147
Vasp.net
p9148
sVautoconf
p9149
Vautomake
p9150
sVtrigonometry
p9151
Vmath
p9152
sVtrim
p9153
Vstring
p9154
sVobfuscation
p9155
Vjava
p9156
sVoutlook-2007
p9157
Voutlook
p9158
sVtrie
p9159
Vdata-structures
p9160
sVdecrypt
p9161
Vjava
p9162
sVwinsock2
p9163
Vc++
p9164
sVhaml
p9165
Vruby-on-rails
p9166
sVcheck
p9167
Vphp
p9168
sV7zip
p9169
Vc#
p9170
sVwebos
p9171
Vjavascript
p9172
sVreadonly
p9173
Vc#
p9174
sVpymongo
p9175
Vmongodb
p9176
sVtoad
p9177
Voracle
p9178
sVjaxb
p9179
Vjava
p9180
sVwebserver
p9181
Vphp
p9182
sVbackbone-routing
p9183
Vbackbone.js
p9184
sVsql
p9185
Vmysql
p9186
sVbitbucket
p9187
Vgit
p9188
sVhibernate-search
p9189
Vhibernate
p9190
sViterator
p9191
Vc++
p9192
sVrails-migrations
p9193
Vruby-on-rails
p9194
sVfocus
p9195
Vjquery
p9196
sVext-gwt
p9197
Vgwt
p9198
sVgraphing
p9199
Vpython
p9200
sVdate-formatting
p9201
Vjava
p9202
sVguava
p9203
Vjava
p9204
sVimage-resizing
p9205
Vphp
p9206
sVinline-block
p9207
Vcss
p9208
sVenvironment
p9209
Vvariables
p9210
sVstrategy-pattern
p9211
Vdesign-patterns
p9212
sVexcel-formula
p9213
Vexcel
p9214
sVnesting
p9215
Vcss
p9216
sVubuntu-11.10
p9217
Vubuntu
p9218
sVgoogle-earth-plugin
p9219
Vgoogle-earth
p9220
sVposts
p9221
Vwordpress
p9222
sVstandards
p9223
Vc++
p9224
sVnhibernate-mapping
p9225
Vnhibernate
p9226
sVpmd
p9227
Vjava
p9228
sVaptana
p9229
Veclipse
p9230
sVuiscrollview
p9231
Vios
p9232
sVpinvoke
p9233
Vc#
p9234
sVport
p9235
Vsockets
p9236
sVcorba
p9237
Vjava
p9238
sV64bit
p9239
Vc++
p9240
sVbeautifulsoup
p9241
Vpython
p9242
sVajax4jsf
p9243
Vjsf
p9244
sVwindows-server-2012
p9245
Viis-8
p9246
sVwcf-client
p9247
Vwcf
p9248
sVduplicate-data
p9249
Vmysql
p9250
sVbrowser-detection
p9251
Vjavascript
p9252
sVtoolbar
p9253
Vwpf
p9254
sVinotify
p9255
Vlinux
p9256
sVheredoc
p9257
Vphp
p9258
sVdelimiter
p9259
Vjava
p9260
sVquickblox
p9261
Vios
p9262
sVuilocalnotification
p9263
Vios
p9264
sVstatic-methods
p9265
Vjava
p9266
sVnavigation
p9267
Vcss
p9268
sVconvolution
p9269
Vmatlab
p9270
sVpriority-queue
p9271
Vjava
p9272
sVhandler
p9273
Vandroid
p9274
sVjquery-autocomplete
p9275
Vjquery
p9276
sViphone
p9277
Vios
p9278
sVmsi
p9279
Vwix
p9280
sVcriteria
p9281
Vhibernate
p9282
sVexpressionengine
p9283
Vphp
p9284
sVudpclient
p9285
Vc#
p9286
sVnettcpbinding
p9287
Vwcf
p9288
sVsoap-client
p9289
Vphp
p9290
sVfacebook-iframe
p9291
Vfacebook
p9292
sVdhtml
p9293
Vjavascript
p9294
sVembedded-database
p9295
Vdatabase
p9296
sVwinforms
p9297
Vc#
p9298
sVnsmutablearray
p9299
Vobjective-c
p9300
sVpickle
p9301
Vpython
p9302
sVusability
p9303
Vuser-interface
p9304
sVbouncycastle
p9305
Vjava
p9306
sVfigure
p9307
Vmatlab
p9308
sVnexus
p9309
Vmaven
p9310
sVbackslash
p9311
Vphp
p9312
sVgoogle-chrome-extension
p9313
Vjavascript
p9314
sVcounting
p9315
Vpython
p9316
sVrequirements
p9317
Vrequirements-management
p9318
sVinheritance
p9319
Vc++
p9320
sVweblogic-10.x
p9321
Vjava
p9322
sVeloquent
p9323
Vlaravel
p9324
sVtic-tac-toe
p9325
Vjava
p9326
sVxulrunner
p9327
Vxul
p9328
sVapple-push-notifications
p9329
Vios
p9330
sVclone
p9331
Vjquery
p9332
sVzend-route
p9333
Vzend-framework
p9334
sVghostscript
p9335
Vpdf
p9336
sVdynamic-arrays
p9337
Vc++
p9338
sVliquid
p9339
Vjekyll
p9340
sVstructuremap
p9341
Vc#
p9342
sVtypeahead.js
p9343
Vjavascript
p9344
sVrecordset
p9345
Vvba
p9346
sVblackberry-webworks
p9347
Vblackberry
p9348
sVsession-state
p9349
Vasp.net
p9350
sVdefault-value
p9351
Vc#
p9352
sVvtk
p9353
Vc++
p9354
sVgtk
p9355
Vpython
p9356
sVcoordinates
p9357
Vandroid
p9358
sVplatform
p9359
Vandroid
p9360
sVdesign-patterns
p9361
Vc#
p9362
sVuitabbarcontroller
p9363
Viphone
p9364
sVpermissions
p9365
Vphp
p9366
sVexecute
p9367
Vphp
p9368
sVequality
p9369
Vc#
p9370
sVtridion
p9371
Vtridion-2011
p9372
sVopera
p9373
Vjavascript
p9374
sVrandom-forest
p9375
g158
sVejabberd
p9376
Vxmpp
p9377
sVmysql2
p9378
Vruby-on-rails
p9379
sVpython-requests
p9380
Vpython
p9381
sVpublic-key-encryption
p9382
Vencryption
p9383
sVjquery-isotope
p9384
Vjquery
p9385
sVdigital-signature
p9386
Vjava
p9387
sVwinjs
p9388
Vwindows-8
p9389
sVfactory
p9390
Vjava
p9391
sVejb
p9392
Vjava
p9393
sVparallax
p9394
Vjquery
p9395
sVbarcode-scanner
p9396
Vandroid
p9397
sVuikeyboard
p9398
Vios
p9399
sVejs
p9400
Vnode.js
p9401
sVhttp-referer
p9402
Vphp
p9403
sVtheory
p9404
Valgorithm
p9405
sVvariant
p9406
Vc++
p9407
sVgit
p9408
Vgithub
p9409
sVmarionette
p9410
Vbackbone.js
p9411
sVmysqli
p9412
Vphp
p9413
sVdispatcher
p9414
Vwpf
p9415
sVraster
p9416
g16
sVdatabase-normalization
p9417
Vdatabase
p9418
sVsession-variables
p9419
Vphp
p9420
sVyuv
p9421
Vrgb
p9422
sVyui
p9423
Vjavascript
p9424
sVlockscreen
p9425
Vandroid
p9426
sVyum
p9427
Vlinux
p9428
sVswing
p9429
Vjava
p9430
sVtelerik-mvc
p9431
Vtelerik
p9432
sVstylecop
p9433
Vc#
p9434
sVwindows-explorer
p9435
Vwindows
p9436
sVredhat
p9437
Vlinux
p9438
sVironruby
p9439
Vc#
p9440
sVpseudocode
p9441
Valgorithm
p9442
sVclient-side
p9443
Vjavascript
p9444
sVsaml-2.0
p9445
Vsingle-sign-on
p9446
sVios5
p9447
Vios
p9448
sVios4
p9449
Viphone
p9450
sVios7
p9451
Vios
p9452
sVios6
p9453
Vios
p9454
sViad
p9455
Vios
p9456
sVappcelerator
p9457
Vtitanium
p9458
sVmonkeypatching
p9459
Vpython
p9460
sVsilverlight-toolkit
p9461
Vsilverlight
p9462
sVcontactscontract
p9463
Vandroid
p9464
sVpyqt4
p9465
Vpython
p9466
sVquery-builder
p9467
Vsymfony2
p9468
sVpragma
p9469
Vc++
p9470
sVctags
p9471
Vvim
p9472
sVcopy
p9473
Vfile
p9474
sVfindbugs
p9475
Vjava
p9476
sVrequire
p9477
Vphp
p9478
sVr
p9479
Vggplot2
p9480
sVposix
p9481
g186
sVeclipse-plugin-dev
p9482
Veclipse
p9483
sVant
p9484
Vjava
p9485
sVjquery-selectors
p9486
Vjquery
p9487
sVsharepoint-2007
p9488
Vsharepoint
p9489
sVanimation
p9490
Vandroid
p9491
sVreverse-engineering
p9492
Vjava
p9493
sVsurf
p9494
Vopencv
p9495
sVmeta-tags
p9496
Vhtml
p9497
sVinternet-explorer-9
p9498
Vjavascript
p9499
sVinternet-explorer-8
p9500
Vjavascript
p9501
sVtornado
p9502
Vpython
p9503
sVinternet-explorer-7
p9504
Vcss
p9505
sVinternet-explorer-6
p9506
Vcss
p9507
sVc#-4.0
p9508
NsVsoftware-engineering
p9509
Varchitecture
p9510
sVwhere-clause
p9511
Vsql
p9512
sVraytracing
p9513
Vgraphics
p9514
sVdojox
p9515
Vdojo
p9516
sVlogical-operators
p9517
Vphp
p9518
sVkey-bindings
p9519
Vjava
p9520
sVzend-db
p9521
Vzend-framework
p9522
sVuitextfield
p9523
Vios
p9524
sVgoogle-cloud-messaging
p9525
Vandroid
p9526
sVnlp
p9527
Vpython
p9528
sVnspredicate
p9529
Vcore-data
p9530
sVpermission-denied
p9531
Vphp
p9532
sVdatagrid
p9533
Vwpf
p9534
sVmonads
p9535
Vhaskell
p9536
sVspaces
p9537
Vtabs
p9538
sVmarkerclusterer
p9539
Vgoogle-maps-api-3
p9540
sVhack
p9541
Vphp
p9542
sVbreakpoints
p9543
Vdebugging
p9544
sVmacros
p9545
Vexcel
p9546
sVg++
p9547
Vc++
p9548
sV32bit-64bit
p9549
V64bit
p9550
sVactionview
p9551
Vruby-on-rails
p9552
sVreset
p9553
Vjquery
p9554
sVstata
p9555
g158
sVmongoengine
p9556
Vmongodb
p9557
sVssl
p9558
Vhttps
p9559
sVssh
p9560
Vlinux
p9561
sVsse
p9562
Vc++
p9563
sVnetty
p9564
Vjava
p9565
sVsanitization
p9566
Vphp
p9567
sVhttpd.conf
p9568
Vapache
p9569
sVbison
p9570
Vflex-lexer
p9571
sVrelease-management
p9572
Vrelease
p9573
sVclosures
p9574
Vjavascript
p9575
sVconnections
p9576
Vmysql
p9577
sVcom+
p9578
V.net
p9579
sVrmi
p9580
Vjava
p9581
sVdetect
p9582
Vjavascript
p9583
sVbackbone.js
p9584
Vjavascript
p9585
sVwindows-forms-designer
p9586
Vc#
p9587
sVquartz-graphics
p9588
Viphone
p9589
sVgmail-imap
p9590
Vimap
p9591
sV.net-4.5
p9592
Vc#
p9593
sV.net-4.0
p9594
Vc#
p9595
sVbitset
p9596
Vc++
p9597
sVnsnumber
p9598
Vobjective-c
p9599
sVvimrc
p9600
Vvimscript
p9601
sVuipageviewcontroller
p9602
Vios
p9603
sVregion
p9604
Vc#
p9605
sVabstract-syntax-tree
p9606
Vjava
p9607
sVgoogle-docs
p9608
Vgoogle-apps-script
p9609
sVbroadcastreceiver
p9610
Vandroid
p9611
sVrace-condition
p9612
Vmultithreading
p9613
sVfiltering
p9614
Vjquery
p9615
sVcabal
p9616
Vhaskell
p9617
sVsharedpreferences
p9618
Vandroid
p9619
sVrobotics
p9620
Vc++
p9621
sVauthlogic
p9622
Vruby-on-rails
p9623
sVpop
p9624
Vstack
p9625
sVsampling
p9626
g16
sVcolorbox
p9627
Vjquery
p9628
sVassertions
p9629
Vjava
p9630
sVtypeclass
p9631
Vhaskell
p9632
sVjnlp
p9633
Vjava
p9634
sVthinking-sphinx
p9635
Vruby-on-rails
p9636
sVsql-server-2008-express
p9637
Vsql-server
p9638
sVvisual-foxpro
p9639
Vfoxpro
p9640
sVdirection
p9641
Vandroid
p9642
sVcopy-paste
p9643
Vexcel
p9644
sVapache-felix
p9645
Vosgi
p9646
sVmocking
p9647
Vunit-testing
p9648
sVcommon-table-expression
p9649
Vsql
p9650
sVaudio-streaming
p9651
Vandroid
p9652
sVironpython
p9653
Vpython
p9654
sVprotocols
p9655
Vobjective-c
p9656
sVcase
p9657
Vsql
p9658
sVwith-statement
p9659
Vpython
p9660
sVpca
p9661
g158
sVpostscript
p9662
Vghostscript
p9663
sVmount
p9664
Vlinux
p9665
sVadmin
p9666
Vdjango
p9667
sVmysql-connector
p9668
Vmysql
p9669
sVconfigurationmanager
p9670
Vc#
p9671
sVtelephony
p9672
Vandroid
p9673
sVjface
p9674
Vswt
p9675
sVreshape
p9676
g158
sVlocking
p9677
Vmultithreading
p9678
sVcommand-line-arguments
p9679
Vcommand-line
p9680
sVhtml
p9681
Vcss
p9682
sVservice-broker
p9683
Vsql-server
p9684
sVsencha-touch
p9685
Vsencha-touch-2
p9686
sVstatus
p9687
Vfacebook
p9688
sVscreenshot
p9689
Vandroid
p9690
sVdynamics-crm-2011
p9691
Vdynamics-crm
p9692
sVdriver
p9693
Vwindows
p9694
sVsamsung-smart-tv
p9695
Vjavascript
p9696
sVsubmenu
p9697
Vcss
p9698
sVminimize
p9699
Vc#
p9700
sVcomponents
p9701
Vjava
p9702
sVmodel
p9703
Vruby-on-rails
p9704
sVmodem
p9705
Vgsm
p9706
sVcompact-framework
p9707
Vc#
p9708
sVclob
p9709
Voracle
p9710
sVradio-button
p9711
Vjquery
p9712
sVkill
p9713
Vprocess
p9714
sVunicode
p9715
Vpython
p9716
sVmongoose
p9717
Vnode.js
p9718
sVinternationalization
p9719
Vlocalization
p9720
sVsymbolic-math
p9721
Vmatlab
p9722
sValphabetical
p9723
Vsorting
p9724
sVsamba
p9725
Vlinux
p9726
sVsql-server-ce
p9727
Vc#
p9728
sVmetaprogramming
p9729
Vruby
p9730
sVazure-storage-blobs
p9731
Vazure
p9732
sVapache2
p9733
Vapache
p9734
sVdecompression
p9735
Vcompression
p9736
sVblob
p9737
Vmysql
p9738
sVbean-validation
p9739
Vjava
p9740
sVlibreoffice
p9741
Vopenoffice.org
p9742
sVstyles
p9743
Vwpf
p9744
sVscheduler
p9745
Vjava
p9746
sVsilverlight
p9747
Vc#
p9748
sVargument-passing
p9749
Vc++
p9750
sVjfreechart
p9751
Vjava
p9752
sVtemplating
p9753
Vjavascript
p9754
sVsimulator
p9755
Viphone
p9756
sVbackground-process
p9757
Vios
p9758
sVoperating-system
p9759
g186
sVreturn-value
p9760
Vc++
p9761
sVrsync
p9762
Vlinux
p9763
sVslice
p9764
Vpython
p9765
sVliterals
p9766
Vstring
p9767
sVgearman
p9768
Vphp
p9769
sVqemu
p9770
Vkvm
p9771
sVredis
p9772
Vnode.js
p9773
sVslick
p9774
Vscala
p9775
sVlegal
p9776
Vlicensing
p9777
sVautomake
p9778
Vautoconf
p9779
sVprovider
p9780
Vandroid
p9781
sVkvm
p9782
Vqemu
p9783
sVshared-hosting
p9784
Vphp
p9785
sVelementtree
p9786
Vpython
p9787
sVclass-method
p9788
Vpython
p9789
sVfirebird
p9790
Vsql
p9791
sVjob-scheduling
p9792
Vjava
p9793
sVworksheet
p9794
Vexcel
p9795
sVspss
p9796
g16
sVwebsphere-6.1
p9797
Vwebsphere
p9798
sVcuda
p9799
Vc++
p9800
sVnullpointerexception
p9801
Vjava
p9802
sVknitr
p9803
g5929
sVcurses
p9804
Vpython
p9805
sVinstruments
p9806
Vios
p9807
sVnumber-formatting
p9808
Vjava
p9809
sVliferay
p9810
Vliferay-6
p9811
sVcode-snippets
p9812
Vc#
p9813
sVodata
p9814
Vwcf-data-services
p9815
sVmatlab-toolbox
p9816
Vmatlab
p9817
sVvb.net-2010
p9818
Vvb.net
p9819
sVnumeric
p9820
g158
sVframebuffer
p9821
Vopengl
p9822
sVactivemq
p9823
Vjms
p9824
sVioc-container
p9825
Vc#
p9826
sVwcf-data-services
p9827
Vwcf
p9828
sVandroid-ksoap2
p9829
Vandroid
p9830
sVentity-attribute-value
p9831
Vmysql
p9832
sVexcel-2003
p9833
Vexcel
p9834
sVsqoop
p9835
Vhadoop
p9836
sVexcel-2007
p9837
Vexcel
p9838
sVrvm
p9839
Vruby
p9840
sVasynchronous
p9841
Vc#
p9842
sVfirebug
p9843
Vjavascript
p9844
sVcoded-ui-tests
p9845
Vc#
p9846
sVfiddler
p9847
Vc#
p9848
sVclearcase-ucm
p9849
Vclearcase
p9850
sVamazon-sqs
p9851
Vamazon-web-services
p9852
sVgettext
p9853
Vphp
p9854
sVmatrix-multiplication
p9855
Vmatrix
p9856
sVpath-finding
p9857
Valgorithm
p9858
sVwindows-xp
p9859
Vwindows
p9860
sVtype-conversion
p9861
Vc#
p9862
sVrspec-rails
p9863
Vruby-on-rails
p9864
sVhttpmodule
p9865
Vasp.net
p9866
sVjavafx-2
p9867
Vjava
p9868
sVjavafx-8
p9869
Vjavafx-2
p9870
sVsymbol
p9871
Vjava
p9872
sVqtablewidget
p9873
Vqt
p9874
sVattached-properties
p9875
Vwpf
p9876
sVnswindow
p9877
Vcocoa
p9878
sVraspbian
p9879
Vraspberry-pi
p9880
sVn-tier
p9881
Vc#
p9882
sVwifi
p9883
Vandroid
p9884
sVcurve
p9885
Vbezier
p9886
sVvisual-c++
p9887
Vc++
p9888
sVclasscastexception
p9889
Vjava
p9890
sVdirectory
p9891
Vphp
p9892
sVcollision-detection
p9893
Vjava
p9894
sVtelerik-grid
p9895
Vtelerik
p9896
sVbytearray
p9897
Vjava
p9898
sVlua-table
p9899
Vlua
p9900
sVx509certificate
p9901
Vc#
p9902
sVscalaz
p9903
Vscala
p9904
sVresearch
p9905
Valgorithm
p9906
sVfluentvalidation
p9907
Vc#
p9908
sVinit
p9909
Vpython
p9910
sVwebgrid
p9911
Vasp.net-mvc-3
p9912
sVkeydown
p9913
Vjquery
p9914
sVical
p9915
Vphp
p9916
sVsony
p9917
Vandroid
p9918
sVdapper
p9919
Vc#
p9920
sVpush-notification
p9921
Vandroid
p9922
sVlisp
p9923
Vcommon-lisp
p9924
sVevaluation
p9925
Vjava
p9926
sVlist
p9927
Vpython
p9928
sVpicasa
p9929
Vandroid
p9930
sVdomain-driven-design
p9931
Vc#
p9932
sVwebdav
p9933
Vc#
p9934
sVbuilt-in
p9935
Vpython
p9936
sVtex
p9937
Vlatex
p9938
sVsyslog
p9939
Vlogging
p9940
sVdesign
p9941
Vc#
p9942
sVshared-libraries
p9943
Vc++
p9944
sVlistbox
p9945
Vc#
p9946
sVpinterest
p9947
Vjavascript
p9948
sVsum
p9949
Vmysql
p9950
sVversion
p9951
Vjava
p9952
sVsession-timeout
p9953
Vsession
p9954
sVrow
p9955
Vtable
p9956
sVmemcached
p9957
Vphp
p9958
sVjsf-2
p9959
Vjsf
p9960
sVstandards-compliance
p9961
Vc++
p9962
sVtags
p9963
Vhtml
p9964
sVmediaelement.js
p9965
Vjavascript
p9966
sVweb-security
p9967
Vphp
p9968
sVmongodb-java
p9969
Vmongodb
p9970
sVhashtable
p9971
Vjava
p9972
sVswi-prolog
p9973
Vprolog
p9974
sVlinux-device-driver
p9975
Vlinux-kernel
p9976
sVmediastore
p9977
Vandroid
p9978
sVthrift
p9979
Vjava
p9980
sVmicrodata
p9981
Vschema.org
p9982
sVgrails-plugin
p9983
Vgrails
p9984
sVanonymous-function
p9985
Vjavascript
p9986
sVhttp-status-code-500
p9987
Vphp
p9988
sVviewflipper
p9989
Vandroid
p9990
sVonbeforeunload
p9991
Vjavascript
p9992
sVidentity
p9993
Vsql-server
p9994
sVoptions
p9995
Vjquery
p9996
sVrenderpartial
p9997
Vruby-on-rails
p9998
sVtfsbuild
p9999
Vtfs
p10000
sVword-vba
p10001
Vvba
p10002
sVjbutton
p10003
Vjava
p10004
sVcrystal-reports-2008
p10005
Vcrystal-reports
p10006
sVgame-center
p10007
Vios
p10008
sVrazor-2
p10009
Vasp.net-mvc-4
p10010
sVdeque
p10011
Vc++
p10012
sVoperators
p10013
Vc++
p10014
sVopenframeworks
p10015
Vc++
p10016
sVdom-manipulation
p10017
Vjquery
p10018
sVssis-data-transformations
p10019
Vssis
p10020
sVgeneric-programming
p10021
Vc++
p10022
sVspeech-recognition
p10023
Vandroid
p10024
sVsymfony-2.3
p10025
Vsymfony2
p10026
sVsymfony-2.1
p10027
Vsymfony2
p10028
sVrestsharp
p10029
Vc#
p10030
sVradgrid
p10031
Vtelerik
p10032
sVcircular-dependency
p10033
Vc++
p10034
sVlarge-files
p10035
Vjava
p10036
sVequation
p10037
Vmath
p10038
sVfor-loop
p10039
Vloops
p10040
sVdo-while
p10041
Vjava
p10042
sVcpu-architecture
p10043
Vcpu
p10044
sVstringtokenizer
p10045
Vjava
p10046
sVdivision
p10047
Vmath
p10048
sVquartz-2d
p10049
Vios
p10050
sVrvalue-reference
p10051
Vc++
p10052
sVcapistrano
p10053
Vruby-on-rails
p10054
sVwebsphere-7
p10055
Vwebsphere
p10056
sVwebsphere-8
p10057
Vwebsphere
p10058
sValgebra
p10059
Vmath
p10060
sVlighting
p10061
Vopengl
p10062
sVlazy-loading
p10063
Vhibernate
p10064
sVinvalidoperationexception
p10065
Vc#
p10066
sVshort
p10067
Vjava
p10068
sVandroid-dialog
p10069
Vandroid
p10070
sVfooter
p10071
Vcss
p10072
sVpostfix
p10073
Vemail
p10074
sVtelephonymanager
p10075
Vandroid
p10076
sVcallback
p10077
Vjavascript
p10078
sVblackberry-playbook
p10079
Vblackberry
p10080
sVhandlebars
p10081
Vjavascript
p10082
sVxmpp
p10083
Vandroid
p10084
sVcode-generation
p10085
Vc#
p10086
sVtypedef
p10087
Vc++
p10088
sVphantomjs
p10089
Vjavascript
p10090
sVsvcutil.exe
p10091
Vwcf
p10092
sValter
p10093
Vmysql
p10094
sVreturn
p10095
Vfunction
p10096
sVresizable
p10097
Vjquery
p10098
sVmemory-management
p10099
Vc++
p10100
sVshow-hide
p10101
Vjquery
p10102
sVgetelementbyid
p10103
Vjavascript
p10104
sVscipy
p10105
Vpython
p10106
sVms-office
p10107
Vc#
p10108
sVgame-engine
p10109
Vandroid
p10110
sVamazon-ec2
p10111
Vamazon-web-services
p10112
sVstring-array
p10113
Vandroid
p10114
sVnservicebus
p10115
Vc#
p10116
sVrefresh
p10117
Vjavascript
p10118
sVinnodb
p10119
Vmysql
p10120
sVoutputstream
p10121
Vjava
p10122
sVandroid-facebook
p10123
Vandroid
p10124
sVshared-objects
p10125
Vactionscript-3
p10126
sVaddressbook
p10127
Viphone
p10128
sVgoogle-gdk
p10129
Vgoogle-glass
p10130
sVexpect
p10131
Vtcl
p10132
sVloops
p10133
Vphp
p10134
sVauthorize.net
p10135
Vphp
p10136
sVimpersonation
p10137
Vc#
p10138
sVdirectx-11
p10139
Vdirectx
p10140
sVetag
p10141
Vcaching
p10142
sVhibernate-mapping
p10143
Vhibernate
p10144
sVbing-maps-api
p10145
Vbing-maps
p10146
sVsqldatatypes
p10147
Vsql
p10148
sVstrong-parameters
p10149
Vruby-on-rails
p10150
sVmodularity
p10151
Vjava
p10152
sVimacros
p10153
Vjavascript
p10154
sVmissing-data
p10155
g16
sVcomplex-numbers
p10156
Vc++
p10157
sVfeed
p10158
Vrss
p10159
sVnotify
p10160
Vjava
p10161
sVservicebus
p10162
Vazure
p10163
sVxml-namespaces
p10164
Vxml
p10165
sVgpl
p10166
Vlicensing
p10167
sVdbunit
p10168
Vjava
p10169
sVgpg
p10170
Vencryption
p10171
sVrailo
p10172
Vcoldfusion
p10173
sVspock
p10174
Vgrails
p10175
sVstorm
p10176
Vjava
p10177
sVgpu
p10178
Vcuda
p10179
sVstore
p10180
Vextjs
p10181
sVgps
p10182
Vandroid
p10183
sVjquery-tools
p10184
Vjquery
p10185
sVsegue
p10186
Vios
p10187
sVoption
p10188
Vselect
p10189
sVsilex
p10190
Vphp
p10191
sVmediarecorder
p10192
Vandroid
p10193
sVbbcode
p10194
Vphp
p10195
sVdouble
p10196
Vjava
p10197
sVdevice-driver
p10198
Vwindows
p10199
sVvariable-scope
p10200
Vjavascript
p10201
sVbitwise
p10202
g186
sVjasper-reports
p10203
Vjava
p10204
sVscatter-plot
p10205
g5929
sVobjective-c-runtime
p10206
Vobjective-c
p10207
sVcharacter-encoding
p10208
Vphp
p10209
sVfile-get-contents
p10210
Vphp
p10211
sVwindows-phone-8
p10212
Vc#
p10213
sVtransactional
p10214
Vspring
p10215
sVwindows-phone-7
p10216
Vc#
p10217
sVquicksort
p10218
Valgorithm
p10219
sVcentos6
p10220
Vcentos
p10221
sVeasy-install
p10222
Vpython
p10223
sVjsf
p10224
Vjava
p10225
sVpopulate
p10226
Vphp
p10227
sVexec
p10228
Vphp
p10229
sVdata.frame
p10230
g5929
sVsearchview
p10231
Vandroid
p10232
sVzend-form-element
p10233
Vzend-framework
p10234
sVsaxparser
p10235
Vandroid
p10236
sVsql-server-2008-r2
p10237
Vsql
p10238
sVpdfbox
p10239
Vjava
p10240
sVrunnable
p10241
Vjava
p10242
sVcrosstab
p10243
Vsql
p10244
sVmathematical-optimization
p10245
Vmatlab
p10246
sVwindows
p10247
Vc++
p10248
sVandroid-video-player
p10249
Vandroid
p10250
sVkaminari
p10251
Vruby-on-rails
p10252
sVmediaelement
p10253
Vwpf
p10254
sVpublic-key
p10255
Vrsa
p10256
sVandroid-arrayadapter
p10257
Vandroid
p10258
sVrtf
p10259
Vc#
p10260
sVcdn
p10261
Vjavascript
p10262
sVcdi
p10263
Vjava
p10264
sVcdt
p10265
Veclipse
p10266
sVarea
p10267
Vjquery
p10268
sVrtp
p10269
Vandroid
p10270
sVtypo3
p10271
Vtyposcript
p10272
sViis-7.5
p10273
Vasp.net
p10274
sVcheckboxlist
p10275
Vasp.net
p10276
sVtriangle
p10277
Vjava
p10278
sVinvoke
p10279
Vc#
p10280
sVpjsip
p10281
Vsip
p10282
sVhid
p10283
Vusb
p10284
sVshared
p10285
Vmemory
p10286
sVgpuimage
p10287
Vios
p10288
sVcompiler
p10289
Vc++
p10290
sVactiviti
p10291
Valfresco
p10292
sVactivity
p10293
Vandroid
p10294
sVfacebook-access-token
p10295
Vfacebook
p10296
sVequinox
p10297
Vosgi
p10298
sVdump
p10299
Vmysql
p10300
sVweb-services
p10301
Vjava
p10302
sVandroid-tablelayout
p10303
Vandroid
p10304
sVarm
p10305
Vassembly
p10306
sVfullscreen
p10307
Vandroid
p10308
sVlibraries
p10309
Vc++
p10310
sVunions
p10311
g4966
sVoffline-caching
p10312
Vhtml5
p10313
sVformatter
p10314
Vjava
p10315
sVgoogle-translate
p10316
Vjavascript
p10317
sVcorruption
p10318
Vc++
p10319
sVhexadecimal-notation
p10320
Vhex
p10321
sVprofiling
p10322
Vjava
p10323
sVappwidget
p10324
Vandroid
p10325
sVcode-smell
p10326
Vc#
p10327
sVjava-ee
p10328
Vjava
p10329
sVpcap
p10330
g4966
sVsonata-admin
p10331
Vsymfony2
p10332
sVc
p10333
Vc++
p10334
sVberkeley-db
p10335
Vjava
p10336
sVcontext
p10337
Vandroid
p10338
sVfile-io
p10339
Vjava
p10340
sVmultiple-columns
p10341
Vcss
p10342
sVgroups
p10343
Vuser
p10344
sVhtml5-appcache
p10345
Vhtml5
p10346
sVargv
p10347
g4966
sVzurb-foundation
p10348
Vcss
p10349
sVkeytool
p10350
Vjava
p10351
sVexc-bad-access
p10352
Vobjective-c
p10353
sVswf
p10354
Vflash
p10355
sVpc
p10356
Vandroid
p10357
sVpg
p10358
Vruby-on-rails
p10359
sVpe
p10360
Vwindows
p10361
sVswt
p10362
Vjava
p10363
sVresttemplate
p10364
Vspring
p10365
sVprecision
p10366
Vfloating-point
p10367
sVrspec
p10368
Vruby-on-rails
p10369
sVusage
p10370
Vmemory
p10371
sVz-index
p10372
Vcss
p10373
sVgridpanel
p10374
Vextjs
p10375
sVosx-mountain-lion
p10376
Vosx
p10377
sVautomator
p10378
Vapplescript
p10379
sVreflection.emit
p10380
Vc#
p10381
sVproject-euler
p10382
Vpython
p10383
sVdirectoryservices
p10384
Vactive-directory
p10385
sVscreen-size
p10386
Vandroid
p10387
sVbehavior
p10388
Vcakephp
p10389
sVspring-webflow
p10390
Vspring
p10391
sVtreenode
p10392
Vtreeview
p10393
sVcode-completion
p10394
Veclipse
p10395
sVandroid-textview
p10396
Vandroid
p10397
sVcamera-calibration
p10398
Vopencv
p10399
sVactivesupport
p10400
Vruby-on-rails
p10401
sVria
p10402
Vsilverlight
p10403
sVhadoop
p10404
Vmapreduce
p10405
sVcoffeescript
p10406
Vjavascript
p10407
sVsqlite3
p10408
Vsqlite
p10409
sVshiro
p10410
Vjava
p10411
sVfacebook-timeline
p10412
Vfacebook
p10413
sVx86
p10414
Vassembly
p10415
sVhidden-field
p10416
Vjquery
p10417
sVdrop-down-menu
p10418
Vjquery
p10419
sVtriangulation
p10420
Vdelaunay
p10421
sVmips
p10422
Vassembly
p10423
sVbackground-image
p10424
Vcss
p10425
sVtabactivity
p10426
Vandroid
p10427
sVblackberry-simulator
p10428
Vblackberry
p10429
sVanalysis
p10430
Valgorithm
p10431
sVedge
p10432
Vgraph
p10433
sVjboss-weld
p10434
Vcdi
p10435
sVelastic-map-reduce
p10436
Vhadoop
p10437
sVjtree
p10438
Vjava
p10439
sVmarshalling
p10440
Vc#
p10441
sVeclipse-cdt
p10442
Veclipse
p10443
sVintervals
p10444
Vjavascript
p10445
sVhuffman
p10446
Vc++
p10447
sVscalatest
p10448
Vscala
p10449
sVhello-world
p10450
Vjava
p10451
sVtablet
p10452
Vandroid
p10453
sVenvdte
p10454
Vc#
p10455
sVfinder
p10456
Vosx
p10457
sVbuild
p10458
Vjava
p10459
sVlinked-server
p10460
Vsql-server
p10461
sVaggregation
p10462
Vmongodb
p10463
sVinteger
p10464
Vjava
p10465
sVjfilechooser
p10466
Vjava
p10467
sVlinqpad
p10468
Vc#
p10469
sVignore
p10470
Vsvn
p10471
sVsitemap
p10472
Vasp.net
p10473
sVouter-join
p10474
Vsql
p10475
sVmodernizr
p10476
Vjavascript
p10477
sVgoogle-api
p10478
Vandroid
p10479
sVtraits
p10480
Vscala
p10481
sVgoogle-play-services
p10482
Vandroid
p10483
sVnewsletter
p10484
Vemail
p10485
sVebean
p10486
Vplayframework-2.0
p10487
sVcontrollers
p10488
Vruby-on-rails
p10489
sVread-eval-print-loop
p10490
Vclojure
p10491
sVglibc
p10492
g4966
sVwkhtmltopdf
p10493
Vphp
p10494
sVkendo-grid
p10495
Vkendo-ui
p10496
sVgenetic-algorithm
p10497
Valgorithm
p10498
sVhibernate-annotations
p10499
Vhibernate
p10500
sVobjective-c-blocks
p10501
Vobjective-c
p10502
sVvbulletin
p10503
Vphp
p10504
sVkeycode
p10505
Vjavascript
p10506
sVconfluence
p10507
Vatlassian
p10508
sVpipeline
p10509
Vpowershell
p10510
sVgrand-central-dispatch
p10511
Vios
p10512
sVbounding-box
p10513
Vcollision-detection
p10514
sVsymfony1
p10515
Vphp
p10516
sVsymfony2
p10517
Vphp
p10518
sVrange
p10519
Vexcel
p10520
sVtogglebutton
p10521
Vandroid
p10522
sVphp-cli
p10523
Vmysql
p10524
sVmcrypt
p10525
Vphp
p10526
sVwebview
p10527
Vandroid
p10528
sVxmlnode
p10529
Vxml
p10530
sVpageload
p10531
Vasp.net
p10532
sVmoss
p10533
Vsharepoint
p10534
sVhottowel
p10535
Vdurandal
p10536
sVfopen
p10537
Vphp
p10538
sVellipse
p10539
Vwpf
p10540
sVrows
p10541
Vmysql
p10542
sVmvccontrib
p10543
Vasp.net-mvc
p10544
sVlldb
p10545
Vxcode
p10546
sVxps
p10547
Vwpf
p10548
sVandroid-xml
p10549
Vandroid
p10550
sVwindows-8.1
p10551
Vc#
p10552
sVmemory
p10553
Vc++
p10554
sVisolatedstorage
p10555
Vwindows-phone-7
p10556
sVpaypal-sandbox
p10557
Vpaypal
p10558
sVpopupwindow
p10559
Vandroid
p10560
sVpartitioning
p10561
Vmysql
p10562
sVflash-player
p10563
Vflash
p10564
sVhighlight
p10565
Vjquery
p10566
sVshortcuts
p10567
Vwindows
p10568
sVfread
p10569
g4966
sVtomcat7
p10570
Vjava
p10571
sVtomcat6
p10572
Vjava
p10573
sVrally
p10574
Vjavascript
p10575
sVdataadapter
p10576
Vc#
p10577
sVspring-social
p10578
Vspring
p10579
sVerror-reporting
p10580
Vphp
p10581
sVlucene.net
p10582
Vlucene
p10583
sVfile-extension
p10584
Vphp
p10585
sVgoogle-calendar
p10586
Vphp
p10587
sVquartz-core
p10588
Vios
p10589
sVoutlook-vba
p10590
Vvba
p10591
sVsystem-tray
p10592
Vc#
p10593
sVuploadify
p10594
Vjquery
p10595
sVinner-join
p10596
Vmysql
p10597
sVkarma
p10598
Vangularjs
p10599
sVtextmate
p10600
Vtextmatebundles
p10601
sVscroll
p10602
Vjquery
p10603
sVnasm
p10604
Vassembly
p10605
sVgoogle-api-java-client
p10606
Vandroid
p10607
sVdependency-injection
p10608
Vc#
p10609
sVggplot2
p10610
g16
sVoverlap
p10611
Vcss
p10612
sVdialogbox
p10613
Vandroid
p10614
sVbase64
p10615
Vphp
p10616
sVlanguages
p10617
Vandroid
p10618
sVarchlinux
p10619
Vlinux
p10620
sVeclipse-rcp
p10621
Veclipse
p10622
sVinclude
p10623
Vphp
p10624
sVjunit
p10625
Vjava
p10626
sVconfirmation
p10627
Vjavascript
p10628
sVsymfony-sonata
p10629
Vsymfony2
p10630
sVjquery-templates
p10631
Vjquery
p10632
sVtransactionscope
p10633
Vc#
p10634
sVstackoverflow
p10635
Vjava
p10636
sVbinaryfiles
p10637
Vc++
p10638
sVkinect-sdk
p10639
Vkinect
p10640
sVmemory-alignment
p10641
Vc++
p10642
sVfadeout
p10643
Vjquery
p10644
sVrobotframework
p10645
Vpython
p10646
sVsql-server
p10647
Vsql
p10648
sVpolling
p10649
Vajax
p10650
sVuicollectionviewcell
p10651
Vuicollectionview
p10652
sVcfc
p10653
Vcoldfusion
p10654
sVfold
p10655
Vhaskell
p10656
sVtortoisesvn
p10657
Vsvn
p10658
sVuinavigationitem
p10659
Vios
p10660
sVbdd
p10661
Vcucumber
p10662
sVuitabbaritem
p10663
Viphone
p10664
sVisapi
p10665
Viis
p10666
sVdrupal-modules
p10667
Vdrupal
p10668
sVcx-freeze
p10669
Vpython
p10670
sVember-data
p10671
Vember.js
p10672
sVjson-encode
p10673
Vphp
p10674
sVin-app-billing
p10675
Vandroid
p10676
sVjqtouch
p10677
Vjquery
p10678
sVjquery-ui
p10679
Vjquery
p10680
sVfirefox-addon-sdk
p10681
Vfirefox-addon
p10682
sVgoogle-chrome
p10683
Vjavascript
p10684
sVshader
p10685
Vopengl
p10686
sVnsstring
p10687
Vobjective-c
p10688
sVwebrequest
p10689
Vc#
p10690
sVhelpers
p10691
Vruby-on-rails
p10692
sVenterprise-library
p10693
Vc#
p10694
sVlanguage-design
p10695
Vprogramming-languages
p10696
sVapple
p10697
Vios
p10698
sVapt
p10699
Vubuntu
p10700
sVapk
p10701
Vandroid
p10702
sVapi
p10703
Vphp
p10704
sVgoogle-cast
p10705
Vchromecast
p10706
sVapply
p10707
g5929
sVwindows-azure-storage
p10708
Vazure
p10709
sVlnk2019
p10710
Vc++
p10711
sVstream
p10712
Vc#
p10713
sVsilverlight-3.0
p10714
Vsilverlight
p10715
sVportable-class-library
p10716
Vc#
p10717
sVweb-deployment-project
p10718
Vasp.net
p10719
sVgeneric-list
p10720
Vc#
p10721
sVred5
p10722
Vjava
p10723
sVepoll
p10724
Vlinux
p10725
sVsql-like
p10726
Vmysql
p10727
sVxaml
p10728
Vwpf
p10729
sVeditable
p10730
Vjquery
p10731
sVbackbone-events
p10732
Vbackbone.js
p10733
sVtableview
p10734
Vios
p10735
sVenterprise-architect
p10736
Vuml
p10737
sVthymeleaf
p10738
Vspring-mvc
p10739
sVphpstorm
p10740
Vphp
p10741
sVeclipse-wtp
p10742
Veclipse
p10743
sVtap
p10744
Vandroid
p10745
sVtar
p10746
Vlinux
p10747
sVserial
p10748
Varduino
p10749
sVapex-code
p10750
Vsalesforce
p10751
sVdwr
p10752
Vjava
p10753
sVsip
p10754
Vvoip
p10755
sVsubdirectory
p10756
V.htaccess
p10757
sVtextblock
p10758
Vwpf
p10759
sVashx
p10760
Vasp.net
p10761
sVadministrator
p10762
Vwindows
p10763
sVpostback
p10764
Vasp.net
p10765
sVjavascript-events
p10766
Vjavascript
p10767
sVmultiple-inheritance
p10768
Vc++
p10769
sVwindows-services
p10770
Vc#
p10771
sVauto-generate
p10772
Vc#
p10773
sVlight
p10774
Vopengl
p10775
sVvirtual-directory
p10776
Viis
p10777
sVnamed-pipes
p10778
Vc#
p10779
sVdjango-class-based-views
p10780
Vdjango
p10781
sVsubdomains
p10782
V.htaccess
p10783
sVfreebsd
p10784
g222
sVcrawling
p10785
Vweb-crawler
p10786
sVmouseover
p10787
Vjquery
p10788
sVinterpreter
p10789
Vpython
p10790
sVcode-review
p10791
Vc#
p10792
sVoperator-keyword
p10793
Vc++
p10794
sVspotify
p10795
Vjavascript
p10796
sVdisqus
p10797
Vjavascript
p10798
sVsqlexception
p10799
Vjava
p10800
sVglew
p10801
Vopengl
p10802
sVmultithreading
p10803
Vjava
p10804
sVflex
p10805
Vactionscript-3
p10806
sVmultimap
p10807
Vc++
p10808
sVcrash
p10809
Vandroid
p10810
sVindexing
p10811
Vmysql
p10812
sVa-star
p10813
Valgorithm
p10814
sVfingerprint
p10815
Vbiometrics
p10816
sVsignals-slots
p10817
Vqt
p10818
sVnfc
p10819
Vandroid
p10820
sVtrac
p10821
Vsvn
p10822
sVedit
p10823
Vphp
p10824
sV.net
p10825
Vc#
p10826
sVbitwise-operators
p10827
g4966
sVnfs
p10828
Vlinux
p10829
sVvideoview
p10830
Vandroid
p10831
sVwinrt-xaml
p10832
Vwindows-8
p10833
sVcascading-deletes
p10834
Vsql
p10835
sVmaven-plugin
p10836
Vmaven
p10837
sVregistration
p10838
Vphp
p10839
sVsimpledateformat
p10840
Vjava
p10841
sVmxml
p10842
Vflex
p10843
sVxlrd
p10844
Vpython
p10845
sVvimscript
p10846
Vvim
p10847
sVhttpurlconnection
p10848
Vjava
p10849
sVspring-ws
p10850
Vjava
p10851
sVcategory
p10852
Vwordpress
p10853
sVfckeditor
p10854
Vjavascript
p10855
sVcommand-line
p10856
Vwindows
p10857
sVvcl
p10858
Vdelphi
p10859
sVfriendly-url
p10860
V.htaccess
p10861
sVmetaclass
p10862
Vpython
p10863
sVmoxy
p10864
Vjaxb
p10865
sVpixelsense
p10866
Vwpf
p10867
sVdictionary
p10868
Vpython
p10869
sVipod
p10870
Viphone
p10871
sVachartengine
p10872
Vandroid
p10873
sVimplode
p10874
Vphp
p10875
sVmulti-tenant
p10876
Vasp.net-mvc
p10877
sVonclicklistener
p10878
Vandroid
p10879
sVsimplexml
p10880
Vphp
p10881
sVvc6
p10882
Vc++
p10883
sVxml-schema
p10884
Vxml
p10885
sVmaven-3
p10886
Vmaven
p10887
sVmaven-2
p10888
Vjava
p10889
sVindesign
p10890
Vjavascript
p10891
sVecho
p10892
Vphp
p10893
sVcolor-picker
p10894
Vjquery
p10895
sVweka
p10896
Vjava
p10897
sVcolor-scheme
p10898
Vvim
p10899
sVmakefile
p10900
Vmake
p10901
sVandroid-theme
p10902
Vandroid
p10903
sVunhandled-exception
p10904
Vc#
p10905
sVcompiler-warnings
p10906
Vc++
p10907
sVshell
p10908
Vbash
p10909
sVslider
p10910
Vjquery
p10911
sVsessionid
p10912
Vsession
p10913
sVquantmod
p10914
g16
sVfactory-girl
p10915
Vruby-on-rails
p10916
sVadfs2.0
p10917
Vwif
p10918
sVpojo
p10919
Vjava
p10920
sVdelphi-2007
p10921
Vdelphi
p10922
sVcgaffinetransform
p10923
Vios
p10924
sVrepository-pattern
p10925
Vc#
p10926
sVsimplemembership
p10927
Vasp.net-mvc-4
p10928
sVmigration
p10929
Vruby-on-rails
p10930
sVprotocol-buffers
p10931
Vc++
p10932
sVtwitter-api
p10933
Vphp
p10934
sVclip
p10935
Vjava
p10936
sVapache-commons
p10937
Vjava
p10938
sVlinker
p10939
Vc++
p10940
sVqueryset
p10941
Vdjango
p10942
sVtypeahead
p10943
Vtwitter-bootstrap
p10944
sVlinked
p10945
Vlist
p10946
sVangle
p10947
Vmath
p10948
sVcontact
p10949
Vforms
p10950
sVscons
p10951
Vpython
p10952
sVlanguage-lawyer
p10953
Vc++
p10954
sVautomated-tests
p10955
Vtesting
p10956
sVcollaboration
p10957
Vversion-control
p10958
sVclass
p10959
Vc++
p10960
sVphusion-passenger
p10961
Vruby-on-rails
p10962
sVgoogle-maps-sdk-ios
p10963
Vios
p10964
sVpipe
p10965
g222
sVtaglib
p10966
Vjsp
p10967
sVjcr
p10968
Vjackrabbit
p10969
sVef-code-first
p10970
Ventity-framework
p10971
sVgrails-domain-class
p10972
Vgrails
p10973
sVweb.py
p10974
Vpython
p10975
sVpyparsing
p10976
Vpython
p10977
sVrouting
p10978
Vruby-on-rails
p10979
sVstrtok
p10980
Vc
p10981
sVsqlplus
p10982
Voracle
p10983
sVlocal
p10984
Vjavascript
p10985
sVurlconnection
p10986
Vjava
p10987
sVdatabase-connection
p10988
Vmysql
p10989
sVdiacritics
p10990
Vphp
p10991
sVwords
p10992
Vstring
p10993
sVcustom-action
p10994
Vwix
p10995
sVpie-chart
p10996
Vjavascript
p10997
sVqt
p10998
Vc++
p10999
sVdynamic-data
p11000
Vasp.net
p11001
sVlistadapter
p11002
Vandroid
p11003
sVjava.util.concurrent
p11004
Vjava
p11005
sVqa
p11006
Vtesting
p11007
sVsql-management-studio
p11008
Vsql-server
p11009
sVmenuitem
p11010
Vandroid
p11011
sVview
p11012
Vandroid
p11013
sVmodulo
p11014
Vmath
p11015
sVcheckstyle
p11016
Vjava
p11017
sVx11
p11018
Vlinux
p11019
sVgoogle-cloud-endpoints
p11020
Vgoogle-app-engine
p11021
sVmodule
p11022
Vpython
p11023
sVpinchzoom
p11024
Vandroid
p11025
sVmultipart
p11026
Vjava
p11027
sVgmail
p11028
Vemail
p11029
sVdll
p11030
Vc++
p11031
sVnested-lists
p11032
Vpython
p11033
sVjsoup
p11034
Vjava
p11035
sVuielement
p11036
Vwpf
p11037
sVteamcity
p11038
Vcontinuous-integration
p11039
sVzend-framework2
p11040
Vphp
p11041
sVp2p
p11042
Vnetworking
p11043
sVhomebrew
p11044
Vosx
p11045
sVios
p11046
Vobjective-c
p11047
sVuserform
p11048
Vvba
p11049
sVlogin-control
p11050
Vasp.net
p11051
sVwebservice-client
p11052
Vweb-services
p11053
sVdeserialization
p11054
Vc#
p11055
sVrdlc
p11056
Vc#
p11057
sVchmod
p11058
Vphp
p11059
sVpackaging
p11060
Vpython
p11061
sVrpc
p11062
Vgwt
p11063
sVcxf
p11064
Vjava
p11065
sVsequences
p11066
Vpython
p11067
sVtable
p11068
Vhtml
p11069
sVgoogle-talk
p11070
Vxmpp
p11071
sVrpm
p11072
Vlinux
p11073
sVoffice365
p11074
Vsharepoint
p11075
sVcharts
p11076
Vjavascript
p11077
sVsemaphore
p11078
g186
sVporting
p11079
Vc++
p11080
sVjlist
p11081
Vjava
p11082
sVresteasy
p11083
Vjava
p11084
sVstring-matching
p11085
Vregex
p11086
sVpartials
p11087
Vruby-on-rails
p11088
sVvimeo
p11089
Vjquery
p11090
sVcursor
p11091
Vandroid
p11092
sVarraylist
p11093
Vjava
p11094
sVrename
p11095
Vfile
p11096
sVlayer
p11097
Vios
p11098
sVdjango-modelform
p11099
Vdjango
p11100
sVfacebook-page
p11101
Vfacebook
p11102
sVavr
p11103
g222
sVhtml-form
p11104
Vhtml
p11105
sVlinq-to-entities
p11106
Vc#
p11107
sVavi
p11108
Vvideo
p11109
sVexchange-server-2010
p11110
Vexchange-server
p11111
sVavd
p11112
Vandroid
p11113
sVprivileges
p11114
Vmysql
p11115
sVclasspath
p11116
Vjava
p11117
sVenumeration
p11118
Vc#
p11119
sVmember
p11120
Vc++
p11121
sVunity
p11122
Vc#
p11123
sVslickgrid
p11124
Vjavascript
p11125
sVautomation
p11126
Vc#
p11127
sVconnection-pooling
p11128
Vjava
p11129
sVsingle-table-inheritance
p11130
Vruby-on-rails
p11131
sVcoding-style
p11132
Vjava
p11133
sVdynamics-ax-2012
p11134
Vaxapta
p11135
sVjpql
p11136
Vjpa
p11137
sVsnmp
p11138
Vnet-snmp
p11139
sVwebclient
p11140
Vc#
p11141
sVuisegmentedcontrol
p11142
Vios
p11143
sVmfc
p11144
Vc++
p11145
sVtcp
p11146
Vsockets
p11147
sVdata-visualization
p11148
g158
sVtcl
p11149
Vtk
p11150
sVconsole
p11151
Vc#
p11152
sVunsigned
p11153
g10981
sVwso2esb
p11154
Vwso2
p11155
sVdql
p11156
Vdoctrine2
p11157
sVjython
p11158
Vpython
p11159
sVbox-api
p11160
Vios
p11161
sVusing-statement
p11162
Vc#
p11163
sVmatlab-deployment
p11164
Vmatlab
p11165
sVcpan
p11166
Vperl
p11167
sVandroid-camera-intent
p11168
Vandroid
p11169
sVhosts
p11170
Vapache
p11171
sVxml-rpc
p11172
Vphp
p11173
sVmod-rewrite
p11174
V.htaccess
p11175
sVsequence
p11176
Voracle
p11177
sVkde
p11178
Vlinux
p11179
sVsettext
p11180
Vandroid
p11181
sVjquery-cycle
p11182
Vjquery
p11183
sVtumblr
p11184
Vhtml
p11185
sVexport
p11186
Vexcel
p11187
sVsuperclass
p11188
Vjava
p11189
sVbuildout
p11190
Vpython
p11191
sVleak
p11192
Vmemory
p11193
sVondraw
p11194
Vandroid
p11195
sVdynamically-generated
p11196
Vjquery
p11197
sVcross-domain
p11198
Vjavascript
p11199
sVfacebook-social-plugins
p11200
Vfacebook
p11201
sVphalcon
p11202
Vphp
p11203
sVpackage-managers
p11204
Vandroid
p11205
sVpyrocms
p11206
Vcodeigniter
p11207
sVsprite-kit
p11208
Vios
p11209
sVstax
p11210
Vjava
p11211
sVdjango-celery
p11212
Vcelery
p11213
sVpaste
p11214
Vcopy
p11215
sVslug
p11216
Vphp
p11217
sVshopify
p11218
Vapi
p11219
sVshipping
p11220
Vmagento
p11221
sVarcgis
p11222
Vpython
p11223
sVoracle-adf
p11224
Vjdeveloper
p11225
sVconstructor
p11226
Vc++
p11227
sVclojure
p11228
Vjava
p11229
sVowl
p11230
Vrdf
p11231
sVclustered-index
p11232
Vsql-server
p11233
sVmyeclipse
p11234
Vjava
p11235
sVskydrive
p11236
Vc#
p11237
sVumbraco
p11238
Vasp.net
p11239
sVweather
p11240
Vapi
p11241
sVpromise
p11242
Vjavascript
p11243
sVfreeze
p11244
Vjava
p11245
sVtransfer
p11246
Vfile
p11247
sVfilesize
p11248
Vphp
p11249
sVdatabase-restore
p11250
Vsql-server
p11251
sVvar
p11252
Vjavascript
p11253
sVlog4net
p11254
Vc#
p11255
sVcertificate
p11256
Vssl
p11257
sVdjango-admin
p11258
Vdjango
p11259
sVhyper-v
p11260
Vvirtual-machine
p11261
sVappdelegate
p11262
Vios
p11263
sVvolume
p11264
Vandroid
p11265
sVgodaddy
p11266
Vphp
p11267
sVtomcat
p11268
Vjava
p11269
sVrecord
p11270
Vaudio
p11271
sVbig-o
p11272
Valgorithm
p11273
sVdjango-templates
p11274
Vdjango
p11275
sVcustomvalidator
p11276
Vasp.net
p11277
sVandroid-preferences
p11278
Vandroid
p11279
sVoffice-2007
p11280
Vc#
p11281
sVreloaddata
p11282
Vuitableview
p11283
sVcss-transition
p11284
Vcss3
p11285
sVboot
p11286
Vandroid
p11287
sVmongodb-php
p11288
Vmongodb
p11289
sVbranch
p11290
Vgit
p11291
sVphp4
p11292
Vphp
p11293
sVriak
p11294
Verlang
p11295
sVmobile-application
p11296
Vandroid
p11297
sVjung
p11298
Vjava
p11299
sVasset-pipeline
p11300
Vruby-on-rails
p11301
sVunix-timestamp
p11302
Vphp
p11303
sVdebian
p11304
Vlinux
p11305
sVsencha-architect
p11306
Vextjs
p11307
sVsass
p11308
Vcss
p11309
sVjscript
p11310
Vjavascript
p11311
sVpython-idle
p11312
Vpython
p11313
s.