(lp0
VBehaviour Driven Development
p1
aVConvex Optimization
p2
aVFedora
p3
aVNoSQL
p4
aVElectrical Batteries
p5
aVFirmware
p6
aVAlgorithm Analysis
p7
aVJ2EE
p8
aVANOVA
p9
aVInformation Retrieval
p10
aVDatabase Administration
p11
aVInformation Technology Infrastructure Library
p12
aVDiodes
p13
aVDreamweaver
p14
aVActionscript
p15
aVJ2ME
p16
aVDB2
p17
aVNonlinear Regression
p18
aVQuery Optimization
p19
aVGenetic Algorithms
p20
aVMultivariate Analysis
p21
aVNetwork Flow
p22
aVData Visualization
p23
aVCoffeeScript
p24
aVGrunt JS Task Runner
p25
aVSet Theory
p26
aVVirtual Private Network
p27
aVFluid Dynamics
p28
aVFinite Element Method
p29
aVConcurrent Programming
p30
aVHP LoadRunner
p31
aVSAS
p32
aVSAP
p33
aVSoftware Design Patterns
p34
aVFormal Methods in CS
p35
aVLDAP Protocol
p36
aVText Mining
p37
aVSoftware Quality Assurance
p38
aVFactor Analysis
p39
aVT Sql
p40
aVChef IT Automation
p41
aVVirtual Machines
p42
aVModel View Controller
p43
aVRake
p44
aVLogical Volume Manager Linux
p45
aVMarkov Chain Monte Carlo
p46
aVDiscrete Optimization
p47
aVMixpanel
p48
aVAlgorithmic Trading
p49
aVPuppet IT Automation
p50
aVMS Project
p51
aVWSDL
p52
aVTransistors
p53
aVImage Processing
p54
aVDistributed Systems
p55
aVGame Programming
p56
aVHedging Strategies
p57
aVAutoCAD
p58
aVLow Power Design
p59
aVCentOS
p60
aVAmazon Ec2
p61
aVFinance Swaps
p62
aVUnit Testing
p63
aVAsset Pricing
p64
aVGame Theory
p65
aVMarket Microstructure
p66
aVFinancial Engineering
p67
aVInductor
p68
aVFormal Languages
p69
aVDHCP Protocol
p70
aVExtract Transform Load
p71
aVJUnit
p72
aVOperations Research
p73
aVStylus Node.js CSS Framework
p74
aVLanguage Integrated Query
p75
aVSignal Processing
p76
aVMarkov Process
p77
aVAlternating Current
p78
aVRemote Desktop
p79
aVCg
p80
aVNonlinear Optimization
p81
aVCAPM Model
p82
aVData Modeling
p83
aVOp Amp
p84
aVOCaml
p85
aVBusiness Intelligence
p86
aVDC Motor
p87
aVNatural Language Processing
p88
aVSQL Server Reporting Services
p89
aVSupport Vector Machines
p90
aVNeural Network
p91
aVXSL
p92
aVCustomer Relationship Management Software
p93
aVComputational Geometry
p94
aVSignal Amplifier
p95
aVYield Curve
p96
aVWeb Analytics
p97
aVPattern Recognition
p98
aVFPGA
p99
aVOscilloscope
p100
aVData Mining
p101
aVQuery Performance
p102
aVTCP
p103
aVLasso Regression
p104
aVFormal Grammars
p105
aVReverse Proxy
p106
aVOSPF Protocol
p107
aVInfrared
p108
aVSinatra Ruby DSL
p109
aVDifferential Equations
p110
aVCGI
p111
aVMyISAM
p112
aVVisual Basic
p113
aVAutomata Theory
p114
aVSMTP Protocol
p115
aVLinear Programming
p116
aVLikert Scale
p117
aVWeb Programming
p118
aVWeb Hosting
p119
aVS
p120
aVOptimization
p121
aVISO Image
p122
aVExchange Traded Funds
p123
aVMS Office
p124
aVRed Hat Linux
p125
aVDirect Current
p126
aVFTP Protocol
p127
aVVMware
p128
aVApache Webserver
p129
aVLAMP Stack
p130
aVDynamic Programming
p131
aVContext Free Grammers
p132
aVBig Data
p133
aVHyper V
p134
aVMapReduce
p135
aVSoftware Testing
p136
aVJBoss
p137
aVLCD
p138
aVSSH
p139
aVIP Protocol
p140
aVIPv6
p141
aVQuantum Computing
p142
aVGoogle Web Toolkit
p143
aVHypothesis Testing
p144
aVComplexity Theory
p145
aVVMware ESXi
p146
aVMemory Management
p147
aVJIRA
p148
aVPredictive Models
p149
aVRandomized Algorithms
p150
aVVHDL
p151
aVStochastic Processes
p152
aVComputer Networks
p153
aVVoltage Regulator
p154
aVPCB Board
p155
aVFormal Verification
p156
aVMahout
p157
aVWiFi Networks
p158
aVMathematical Physics
p159
aVNetwork File System
p160
aVMicroprocessor
p161
aVOLAP Protocol
p162
aVMathematical Modeling
p163
aVPrincipal Component Analysis
p164
aVClustering
p165
aVARIMA Model
p166
aVSoftware Development Lifecycle
p167
aVUSB
p168
aVHuman Computer Interaction
p169
aVSystem Center Configuration Manager
p170
aVMac OS X
p171
aVTransformer
p172
aVComputational Chemistry
p173
aVMS Excel
p174
aVF Sharp
p175
aVControl Theory
p176
aVKVM Virtualization
p177
aVComputer Vision
p178
aVC Sharp
p179
aVPCB Fabrication
p180
aVVisualforce Force.com Framework
p181
aVGame Engine
p182
aVStatistical Inference
p183
aVWide Area Network
p184
aVMS Visio
p185
aVElectromagnetism
p186
aVApproximation Algorithms
p187
aVQUnit JS Testing Framework
p188
aVTomcat
p189
aVDatabase Design
p190
aVContent Management Systems
p191
aVDiscrete Mathematics
p192
aVType Theory
p193
aVEstimation Theory
p194
aVFeature Selection
p195
aVInnoDB
p196
aVTheory of Computation
p197
aVCisco Systems
p198
aVJavaBeans
p199
aVComputational Mathematics
p200
aVDigital Logic
p201
aVRegular Languages
p202
aVPL SQL
p203
aVInformatica Software
p204
aVGeneralized Linear Model
p205
aVEnterprise Resource Planning
p206
aVAnalog Circuits
p207
aVFirewall
p208
aVEmbedded Systems
p209
aVDomain Name Service
p210
aVWaterfall Software Development
p211
aVJava EE
p212
aVTest Driven Development
p213
aVJava Servlets
p214
aVNetwork Attached Storage
p215
aVPascal
p216
aVTwitter Bootstrap Framework
p217
aVMockery PHP Framework
p218
aVLogistic Regression
p219
aVLocal Area Network
p220
aVCoding Theory
p221
aVTopology
p222
aVInteger Programming
p223
aVMeasure Theory
p224
aVLinear Model
p225
aVParallel Computing
p226
aVFinancial Derivatives
p227
aVRadio Antenna
p228
aVExotic Derivatives
p229
aVVirtual Private Server
p230
aVSelenium
p231
aVNetwork Address Translation
p232
aVPairs Trading
p233
aVStored Procedures
p234
aVComputational Finance
p235
aVSolar Cell
p236
aVSpine JS
p237
aVScheme
p238
aVRandom Forest
p239
aVExpress Node.js Framework
p240
aVCAD
p241
aVKernel Estimation Statistics
p242
aVMOSFET
p243
aVTeam Foundation Server
p244
aVService Oriented Architecture
p245
aVForeign Exchange
p246
aVKernel Operating Systems
p247
aVOracle VM VirtualBox
p248
aVAmerican Options
p249
aVOpenStack
p250
aVSPSS Statistics
p251
aVQuant Trading Strategies
p252
aVCapacitor
p253
aVFreeBSD
p254
aVProxy Server
p255
aVLoad Balancing
p256
aVStorage Area Network
p257
aVFile Systems
p258
aVLambda Calculus
p259
aVSearch Algorithms
p260
aVRAID
p261
aVNetBeans
p262
aVAcceptance Testing
p263
aVPower Supply
p264
aVHive
p265
aVMathematical Analysis
p266
aVJava Message Service
p267
aVNumerical Optimization
p268
aVStatistical Sampling
p269
aVJava Database Connectivity
p270
aVHTTPS
p271
aVProgramming Language Theory
p272
aVIntegrated Circuit
p273
aVEmail Server
p274
aVSOAP Protocol
p275
aVSalesforce Software
p276
aVPhotoshop
p277
aVSolaris
p278
aVSoftware Engineering
p279
aVTuring Machines
p280
aVApache HBase
p281
aVCitrix Systems
p282
aVMachine Learning
p283
aVCron
p284
aVRadio Frequency
p285
aVSQL Server Integration Services
p286
aVOperating Systems
p287
aVGreedy Algorithms
p288
aVData Warehousing
p289
aVArtificial Intelligence
p290
a.