(dp0
S'Elements of Software Construction'
p1
(lp2
NaNaNaNaNaNaNaNaNaNaNaNaNaNaNaNaNaV/en/photographic_filter
p3
aNaNaNaNaNaNaNaNaNasS'Physics II: Electricity and Magnetism'
p4
(lp5
V/en/magnetic_field, /en/electric_field
p6
aV/en/electric_charge, /en/electric_field
p7
aV/en/celestial_coordinate_system
p8
aNaV/en/voltage
p9
aNaV/en/gausss_law
p10
aNaNaV/en/capacitor
p11
aNaV/en/news, /en/french_resistance, /en/analysis_of_resistive_circuits
p12
aNaNaV/en/amperes_law
p13
aNaV/en/maglev_train
p14
aNaV/en/electromagnetic_induction
p15
aNaNaNaNaNaNaV/en/lc_circuit
p16
aNaNaV/en/maxwells_equations
p17
aNaV/en/electromagnetic_radiation
p18
aNaNaV/en/interference
p19
aNasS'Design and Analysis of Algorithms'
p20
(lp21
V/en/selection_algorithm
p22
aV/en/selection_algorithm, /en/interval_scheduling
p23
aV/en/greedy_algorithm
p24
aNaV/en/fast_fourier_transform
p25
aV/en/dynamic_programming
p26
aNaNaV/en/randomized_algorithm
p27
aV/en/randomized_algorithm
p28
aNaV/en/amortized_analysis
p29
aNaV/en/network_flow
p30
aNaNaV/en/van_emde_boas_tree
p31
aNaV/en/complexity_classes_p_and_np
p32
aV/en/approximation_algorithm
p33
aV/en/data_compression
p34
aV/en/polynomial_time
p35
aV/en/data_clustering
p36
aNaV/en/computational_geometry
p37
asS'Aerodynamics'
p38
(lp39
V/en/integral_equation, /en/lift-to-drag_ratio
p40
aV/en/stress-strain_curve, /en/navier-stokes_equations, /en/boeing
p41
aNaNaNaNaNaNaV/en/navier-stokes_equations
p42
aNaNaNaNaNaNaNasS'Thermal Energy'
p43
(lp44
NaV/en/second_law_of_thermodynamics
p45
aNaV/en/second_law_of_thermodynamics
p46
aNaNaNaNaNaV/en/heat_transfer
p47
aV/en/heat_transfer
p48
aV/en/convection
p49
aNaV/en/heat_transfer
p50
asS'Introduction to Aerospace Engineering and Design'
p51
(lp52
NaV/en/design
p53
aV/en/aerodynamics
p54
aNaV/en/aircraft_performance
p55
aNaV/en/man_powered_flight, /en/human-powered_transport
p56
aNaNaNaV/en/electronic_stability_control
p57
aNaNaV/en/engineering_ethics
p58
aNaNaV/en/astrodynamics
p59
aV/en/satellite_awards
p60
aNaNaV/en/extra-vehicular_activity
p61
aNaNaNaNaNasS'Exploring Sea, Space, & Earth: Fundamentals of Engineering Design'
p62
(lp63
V/en/engineering_drawing, /en/back-of-the-envelope_calculation
p64
aV/en/newtons_laws_of_motion
p65
aNaNaNaNaNaV/en/computer-aided_design, /en/standard_error
p66
aNaNaNaNaNaNaNaV/en/gecko, /en/cool_stuff_how_it_works
p67
aV/en/the_international_society_for_optical_engineering
p68
aNaNaNaNaNaNaNaNaNaNaNasS'Principles of Automatic Control'
p69
(lp70
NaV/en/revision_control
p71
aV/en/dell_xps, /en/head-related_transfer_function, /en/iec_61131
p72
aNaNaV/en/s_plane
p73
aV/en/electronic_stability_control
p74
aNaNaV/en/the_long_tail
p75
aV/en/regulation
p76
aNaNaNaNaNaNaNaNaV/en/proportional_control
p77
aNaNaNaV/en/root_locus
p78
aNaNaNaNaNaNaNaV/en/bode_plot
p79
aNaNaNaNaNaNaNasS'Dynamics'
p80
(lp81
NaNaV/en/linear_motion
p82
aV/en/vector
p83
aNaNaNaV/en/intrinsic_coordinates
p84
aNaNaNaV/en/momentum, /en/car_accident
p85
aNaNaNaV/en/energy
p86
aNaNaNaNaNaNaNaNaV/en/vibration, /en/normal_mode, /en/fundamental_frequency
p87
aNaNaNaNaNaNaNaNaNaNaNaV/en/newtons_laws_of_motion
p88
aV/en/eulers_equations
p89
aNaNaNaNaNas.