(lp0
(lp1
a(lp2
V/en/boundary_value_problem;;Boundary value problem
p3
aV/en/integrality;;Integral element
p4
aV/en/turbulence_modeling;;Turbulence modeling
p5
aV/en/high-definition_television;;High-definition television
p6
aV/en/well-posed_problem;;Well-posed problem
p7
aa(lp8
V/en/anti-aircraft_warfare;;Anti-aircraft warfare
p9
aV/en/financial_analysis;;Financial analysis
p10
aV/en/fluid_statics;;Fluid statics
p11
aV/en/life_support;;Life support, /en/environmentalism;;Environmentalism
p12
aV/en/flight_deck;;Flight deck
p13
aV/en/air_data_computer;;Air data computer
p14
aV/en/aircraft_flight_control_systems;;Aircraft flight control system
p15
aV/en/structural_system;;Structural system
p16
aV/en/risk_management;;Risk management, /en/management;;Management
p17
aV/en/connecticut;;Connecticut
p18
aa(lp19
a(lp20
V/en/fill_in;;Fill-In
p21
aV/en/standard_error;;Standard error
p22
aV/en/spectral_method;;Spectral method
p23
aV/en/multigrid_method;;Multigrid method
p24
aV/en/multipole_expansion;;Multipole expansion
p25
aa(lp26
V/en/integral_equation;;Integral equation
p27
aV/en/stress-strain_curve;;Stress\u2013strain curve, /en/navier-stokes_equations;;Navier\u2013Stokes equations, /en/boeing;;Boeing
p28
aV/en/airfoil;;Airfoil
p29
aV/en/lifting_line_theory;;Lifting-line theory
p30
aV/en/oblique_shock;;Oblique shock
p31
aV/en/navier-stokes_equations;;Navier\u2013Stokes equations
p32
aa(lp33
a(lp34
a(lp35
a(lp36
V/en/hydroelectricity;;Hydroelectricity
p37
aV/en/computer;;Computer
p38
aa(lp39
a(lp40
V/en/proportional_control;;Proportional control
p41
aV/en/singing;;Singing
p42
aV/en/phase_plane;;Phase plane
p43
aa(lp44
a(lp45
a(lp46
a(lp47
V/en/numerical_analysis;;Numerical analysis, /en/hippocampus;;Hippocampus
p48
aV/en/inventive_step_and_non-obviousness;;Inventive step and non-obviousness
p49
aV/en/crew_scheduling;;Crew scheduling, /en/hippocampus;;Hippocampus
p50
aV/en/wide_area_network;;Wide area network, /en/inventive_step_and_non-obviousness;;Inventive step and non-obviousness
p51
aV/en/anti-aircraft_warfare;;Anti-aircraft warfare
p52
aa(lp53
V/en/halloween_6;;Halloween 6
p54
aV/en/khmer_rouge_tribunal;;Cambodia Tribunal
p55
aV/en/convention_on_the_rights_of_the_child;;Convention on the Rights of the Child
p56
aV/en/trade_secret;;Trade secret
p57
aa(lp58
V/en/educational_aims_and_objectives;;Educational aims and objectives
p59
aV/en/diesel_engine;;Diesel engine
p60
aV/en/vortex;;Vortex
p61
aV/en/vorticity;;Vorticity, /en/compressible_flow;;Compressible flow, /en/conservative_party;;Conservative Party
p62
aV/en/compressible_flow;;Compressible flow, /en/conservative_party;;Conservative Party
p63
aV/en/lost_work;;Lost work
p64
aV/en/fluid_mechanics;;Fluid mechanics
p65
aa(lp66
V/en/conditional_probability;;Conditional probability
p67
aV/en/probability_density_function;;Probability density function
p68
aV/en/markov_chain;;Markov chain
p69
aa(lp70
a(lp71
a(lp72
a(lp73
a(lp74
V/en/electronic_amplifier;;Amplifier
p75
aa(lp76
a(lp77
a(lp78
V/en/defender;;Defender
p79
aV/en/microelectromechanical_systems;;Microelectromechanical systems
p80
aV/en/fuel_cell;;Fuel cell, /en/auxiliary_power_unit;;Auxiliary power unit, /en/hydraulics;;Hydraulics
p81
aV/en/space_shuttle_challenger_disaster;;Space Shuttle Challenger disaster
p82
aV/en/hvac;;HVAC
p83
aV/en/space_shuttle;;Space Shuttle program
p84
aV/en/electronic_amplifier;;Amplifier, /en/cnbc;;CNBC
p85
aa(lp86
a(lp87
a(lp88
V/en/discounted_cash_flow;;Discounted cash flow
p89
aV/en/weighted_average_cost_of_capital;;Weighted average cost of capital, /en/capital_asset_pricing_model;;Capital asset pricing model
p90
aV/en/production_function;;Production function
p91
aV/en/economies_of_scale;;Economies of scale
p92
aV/en/economies_of_scale;;Economies of scale
p93
aV/en/marginalism;;Marginalism
p94
aV/en/bayesian_inference;;Bayesian inference
p95
aV/en/value_of_information;;Value of information
p96
aV/en/dynamic_programming;;Dynamic programming
p97
aV/en/high-definition_television;;High-definition television, /en/hydroelectricity;;Hydroelectricity
p98
aa(lp99
V/en/fluid_statics;;Fluid statics
p100
aV/en/celestial_coordinate_system;;Celestial coordinate system, /en/euler_angles;;Euler angles
p101
aV/en/control_theory;;Control theory
p102
aV/en/inertial_measurement_unit;;Inertial measurement unit
p103
aV/en/system_identification;;System identification
p104
aV/en/statistical_model_validation;;Regression model validation
p105
aa(lp106
a(lp107
V/en/tom_hutton_1972;;Tom Hutton
p108
aV/en/chief_executive_officer;;Chief Executive Officer
p109
aV/en/mike_ryan;;Mike Ryan
p110
aV/en/paul_winter;;Paul Winter
p111
aV/en/jan_klein;;Jan Klein
p112
aV/en/peter_pace;;Peter Pace
p113
aV/en/john_boyd;;John Boyd
p114
aV/en/dick_hunter;;Dick Hunter
p115
aV/en/bret_smith;;Bret Smith
p116
aV/en/vic_firth;;Vic Firth
p117
aV/en/william_m_dalton;;William M. Dalton
p118
aV/en/john_m_deutch;;John M. Deutch
p119
aV/en/buzz_hargrove;;Buzz Hargrove
p120
aV/en/john_boyd;;John Boyd
p121
aV/en/jan_klein;;Jan Klein
p122
aV/en/greg_collins;;Greg Collins
p123
aV/en/dick_hunter;;Dick Hunter
p124
aV/en/john_boyd;;John Boyd
p125
aa(lp126
V/en/circulatory_system;;Circulatory system
p127
aV/en/artificial_gravity;;Artificial gravity
p128
aV/en/extra-vehicular_activity;;Extra-vehicular activity
p129
aa(lp130
a(lp131
V/en/spacecraft;;Spacecraft
p132
aa(lp133
V/en/lean_manufacturing;;Lean manufacturing, /en/lean_manufacturing;;Lean manufacturing
p134
aV/en/supply_chain_management;;Supply chain management, /en/supply_chain_management;;Supply chain management, /en/strategic_alliance;;Strategic alliance
p135
aV/en/jbpm;;JBPM
p136
aV/en/lean_manufacturing;;Lean manufacturing
p137
aV/en/people;;People, /en/organizational_culture;;Organizational culture
p138
aV/en/enterprise_information_system;;Enterprise information system
p139
aV/en/knowledge_management;;Knowledge management
p140
aV/en/transformational_leadership;;Transformational leadership
p141
aV/en/enterprise_engineering;;Enterprise engineering
p142
aV/en/enterprise_integration;;Enterprise integration, /en/risk_management;;Risk management, /en/global_warming;;Global warming
p143
aa(lp144
V/en/area_control_center;;Area Control Center
p145
aa(lp146
a(lp147
V/en/software_development_process;;Software development process
p148
aV/en/computer_software;;Software, /en/car_safety;;Automobile safety
p149
aa(lp150
V/en/task_analysis;;Task analysis
p151
aV/en/history;;History, /en/human_genome_project;;Human Genome Project
p152
aV/en/random_access_memory;;Random-access memory
p153
aV/en/presentation_of_a_group;;Presentation of a group
p154
aV/en/info-gap_decision_theory;;Info-gap decision theory, /en/bayes_theorem;;Bayes' theorem
p155
aV/en/detection_theory;;Detection theory, /en/information_theory;;Information theory
p156
aV/en/judgment_under_uncertainty_heuristics_and_biases;;Judgment Under Uncertainty: Heuristics and Biases
p157
aV/en/naturalistic_decision_making;;Naturalistic decision-making
p158
aV/en/situational_awareness;;Situation awareness
p159
aV/en/research;;Research, /en/design_of_experiments;;Design of experiments
p160
aV/en/air_traffic_control;;Air traffic control
p161
aV/en/nuclear_weapon;;Nuclear weapon
p162
aV/en/human_genome_project;;Human Genome Project
p163
aa(lp164
V/en/rocket_engine;;Rocket engine
p165
aV/en/watercooling;;Water cooling
p166
aV/en/thermal_radiation;;Thermal radiation
p167
aV/en/liquid_rocket_propellants;;Liquid rocket propellants
p168
aV/en/the_o2;;The O2
p169
aa(lp170
a(lp171
a(lp172
a(lp173
a(lp174
V/en/littles_law;;Little's law
p175
aV/en/congestion_pricing;;Congestion pricing
p176
aV/en/queueing_theory;;Queueing theory
p177
aV/en/edge_cover;;Edge cover
p178
aa(lp179
a(lp180
V/en/sensitivity_analysis;;Sensitivity analysis
p181
aV/en/simulated_annealing;;Simulated annealing
p182
aV/en/multiobjective_optimization;;Multi-objective optimization
p183
aa(lp184
V/en/degrees_of_freedom;;Degrees of freedom, /en/linear_motion;;Linear motion
p185
aV/en/coordinate_system;;Coordinate system
p186
aV/en/impulse;;Impulse
p187
aV/en/momentum;;Momentum
p188
aV/en/energy;;Energy
p189
aV/en/potential_energy;;Potential energy
p190
aV/en/orbital_maneuver;;Orbital maneuver
p191
aV/en/normal_mode;;Normal mode, /en/fundamental_frequency;;Fundamental frequency
p192
aV/en/energy;;Energy
p193
aV/en/equation_of_motion;;Equations of motion
p194
aV/en/eulers_equations;;Euler's equations
p195
aV/en/inertial_guidance_system;;Inertial navigation system
p196
aa(lp197
a(lp198
V/en/nasa;;NASA
p199
aV/en/risk_management;;Risk management
p200
aV/en/air_traffic_control;;Air traffic control
p201
aV/en/mac_os;;Mac OS
p202
aa(lp203
V/en/thiokol;;Thiokol
p204
aV/en/astrodynamics;;Orbital mechanics
p205
aV/en/outer_space;;Outer space
p206
aV/en/electromagnetic_formation_flight;;Electromagnetic Formation Flight
p207
aV/en/telemetry;;Telemetry
p208
aV/en/communications_satellite;;Communications satellite
p209
aa(lp210
V/en/finite_difference_method;;Finite difference method
p211
aV/en/latin_hypercube_sampling;;Latin hypercube sampling
p212
aV/en/response_surface_methodology;;Response surface methodology
p213
aV/en/cnbc;;CNBC
p214
aa(lp215
V/en/space_warfare;;Space warfare
p216
aV/en/space_warfare;;Space warfare
p217
aV/en/space_warfare;;Space warfare
p218
aV/en/space_warfare;;Space warfare
p219
aV/en/space_warfare;;Space warfare
p220
aa(lp221
a(lp222
V/en/littles_law;;Little's law
p223
aV/en/congestion_pricing;;Congestion pricing
p224
aV/en/queueing_theory;;Queueing theory
p225
aV/en/edge_cover;;Edge cover
p226
aa(lp227
a(lp228
a(lp229
a(lp230
a(lp231
V/en/cumulant;;Cumulant
p232
aV/en/orthogonal_polynomials;;Orthogonal polynomials
p233
aV/en/tracy_widom_distribution;;Tracy\u2013Widom distribution
p234
aV/en/free_probability;;Free probability
p235
aV/en/representation_theory_of_the_symmetric_group;;Representation theory of the symmetric group, /en/free_probability;;Free probability
p236
aV/en/graph_coloring;;Graph coloring
p237
aa(lp238
a.