(dp0
S'Elements of Software Construction'
p1
(lp2
S'Lec #1: Static checking'
p3
aS'Lec #2: Test-first programming'
p4
aS'Lec #3: Specifications'
p5
aS'Lec #4: State machines'
p6
aS'Lec #5: Regular expressions and grammars'
p7
aS'Lec #6: Abstract data types'
p8
aS'Lec #7: Recursive data types'
p9
aS'Lec #8: Interpreters and visitors'
p10
aS'Lec #9: Review'
p11
aS'Team worktime (no class)'
p12
aS'TA/team meetings'
p13
aS'Team worktime'
p14
aS'Lec #10: Concurrency'
p15
aS'Lec #11: Processes and sockets'
p16
aS'Lec #12: Thread safety'
p17
aS'Lec #13: Synchronization'
p18
aS'Lec #14: Graphical user interfaces'
p19
aS'Lec #15: Map, filter, reduce'
p20
aS'Lec #16: Little languages'
p21
aS'Team worktime'
p22
aS'Team worktime'
p23
aS'Team worktime'
p24
aS'TA/team meetings'
p25
aS'Team worktime'
p26
aS'TA/team meetings'
p27
aS'Team worktime'
p28
aS'Conclusion'
p29
asS'Physics II: Electricity and Magnetism'
p30
(lp31
S'Introduction to TEAL; Fields; Review of gravity; Electric field'
p32
aS'Electric charge; Electric fields; Dipoles; Continuous charge distributions'
p33
aS'Coordinate systems; Gradients; Line and surface integrals'
p34
aS'Working in groups, electric potential, E from V'
p35
aS'Electric potential, equipotentials'
p36
aS'Continuous charge distributions'
p37
aS"Gauss's law"
p38
aS"Gauss's law (cont.)"
p39
aS'Conductors and capacitors'
p40
aS'Capacitors'
p41
aS'Capacitors (cont.)'
p42
aS'Current, Resistance, and DC circuits'
p43
aS'Exam 1 information'
p44
aS"Magnetic fields: Creating magnetic fields - Ampere's Law"
p45
aS"Ampere's law"
p46
aS'Magnetic fields: Feeling magnetic fields - charges and dipoles'
p47
aS'Magnetic levitation; Magnetic forces on dipoles'
p48
aS'Magnetic fields: Force and torque on a current loop'
p49
aS"Faraday's law"
p50
aS"Faraday's law (cont.)"
p51
aS'Mutual inductance and transformers; Inductors'
p52
aS'Inductors and magnetic energy; RL circuits'
p53
aS'Exam 2 information'
p54
aS'RC and RL circuits'
p55
aS'RC and RL circuits (cont.)'
p56
aS'LC, and undriven LRC circuits'
p57
aS'Driven LRC circuits'
p58
aS'Driven LRC circuits (cont.)'
p59
aS"Maxwell's equations, EM radiation and energy flow"
p60
aS"Maxwell's equations, EM radiation and energy flow (cont.)"
p61
aS'EM radiation'
p62
aS'Generating EM radiation'
p63
aS'Exam 3 information'
p64
aS'Interference'
p65
aS'Final exam'
p66
asS'Design and Analysis of Algorithms'
p67
(lp68
S'Introduction, median finding, solving recurrences'
p69
aS'Median finding, interval scheduling'
p70
aS"Greedy algorithms, minimum spanning trees: Kruskal's"
p71
aS"Minimum spanning trees: Prim's"
p72
aS'Fast Fourier transform'
p73
aS'Dynamic programming, all pairs shortest paths: Floyd-Warshall'
p74
aS"All-pairs shortest paths II: Johnson's"
p75
aS'Quiz 1'
p76
aS'Randomized algorithms'
p77
aS'Randomized algorithms, high probability bounds'
p78
aS'Hashing'
p79
aS'Amortized analysis'
p80
aS'Competitive analysis'
p81
aS'Network flows'
p82
aS'Preparation for take-home exam'
p83
aS'Quiz 2 (take-home)'
p84
aS'van Emde Boas data structure'
p85
aS'Advanced data structures: disjoint sets'
p86
aS'P vs. NP'
p87
aS'Approximation algorithms'
p88
aS'Compression'
p89
aS'Sub-linear time algorithms'
p90
aS'Clustering'
p91
aS'Derandomization'
p92
aS'Computational geometry'
p93
asS'Aerodynamics'
p94
(lp95
S'Integral Equations, Lift and Drag'
p96
aS'Kinematics, Stress-strain, and Navier-Stokes Equations \n\nWright Brothers Wind Tunnel Tests\n\nAerodynamic Design of BWB - Lecture by Bob Liebeck, The Boeing Company'
p97
aS'2-D Potential Flow'
p98
aS'2-D Panel Methods'
p99
aS'Thin Airfoil Theory and Vortex Lattice Methods'
p100
aS'Lifting Line and High Aspect Ratio Wings'
p101
aS'Compressibility and Quasi 1D Flow'
p102
aS'Oblique Shock Waves and Expansion Fans \n\nMid-term Oral Exams'
p103
aS'Navier-Stokes Equations'
p104
aS'Boundary Layers: Laminar'
p105
aS'Boundary Layers: Laminar (cont.) and Separation'
p106
aS'Boundary Layers: Transition and Turbulence'
p107
aS'Boundary Layers: Turbulent Flow Modeling'
p108
aS'Airfoil Design'
p109
aS'Final Topics and Summary'
p110
aS'Oral Exams'
p111
asS'Thermal Energy'
p112
(lp113
S'Prelude: Introduction and Review of Unified Engineering Thermodynamics'
p114
aS'The Second Law of Thermodynamics'
p115
aS'Background to the Second Law of Thermodynamics'
p116
aS'The Second Law of Thermodynamics'
p117
aS'Applications of the Second Law'
p118
aS'Applications of Thermodynamics to Engineering Systems'
p119
aS'Gas Power and Propulsion Cycles'
p120
aS'Power Cycles with Two-Phase Media (Vapor Power Cycles)'
p121
aS'Introduction to Thermochemistry'
p122
aS'Fundamentals of Heat Transfer'
p123
aS'Introduction to Conduction Heat Transfer'
p124
aS'Introduction to Convection Heat Transfer'
p125
aS'Applications of the Concepts: Heat Exchangers'
p126
aS'Introduction to Thermal Radiation and Radiation Heat Transfer'
p127
asS'Introduction to Aerospace Engineering and Design'
p128
(lp129
S'Introduction: What is Engineering?'
p130
aS'Design\r\n            The Scale of the Things'
p131
aS'Aerodynamics'
p132
aS'Aerodynamics/Performance'
p133
aS'Aircraft Performance'
p134
aS'Design Drawing Structures'
p135
aS'Lighter-Than-Air Vehicle (PDF)\r\n            Human-Powered Flight\r\n            Decavitator: Human-Powered Hydrofoil\r\n            Daedalus: Human-Powered Aircraft\r\n            Paper Airplane Flights'
p136
aS'Teamwork\r\n            Delta Design Exercise'
p137
aS'Delta Design Exercise'
p138
aS'Propulsion/Electronics'
p139
aS'Stability and Control'
p140
aS'Design Day (LTA Design Kits handed out)'
p141
aS'Preliminary Design Review (PDR)'
p142
aS'Ethics in Engineering'
p143
aS'Astronautics: the Space Environment'
p144
aS'Personal Design Portfolio Day'
p145
aS'Orbital Mechanics'
p146
aS'Satellite Design'
p147
aS'Design Day'
p148
aS'Critical/Completed Design Review (CDR)'
p149
aS'Extravehicular Activity (EVA)'
p150
aS'Design Day'
p151
aS'LTA Vehicle Race Trials'
p152
aS'Space Flight Experiments and Robotics'
p153
aS'LTA Vehicle Race Day'
p154
aS'LTA Vehicle Awards Course Wrap-Up'
p155
asS'Exploring Sea, Space, & Earth: Fundamentals of Engineering Design'
p156
(lp157
S'Class overview Introduction to engineering and the design process, engineering drawing, sketching, back of the envelope calculations'
p158
aS"Basic design analysis Free body diagrams, Newton's laws"
p159
aS"Electronics and water: two great tastes that don't taste so great together\xe2\x80\xa6 Exploration with instrumentation"
p160
aS'Hydrostatics, pressure and water proofing'
p161
aS'Holiday - no lecture'
p162
aS'Design brainstorming, project ideas, Solidworks repository development'
p163
aS'Motors and electronics Guest lecturer: Prof. Steven Leeb'
p164
aS'Design analysis, error estimation, data presentation Propulsion: power vs. thrust and efficiency'
p165
aS'Engineering ethics and using your best judgment'
p166
aS'Communicating engineering design Promoting your ideas/inventions'
p167
aS'Exploration on the Moon: mission planning for EVA and geology, part 1 Guest lecturer: Prof. Dava Newman'
p168
aS'Exploration adventure part 2 Guest lecturer: Prof. Dava Newman'
p169
aS'Student presentations: in-class design review'
p170
aS'Design iterations, recalculations'
p171
aS'Cool robots and bomb disposal'
p172
aS'Bio-robots, gecko feet, and cool stuff!'
p173
aS'Engineering and society'
p174
aS'Guest lecture'
p175
aS'Pool testing at the Z-Center'
p176
aS'Engineering at MIT: choice of majors'
p177
aS'No class, optional Boston Harbor Day trip + lunch'
p178
aS'Guest lecturer: Prof. Steve Dubowsky, mobile robots'
p179
aS'Guest lecturer: Prof. Sangbae Kim, bio-inspired design'
p180
aS'Engineering after MIT: grad school, consulting, FE exam, professional engineers certification, internships'
p181
aS'Guest lecturer: Dr. Sheri White, underwater exploration'
p182
aS'Guest lecturer: Prof. Jeff Hoffman, aerospace engineering design'
p183
aS'Final student poster presentations'
p184
aS'Lab clean up, evaluations'
p185
asS'Principles of Automatic Control'
p186
(lp187
S'Course Introduction\n\nCourse Administration, Learning Objectives, Math Resources, Linear Algebra Quiz'
p188
aS'Introduction to Control Systems \n\nFirst Classification and Examples of Control Systems (Open and Closed Loop), Disturbances, Parameter Variations, Linearized Models and Block Diagrams'
p189
aS'Control System Analysis and Design\n\nControl System Analysis and Design, The Performance of\xc2\xa0a System, Motivations for Feedback, The Concept of Gain, Transfer Functions, Block Diagrams'
p190
aS'Disturbances and Sensitivity\n\nThe Performance of Feedback Systems, Motivations for Feedback, Sensitivity to Parameter Variations and Model Uncertainty, Sensitivity Functions, Effects of Disturbances'
p191
aS'Steady-State Errors\n\nSteady-State Errors, The Importance of Integrators as Fundamental Building Blocks and the Steady-State Disposition of Information in a Closed Loop System'
p192
aS'S-Plane, Poles and Zeroes\n\nTransient Performance and the S-Plane, Poles and Zeroes, Graphical Determination of Residues'
p193
aS'Transient Response and Stability\n\nSystem Stability, Pole Location and Time Response, First and Second Order System Signatures'
p194
aS'Dominant Modes\n\nConcept of a Dominant Mode, Invading Poles, High-Order Systems, The Importance of Magnitude of Residues and Time Constants of Terms'
p195
aS'Transient Response and Performance\n\nTransient Response Performance Criteria (aka Metrics), Sources of System Zeros, Feedback Poles and Closed Loop Zeros'
p196
aS'Effects of Zeroes\n\nThe Effects of Adding a Zero to Various Pole Patterns, The Long Tail'
p197
aS'State Space\n\nThe Concept of System State, State Vector Definition and State Space Representation of LTI Systems'
p198
aS'State Space Modeling\n\nState Space Model for an nth Order Differential Equation, State Space Models for Transfer Functions, Examples'
p199
aS'More State Space Modeling and Transfer Function Matrices\n\nTransfer Functions with Zeros, Laplace Transforms for Vector/Matrix Differential Equations'
p200
aS'Quanser Model and State Transition Matrices\n\nState Space Model of the Quanser, Homogeneous Solution of State Differential Equations and State Transition Matrices'
p201
aS'Solutions of State Space Differential Equations\n\nGeneral Solution of State Space Differential Equations, Quanser Example for Constant Input'
p202
aS'Controllability\n\nSimple Examples of Controllable and Uncontrollable Systems, Formal Definition of Controllability and Controllability Conditions for Single Input Systems'
p203
aS'Quiz 1\n\nLectures 1-15'
p204
aS'Controllability Continued\n\nControllability for Systems with Multiple Inputs'
p205
aS'State Space Design\n\nPole Assignment with Full State Feedback, Design with Sensor Feedback'
p206
aS'Proportional Control\n\nEffects of Proportional Control with First, Second and Third Order Systems, The Case for a Better Controller'
p207
aS'Control System Design (Time Domain)\n\nGeneral System Analysis in the Time Domain - Introduction to the Root Locus Method, Angle and Magnitude Conditions'
p208
aS'Root Locus Rules\n\nRoot Locus Rules'
p209
aS'Root Locus Examples\n\nRoot Locus Examples'
p210
aS'Root Locus Design\n\nRoot Loci and System Design, Pole-Zero Cancellation, Motor Position Servo with Velocity Feedback, Phase-Lead Compensator Design Using Root Loci'
p211
aS'Compensator Design\n\nPhase Lag Compensator Design Using Root Loci, Introduction to PID Control Using Root Loci'
p212
aS'Frequency Response Analysis\n\nSteady State System Responses to Sinusoidal Inputs, Second Order System Example'
p213
aS'Polar Plots\n\nFirst and Second Order Polar Plots, Other Examples'
p214
aS'Principle of the Argument and the Nyquist Stability Criterion\n\nDevelopment of the Nyquist Stability Criterion'
p215
aS'Nyquist Examples\n\nExamples'
p216
aS'More Nyquist Examples'
p217
aS'Quiz 2\n\nLectures 16-27'
p218
aS'Gain and Phase Margins\n\nThe Gain and Phase Margin Criteria and Examples'
p219
aS'The Gain-Phase Plane and Nichols Charts\n\nUse of Nichols Charts and Examples'
p220
aS'Open and Closed Loop Behavior and the Second Order System Paradigm\n\nFrequency Response Criteria Based on Second Order System Paradigm'
p221
aS'Bode Diagrams'
p222
aS'First and Second Order System Bode Diagrams'
p223
aS'Compensation and Bode Design'
p224
aS'More Bode Design'
p225
aS'Train Lecture'
p226
asS'Dynamics'
p227
(lp228
S'Introduction'
p229
aS'MATLAB\xc2\xae demo'
p230
aS'Degrees of freedom and constraints, rectilinear motion'
p231
aS'Vectors, matrices and coordinate transformations'
p232
aS'Curvilinear motion; Cartesian coordinates'
p233
aS'Recitation'
p234
aS'Other coordinate systems'
p235
aS'Intrinsic coordinates'
p236
aS'Relative motion using translating axes'
p237
aS'Recitation'
p238
aS'Relative motion using rotating axes'
p239
aS'Linear impulse and momentum; collisions'
p240
aS'Angular impulse and momentum for a particle'
p241
aS'Oral quiz 1'
p242
aS'Conservation laws for systems of particles'
p243
aS'Work and energy'
p244
aS'Conservative internal forces and potential energy'
p245
aS'Recitation'
p246
aS'Variable mass systems: the rocket equation'
p247
aS"Central force motion: Kepler's laws"
p248
aS'Central force motion: orbits'
p249
aS'Midterm 1'
p250
aS'Orbit transfers and interplanetary trajectories'
p251
aS'Exploring the neighborhood: the restricted three-body problem'
p252
aS'Vibration, normal modes, natural frequencies, instability'
p253
aS'Recitation'
p254
aS"Energy methods: Lagrange's equations"
p255
aS'2D rigid body dynamics'
p256
aS'2D rigid body dynamics: work and energy'
p257
aS'Recitation'
p258
aS'2D rigid body dynamics: impulse and momentum'
p259
aS'Pendulums'
p260
aS'Oral quiz 2'
p261
aS'3D rigid body kinematics'
p262
aS'3D rigid body dynamics: the inertia tensor'
p263
aS'Recitation'
p264
aS'3D rigid body dynamics: kinetic energy, instability, equations of motion'
p265
aS"3D rigid body dynamics: equations of motion; Euler's equations"
p266
aS'Midterm 2'
p267
aS'3D rigid body dynamics'
p268
aS'3D rigid body dynamics: tops and gyroscopes'
p269
aS'Oral quiz 3'
p270
aS'Inertial instruments and inertial navigation'
p271
as.