(dp0
S'http://ocw.mit.edu/courses/aeronautics-and-astronautics/16-050-thermal-energy-fall-2002/calendar/'
p1
(dp2
S'course'
p3
(lp4
NaNaNaNaNaNaNaNaNaNaNaNaNaNasS'title'
p5
V/en/thermal_energy;;Thermal energy
p6
ssS'http://ocw.mit.edu/courses/aeronautics-and-astronautics/16-13-aerodynamics-of-viscous-fluids-fall-2003/calendar/'
p7
(dp8
g3
(lp9
NaNaNaNaNaNaNaNaNaNaNaNaNaNaNaNaNaNaNaNaNaV/en/boundary_value_problem;;Boundary value problem
p10
aNaNaNaNaV/en/integrality;;Integral element
p11
aNaV/en/turbulence_modeling;;Turbulence modeling
p12
aV/en/high-definition_television;;High-definition television
p13
aNaNaNaV/en/well-posed_problem;;Well-posed problem
p14
aNaNaNasg5
NssS'http://ocw.mit.edu/courses/aeronautics-and-astronautics/16-885j-aircraft-systems-engineering-fall-2004/calendar/'
p15
(dp16
g3
(lp17
V/en/anti-aircraft_warfare;;Anti-aircraft warfare
p18
aNaNaV/en/financial_analysis;;Financial analysis
p19
aV/en/fluid_statics;;Fluid statics
p20
aNaNaNaNaNaNaNaV/en/life_support;;Life support, /en/environmentalism;;Environmentalism
p21
aV/en/flight_deck;;Flight deck
p22
aV/en/air_data_computer;;Air data computer
p23
aV/en/aircraft_flight_control_systems;;Aircraft flight control system
p24
aNaV/en/structural_system;;Structural system
p25
aNaNaNaNaV/en/risk_management;;Risk management, /en/management;;Management
p26
aNaV/en/connecticut;;Connecticut
p27
asg5
NssS'http://ocw.mit.edu/courses/aeronautics-and-astronautics/16-881-robust-system-design-summer-1998/calendar/'
p28
(dp29
g3
(lp30
NaNaNaNaNaNaNaNaNaNaNaNaNaNaNaNaNaNaNaNaNaNasg5
NssS'http://ocw.mit.edu/courses/electrical-engineering-and-computer-science/6-336j-introduction-to-numerical-simulation-sma-5211-fall-2003/calendar/'
p31
(dp32
g3
(lp33
NaNaNaV/en/fill_in;;Fill-In
p34
aNaNaNaNaNaNaNaNaNaNaNaNaNaNaV/en/standard_error;;Standard error
p35
aV/en/spectral_method;;Spectral method
p36
aV/en/multigrid_method;;Multigrid method
p37
aNaV/en/multipole_expansion;;Multipole expansion
p38
aNaNaNasg5
NssS'http://ocw.mit.edu/courses/aeronautics-and-astronautics/16-100-aerodynamics-fall-2005/calendar/'
p39
(dp40
g3
(lp41
V/en/integral_equation;;Integral equation
p42
aV/en/stress-strain_curve;;Stress\u2013strain curve, /en/navier-stokes_equations;;Navier\u2013Stokes equations, /en/boeing;;Boeing
p43
aNaNaV/en/airfoil;;Airfoil
p44
aV/en/lifting_line_theory;;Lifting-line theory
p45
aNaV/en/oblique_shock;;Oblique shock
p46
aV/en/navier-stokes_equations;;Navier\u2013Stokes equations
p47
aNaNaNaNaNaNaNasg5
NssS'http://ocw.mit.edu/courses/health-sciences-and-technology/hst-582j-biomedical-signal-and-image-processing-spring-2007/calendar/'
p48
(dp49
g3
(lp50
NaNaNaNaNaNaNaNaNaNaNaNaNaNaNaNaNaNaNaNaNaNaNaNaNaNaNaNaNaNaNaNaNaNaNaNaNaNaNasg5
V/en/biomedical_engineering;;Biomedical engineering, /en/image_processing;;Image processing
p51
ssS'http://ocw.mit.edu/courses/aeronautics-and-astronautics/16-75j-airline-management-spring-2006/calendar/'
p52
(dp53
g3
(lp54
NaNaNaNaNaNaNaNaNaNaNaNaNaNaNaNaNaNaNaNaNaNaNaNaNaNasg5
V/en/tui_travel_plc;;TUI Travel
p55
ssS'http://ocw.mit.edu/courses/aeronautics-and-astronautics/16-920j-numerical-methods-for-partial-differential-equations-sma-5212-spring-2003/calendar/'
p56
(dp57
g3
(lp58
NaNaNaNaNaNaNaNaNaNaNaNaNaNaNaNaNaNaNaNaNaNaNaNaNaNasg5
NssS'http://ocw.mit.edu/courses/aeronautics-and-astronautics/16-682-prototyping-avionics-spring-2006/calendar/'
p59
(dp60
g3
(lp61
NaV/en/hydroelectricity;;Hydroelectricity
p62
aNaV/en/computer;;Computer
p63
aNaNaNaNaNaNaNaNaNaNasg5
NssS'http://ocw.mit.edu/courses/aeronautics-and-astronautics/16-810-engineering-design-and-rapid-prototyping-january-iap-2005/calendar/'
p64
(dp65
g3
(lp66
NaNaNaNaNaNaNaNaNasg5
V/en/engineering;;Engineering, /en/rapid_prototyping;;Rapid prototyping
p67
ssS'http://ocw.mit.edu/courses/aeronautics-and-astronautics/16-30-estimation-and-control-of-aerospace-systems-spring-2004/calendar/'
p68
(dp69
g3
(lp70
NaNaNaNaNaNaNaNaNaV/en/proportional_control;;Proportional control
p71
aNaV/en/singing;;Singing
p72
aNaNaNaNaNaNaNaNaNaNaNaNaNaNaNaNaNaNaNaNaNaNaNaNaNaV/en/phase_plane;;Phase plane
p73
aNaNasg5
NssS'http://ocw.mit.edu/courses/aeronautics-and-astronautics/16-412j-cognitive-robotics-spring-2005/calendar/'
p74
(dp75
g3
(lp76
NaNaNaNaNaNaNaNaNaNaNaNaNaNaNaNaNaNaNaNaNaNaNaNaNaNasg5
V/en/cognitive_robotics;;Cognitive robotics
p77
ssS'http://ocw.mit.edu/courses/aeronautics-and-astronautics/16-812-the-aerospace-industry-spring-2004/calendar/'
p78
(dp79
g3
(lp80
NaNaNaNaNaNaNaNaNaNaNaNasg5
V/en/aerospace;;Aerospace
p81
ssS'http://ocw.mit.edu/courses/mechanical-engineering/2-00aj-exploring-sea-space-earth-fundamentals-of-engineering-design-spring-2009/study-materials/'
p82
(dp83
g3
(lp84
NaNaNaNaNaNaNaNaNaNaNaNaNaNaNaNaNaNaNaNaNaNaNaNaNaNaNaNasg5
V/en/nasa;;NASA
p85
ssS'http://ocw.mit.edu/courses/civil-and-environmental-engineering/1-206j-airline-schedule-planning-spring-2003/calendar/'
p86
(dp87
g3
(lp88
NaNaV/en/numerical_analysis;;Numerical analysis, /en/hippocampus;;Hippocampus
p89
aV/en/inventive_step_and_non-obviousness;;Inventive step and non-obviousness
p90
aNaV/en/crew_scheduling;;Crew scheduling, /en/hippocampus;;Hippocampus
p91
aNaV/en/wide_area_network;;Wide area network, /en/inventive_step_and_non-obviousness;;Inventive step and non-obviousness
p92
aV/en/anti-aircraft_warfare;;Anti-aircraft warfare
p93
aNaNasg5
NssS'http://ocw.mit.edu/courses/electrical-engineering-and-computer-science/6-901-inventions-and-patents-fall-2005/calendar/'
p94
(dp95
g3
(lp96
V/en/halloween_6;;Halloween 6
p97
aV/en/khmer_rouge_tribunal;;Cambodia Tribunal
p98
aNaV/en/convention_on_the_rights_of_the_child;;Convention on the Rights of the Child
p99
aV/en/trade_secret;;Trade secret
p100
aNaNaNaNasg5
NssS'http://ocw.mit.edu/courses/aeronautics-and-astronautics/16-540-internal-flows-in-turbomachines-spring-2006/calendar/'
p101
(dp102
g3
(lp103
V/en/educational_aims_and_objectives;;Educational aims and objectives
p104
aV/en/diesel_engine;;Diesel engine
p105
aV/en/vortex;;Vortex
p106
aV/en/vorticity;;Vorticity, /en/compressible_flow;;Compressible flow, /en/conservative_party;;Conservative Party
p107
aV/en/compressible_flow;;Compressible flow, /en/conservative_party;;Conservative Party
p108
aNaNaV/en/lost_work;;Lost work
p109
aNaNaNaNaNaNaNaNaNaNaV/en/fluid_mechanics;;Fluid mechanics
p110
aNaNasg5
NssS'http://ocw.mit.edu/courses/aeronautics-and-astronautics/16-322-stochastic-estimation-and-control-fall-2004/calendar/'
p111
(dp112
g3
(lp113
V/en/conditional_probability;;Conditional probability
p114
aV/en/probability_density_function;;Probability density function
p115
aNaNaNaNaNaNaNaNaNaNaNaNaNaNaNaNaNaNaNaNaV/en/markov_chain;;Markov chain
p116
aNaNaNaNaNaNasg5
NssS'http://ocw.mit.edu/courses/mathematics/18-996-random-matrix-theory-and-its-applications-spring-2004/calendar/'
p117
(dp118
g3
(lp119
NaNaNaNaNaNaNaNaNaNaNaNaNaNaNaNaNaNaNaNaNaNaNaNaNaNaNaNasg5
V/en/endoscopy;;Endoscopy
p120
ssS'http://ocw.mit.edu/courses/aeronautics-and-astronautics/16-20-structural-mechanics-fall-2002/calendar/'
p121
(dp122
g3
(lp123
NaNaNaNaNaNaNaNaNaNaNaNaNaNaNaNaNaNaNaNaNaNaNaNaNasg5
V/en/structural_mechanics;;Structural mechanics
p124
ssS'http://ocw.mit.edu/courses/aeronautics-and-astronautics/16-522-space-propulsion-spring-2004/calendar/'
p125
(dp126
g3
(lp127
NaNaNaNaNaNaNaNaNaNaNaNaNaNaNaNaNaNaNaNaNaNasg5
V/en/spacecraft_propulsion;;Spacecraft propulsion
p128
ssS'http://ocw.mit.edu/courses/aeronautics-and-astronautics/16-61-aerospace-dynamics-spring-2003/calendar/'
p129
(dp130
g3
(lp131
NaNaNaNaNaNaNaNaNaNaNaNaNaNaNaNaNaNaNaNaNaNaNaNaNasg5
V/en/british_aerospace;;British Aerospace
p132
ssS'http://ocw.mit.edu/courses/aeronautics-and-astronautics/16-622-experimental-projects-ii-fall-2003/calendar/'
p133
(dp134
g3
(lp135
NaNaNaNaNaNaNaNaNaNaNaNaNaNaV/en/electronic_amplifier;;Amplifier
p136
asg5
NssS'http://ocw.mit.edu/courses/aeronautics-and-astronautics/16-30-feedback-control-systems-fall-2010/calendar/'
p137
(dp138
g3
(lp139
NaNaNaNaNaNaNaNaNaNaNaNaNaNaNaNaNaNaNaNaNaNaNaNaNaNasg5
V/en/control_engineering;;Control engineering
p140
ssS'http://ocw.mit.edu/courses/aeronautics-and-astronautics/16-01-unified-engineering-i-ii-iii-iv-fall-2005-spring-2006/calendar/'
p141
(dp142
g3
(lp143
NaNaNaNaNaNaNaNaNaNaNaNaNaNaNaNaNaNaNaNaNaNaNaNaNaNaNaNaNaNaNaNaNaNaNaNaNaNaNaNaNaNaNaNaNaNaNaNaNaNaNaNaNaNaNaNaNaNaNaNaNaNaNaNaNaNaNaNaNaNaNaNaNaNaNaNaNaNaNaNaNaNaNaNaNaNaNaNaNaNaNaNaNaNaNaNaNaNaNaNaNaNaNaNaNaNaNaNaNaNaNaNaNaNaNaNaNaNaNaNaNaNaNaNaNaNaNaNaNaNaNaNaNaNasg5
V/en/listed_building;;Listed building, /en/daicon_iii_and_iv_opening_animations;;Daicon III and IV Opening Animations
p144
ssS'http://ocw.mit.edu/courses/aeronautics-and-astronautics/16-885j-aircraft-systems-engineering-fall-2005/calendar/'
p145
(dp146
g3
(lp147
NaNaNaNaNaNaV/en/defender;;Defender
p148
aV/en/microelectromechanical_systems;;Microelectromechanical systems
p149
aV/en/fuel_cell;;Fuel cell, /en/auxiliary_power_unit;;Auxiliary power unit, /en/hydraulics;;Hydraulics
p150
aV/en/space_shuttle_challenger_disaster;;Space Shuttle Challenger disaster
p151
aNaNaV/en/hvac;;HVAC
p152
aNaV/en/space_shuttle;;Space Shuttle program
p153
aNaNaNaNaNaNaNaV/en/electronic_amplifier;;Amplifier, /en/cnbc;;CNBC
p154
asg5
NssS'http://ocw.mit.edu/courses/aeronautics-and-astronautics/16-863j-system-safety-spring-2011/calendar/'
p155
(dp156
g3
(lp157
NaNaNaNaNaNaNaNaNaNaNaNaNasg5
V/en/car_safety;;Automobile safety
p158
ssS'http://ocw.mit.edu/courses/aeronautics-and-astronautics/16-a47-the-engineer-of-2020-fall-2009/calendar/'
p159
(dp160
g3
(lp161
NaNaNaNaNaNaNaNaNaNaNaNasg5
NssS'http://ocw.mit.edu/courses/engineering-systems-division/esd-71-engineering-systems-analysis-for-design-fall-2008/calendar/'
p162
(dp163
g3
(lp164
NaV/en/discounted_cash_flow;;Discounted cash flow
p165
aNaNaV/en/weighted_average_cost_of_capital;;Weighted average cost of capital, /en/capital_asset_pricing_model;;Capital asset pricing model
p166
aV/en/production_function;;Production function
p167
aV/en/economies_of_scale;;Economies of scale
p168
aNaV/en/economies_of_scale;;Economies of scale
p169
aV/en/marginalism;;Marginalism
p170
aNaV/en/bayesian_inference;;Bayesian inference
p171
aNaNaNaNaNaV/en/value_of_information;;Value of information
p172
aNaNaNaNaNaNaNaNaV/en/dynamic_programming;;Dynamic programming
p173
aNaNaNaNaNaV/en/high-definition_television;;High-definition television, /en/hydroelectricity;;Hydroelectricity
p174
aNaNaNasg5
NssS'http://ocw.mit.edu/courses/aeronautics-and-astronautics/16-333-aircraft-stability-and-control-fall-2004/calendar/'
p175
(dp176
g3
(lp177
NaV/en/fluid_statics;;Fluid statics
p178
aV/en/celestial_coordinate_system;;Celestial coordinate system, /en/euler_angles;;Euler angles
p179
aNaNaNaNaNaNaV/en/control_theory;;Control theory
p180
aNaNaNaNaV/en/inertial_measurement_unit;;Inertial measurement unit
p181
aV/en/system_identification;;System identification
p182
aV/en/statistical_model_validation;;Regression model validation
p183
asg5
NssS'http://ocw.mit.edu/courses/aeronautics-and-astronautics/16-225-computational-mechanics-of-materials-fall-2003/calendar/'
p184
(dp185
g3
(lp186
NaNaNaNaNaNaNaNaNaNaNaNaNaNaNaNaNaNaNaNaNaNaNaNaNaNasg5
V/en/computational_mechanics;;Computational mechanics
p187
ssS'http://ocw.mit.edu/courses/sloan-school-of-management/15-792j-proseminar-in-manufacturing-fall-2005/calendar/'
p188
(dp189
g3
(lp190
NaNaNaNaV/en/tom_hutton_1972;;Tom Hutton
p191
aNaV/en/chief_executive_officer;;Chief Executive Officer
p192
aV/en/mike_ryan;;Mike Ryan
p193
aNaNaNaV/en/paul_winter;;Paul Winter
p194
aV/en/jan_klein;;Jan Klein
p195
aNaNaV/en/peter_pace;;Peter Pace
p196
aNaNaNaNaNaNaNaV/en/john_boyd;;John Boyd
p197
aV/en/dick_hunter;;Dick Hunter
p198
aNaV/en/bret_smith;;Bret Smith
p199
aNaV/en/vic_firth;;Vic Firth
p200
aNaNaNaNaNaNaNaNaNaV/en/william_m_dalton;;William M. Dalton
p201
aNaNaNaNaNaV/en/john_m_deutch;;John M. Deutch
p202
aV/en/buzz_hargrove;;Buzz Hargrove
p203
aV/en/john_boyd;;John Boyd
p204
aNaNaNaV/en/jan_klein;;Jan Klein
p205
aNaNaNaV/en/greg_collins;;Greg Collins
p206
aNaNaNaV/en/dick_hunter;;Dick Hunter
p207
aNaNaNaNaNaV/en/john_boyd;;John Boyd
p208
aNaNaNaNaNaNaNasg5
NssS'http://ocw.mit.edu/courses/aeronautics-and-astronautics/16-423j-aerospace-biomedical-and-life-support-engineering-spring-2006/calendar/'
p209
(dp210
g3
(lp211
NaNaNaNaNaNaNaNaNaV/en/circulatory_system;;Circulatory system
p212
aNaNaV/en/artificial_gravity;;Artificial gravity
p213
aV/en/extra-vehicular_activity;;Extra-vehicular activity
p214
aNaNaNasg5
NssS'http://ocw.mit.edu/courses/aeronautics-and-astronautics/16-810-engineering-design-and-rapid-prototyping-january-iap-2007/calendar/'
p215
(dp216
g3
(lp217
NaNaNaNaNaNaNaNasg5
V/en/engineering;;Engineering, /en/rapid_prototyping;;Rapid prototyping
p218
ssS'http://ocw.mit.edu/courses/aeronautics-and-astronautics/16-892j-space-system-architecture-and-design-fall-2004/calendar/'
p219
(dp220
g3
(lp221
V/en/spacecraft;;Spacecraft
p222
aNaNaNaNaNaNaNaNaNaNaNasg5
NssS'http://ocw.mit.edu/courses/aeronautics-and-astronautics/16-852j-integrating-the-lean-enterprise-fall-2005/calendar/'
p223
(dp224
g3
(lp225
NaNaNaNaV/en/lean_manufacturing;;Lean manufacturing, /en/lean_manufacturing;;Lean manufacturing
p226
aNaV/en/supply_chain_management;;Supply chain management, /en/supply_chain_management;;Supply chain management, /en/strategic_alliance;;Strategic alliance
p227
aV/en/jbpm;;JBPM
p228
aV/en/lean_manufacturing;;Lean manufacturing
p229
aNaV/en/people;;People, /en/organizational_culture;;Organizational culture
p230
aNaNaV/en/enterprise_information_system;;Enterprise information system
p231
aV/en/knowledge_management;;Knowledge management
p232
aV/en/transformational_leadership;;Transformational leadership
p233
aV/en/enterprise_engineering;;Enterprise engineering
p234
aNaV/en/enterprise_integration;;Enterprise integration, /en/risk_management;;Risk management, /en/global_warming;;Global warming
p235
aNaNaNaNasg5
NssS'http://ocw.mit.edu/courses/aeronautics-and-astronautics/16-72-air-traffic-control-fall-2006/calendar/'
p236
(dp237
g3
(lp238
NaNaNaNaNaNaNaNaNaNaNaNaNaV/en/area_control_center;;Area Control Center
p239
aNaNaNaNaNaNaNaNaNaNaNaNasg5
V/en/air_traffic_control;;Air traffic control
p240
ssS'http://ocw.mit.edu/courses/electrical-engineering-and-computer-science/6-241j-dynamic-systems-and-control-spring-2011/calendar/'
p241
(dp242
g3
(lp243
NaNaNaNaNaNaNaNaNaNaNaNaNaNaNaNaNaNaNaNaNaNaNaNasg5
V/en/dynamical_system;;Dynamical system
p244
ssS'http://ocw.mit.edu/courses/aeronautics-and-astronautics/16-355j-software-engineering-concepts-fall-2005/calendar/'
p245
(dp246
g3
(lp247
NaV/en/software_development_process;;Software development process
p248
aNaNaNaNaNaNaNaNaV/en/computer_software;;Software, /en/car_safety;;Automobile safety
p249
aNasg5
NssS'http://ocw.mit.edu/courses/aeronautics-and-astronautics/16-422-human-supervisory-control-of-automated-systems-spring-2004/calendar/'
p250
(dp251
g3
(lp252
NaNaV/en/task_analysis;;Task analysis
p253
aV/en/history;;History, /en/human_genome_project;;Human Genome Project
p254
aV/en/random_access_memory;;Random-access memory
p255
aV/en/presentation_of_a_group;;Presentation of a group
p256
aNaV/en/info-gap_decision_theory;;Info-gap decision theory, /en/bayes_theorem;;Bayes' theorem
p257
aV/en/detection_theory;;Detection theory, /en/information_theory;;Information theory
p258
aV/en/judgment_under_uncertainty_heuristics_and_biases;;Judgment Under Uncertainty: Heuristics and Biases
p259
aV/en/naturalistic_decision_making;;Naturalistic decision-making
p260
aV/en/situational_awareness;;Situation awareness
p261
aNaNaNaV/en/research;;Research, /en/design_of_experiments;;Design of experiments
p262
aNaV/en/air_traffic_control;;Air traffic control
p263
aNaNaNaNaV/en/nuclear_weapon;;Nuclear weapon
p264
aV/en/human_genome_project;;Human Genome Project
p265
aNaNasg5
NssS'http://ocw.mit.edu/courses/aeronautics-and-astronautics/16-512-rocket-propulsion-fall-2005/calendar/'
p266
(dp267
g3
(lp268
NaV/en/rocket_engine;;Rocket engine
p269
aNaNaNaNaNaV/en/watercooling;;Water cooling
p270
aNaV/en/thermal_radiation;;Thermal radiation
p271
aNaNaNaNaNaNaV/en/liquid_rocket_propellants;;Liquid rocket propellants
p272
aNaNaNaNaNaNaNaNaNaNaNaNaNaNaNaNaV/en/the_o2;;The O2
p273
asg5
NssS'http://ocw.mit.edu/courses/aeronautics-and-astronautics/16-400-human-factors-engineering-fall-2011/calendar/'
p274
(dp275
g3
(lp276
NaNaNaNaNaNaNaNaNaNaNaNaNaNaNaNaNaNaNaNaNaNasg5
V/en/ergonomics;;Human factors and ergonomics
p277
ssS'http://ocw.mit.edu/courses/aeronautics-and-astronautics/16-621-experimental-projects-i-spring-2003/calendar/'
p278
(dp279
g3
(lp280
NaNaNaNaNaNaNaNaNaNaNaNaNaNasg5
NssS'http://ocw.mit.edu/courses/electrical-engineering-and-computer-science/6-243j-dynamics-of-nonlinear-systems-fall-2003/calendar/'
p281
(dp282
g3
(lp283
NaNaNaNaNaNaNaNaNaNaNaNaNasg5
V/en/nonlinearity;;Nonlinear system
p284
ssS'http://ocw.mit.edu/courses/aeronautics-and-astronautics/16-842-fundamentals-of-systems-engineering-fall-2009/calendar/'
p285
(dp286
g3
(lp287
NaNaNaNaNaNaNaNaNaNaNaNaNasg5
V/en/systems_engineering;;Systems engineering
p288
ssS'http://ocw.mit.edu/courses/civil-and-environmental-engineering/1-203j-logistical-and-transportation-planning-methods-fall-2004/calendar/'
p289
(dp290
g3
(lp291
NaNaNaNaNaNaNaNaV/en/littles_law;;Little's law
p292
aNaNaNaNaV/en/congestion_pricing;;Congestion pricing
p293
aV/en/queueing_theory;;Queueing theory
p294
aNaNaNaNaV/en/edge_cover;;Edge cover
p295
aNaNaNaNaNaNasg5
NssS'http://ocw.mit.edu/courses/electrical-engineering-and-computer-science/6-263j-data-communication-networks-fall-2002/calendar/'
p296
(dp297
g3
(lp298
NaNaNaNaNaNaNaNaNaNaNaNaNaNaNaNaNaNaNaNaNaNaNaNaNaNasg5
V/en/computer_network;;Computer network
p299
ssS'http://ocw.mit.edu/courses/engineering-systems-division/esd-77-multidisciplinary-system-design-optimization-spring-2010/calendar/'
p300
(dp301
g3
(lp302
NaNaNaNaNaNaNaNaV/en/sensitivity_analysis;;Sensitivity analysis
p303
aV/en/simulated_annealing;;Simulated annealing
p304
aNaNaNaNaV/en/multiobjective_optimization;;Multi-objective optimization
p305
aNaNaNaNaNaNaNaNaNaNaNasg5
NssS'http://ocw.mit.edu/courses/aeronautics-and-astronautics/16-07-dynamics-fall-2009/calendar/'
p306
(dp307
g3
(lp308
NaNaV/en/degrees_of_freedom;;Degrees of freedom, /en/linear_motion;;Linear motion
p309
aV/en/coordinate_system;;Coordinate system
p310
aNaNaNaNaNaNaNaV/en/impulse;;Impulse
p311
aV/en/momentum;;Momentum
p312
aNaNaV/en/energy;;Energy
p313
aV/en/potential_energy;;Potential energy
p314
aNaNaNaNaNaV/en/orbital_maneuver;;Orbital maneuver
p315
aNaV/en/normal_mode;;Normal mode, /en/fundamental_frequency;;Fundamental frequency
p316
aNaNaNaV/en/energy;;Energy
p317
aNaNaNaNaNaNaNaV/en/equation_of_motion;;Equations of motion
p318
aV/en/eulers_equations;;Euler's equations
p319
aNaNaNaNaV/en/inertial_guidance_system;;Inertial navigation system
p320
asg5
NssS'http://ocw.mit.edu/courses/aeronautics-and-astronautics/16-120-compressible-flow-spring-2003/calendar/'
p321
(dp322
g3
(lp323
NaNaNaNaNaNaNaNaNaNaNaNaNaNaNaNaNaNaNaNaNaNaNaNaNasg5
V/en/compressible_flow;;Compressible flow
p324
ssS'http://ocw.mit.edu/courses/aeronautics-and-astronautics/16-886-air-transportation-systems-architecting-spring-2004/calendar/'
p325
(dp326
g3
(lp327
NaNaNaNaNaNaNaNaNaNaNaNaNaNaNaNaNaNaNaV/en/nasa;;NASA
p328
aNaNaNaV/en/risk_management;;Risk management
p329
aNaNaV/en/air_traffic_control;;Air traffic control
p330
aNaV/en/mac_os;;Mac OS
p331
aNaNaNaNaNaNaNasg5
NssS'http://ocw.mit.edu/courses/aeronautics-and-astronautics/16-851-satellite-engineering-fall-2003/calendar/'
p332
(dp333
g3
(lp334
V/en/thiokol;;Thiokol
p335
aV/en/astrodynamics;;Orbital mechanics
p336
aNaNaV/en/outer_space;;Outer space
p337
aNaNaNaNaV/en/electromagnetic_formation_flight;;Electromagnetic Formation Flight
p338
aNaNaNaNaNaNaNaNaNaV/en/telemetry;;Telemetry
p339
aV/en/communications_satellite;;Communications satellite
p340
aNaNaNasg5
NssS'http://ocw.mit.edu/courses/aeronautics-and-astronautics/16-901-computational-methods-in-aerospace-engineering-spring-2005/calendar/'
p341
(dp342
g3
(lp343
NaNaNaNaNaNaNaV/en/finite_difference_method;;Finite difference method
p344
aNaNaNaNaNaNaNaNaNaNaNaNaNaNaNaNaNaV/en/latin_hypercube_sampling;;Latin hypercube sampling
p345
aV/en/response_surface_methodology;;Response surface methodology
p346
aNaV/en/cnbc;;CNBC
p347
aNasg5
NssS'http://ocw.mit.edu/courses/aeronautics-and-astronautics/16-891j-space-policy-seminar-spring-2003/calendar/'
p348
(dp349
g3
(lp350
NaNaV/en/space_warfare;;Space warfare
p351
aV/en/space_warfare;;Space warfare
p352
aV/en/space_warfare;;Space warfare
p353
aV/en/space_warfare;;Space warfare
p354
aV/en/space_warfare;;Space warfare
p355
aNaNaNaNaNasg5
NssS'http://ocw.mit.edu/courses/aeronautics-and-astronautics/16-00-introduction-to-aerospace-engineering-and-design-spring-2003/calendar/'
p356
(dp357
g3
(lp358
NaNaNaNaNaNaNaNaNaNaNaNaNaNaNaNaNaNaNaNaNaNaNaNaNaNasg5
V/en/aerospace_engineering;;Aerospace Engineering
p359
ssS'http://ocw.mit.edu/courses/civil-and-environmental-engineering/1-203j-logistical-and-transportation-planning-methods-fall-2006/calendar/'
p360
(dp361
g3
(lp362
NaNaNaNaNaNaNaV/en/littles_law;;Little's law
p363
aNaNaNaNaNaV/en/congestion_pricing;;Congestion pricing
p364
aNaV/en/queueing_theory;;Queueing theory
p365
aNaNaNaV/en/edge_cover;;Edge cover
p366
aNaNaNaNaNaNaNasg5
NssS'http://ocw.mit.edu/courses/mechanical-engineering/2-158j-computational-geometry-spring-2003/calendar/'
p367
(dp368
g3
(lp369
NaNaNaNaNaNaNaNaNaNaNaNaNaNaNaNaNaNaNaNaNaNaNaNaNaNasg5
V/en/computational_geometry;;Computational geometry
p370
ssS'http://ocw.mit.edu/courses/aeronautics-and-astronautics/16-36-communication-systems-engineering-spring-2009/calendar/'
p371
(dp372
g3
(lp373
NaNaNaNaNaNaNaNaNaNaNaNaNaNaNaNaNaNaNaNaNaNaNaNaNaNasg5
V/en/telecommunications_engineer;;Telecommunications engineering
p374
ssS'http://ocw.mit.edu/courses/mechanical-engineering/2-00aj-exploring-sea-space-earth-fundamentals-of-engineering-design-spring-2009/calendar/'
p375
(dp376
g3
(lp377
NaNaNaNaNaNaNaNaNaNaNaNaNaNaNaNaNaNaNaNaNaNaNaNaNaNaNaNasg5
V/en/nasa;;NASA
p378
ssS'http://ocw.mit.edu/courses/aeronautics-and-astronautics/16-83x-space-systems-engineering-spring-2002-spring-2003/calendar/'
p379
(dp380
g3
(lp381
NaNaNaNaNaNaNaNaNaNaNaNaNaNaNaNaNaNaNaNaNaNaNaNaNaNaNaNaNaNaNaNaNaNaNaNaNaNasg5
V/en/nasa;;NASA
p382
ssS'http://ocw.mit.edu/courses/mathematics/18-338j-infinite-random-matrix-theory-fall-2004/calendar/'
p383
(dp384
g3
(lp385
NaNaNaNaNaNaNaV/en/cumulant;;Cumulant
p386
aNaNaNaNaNaNaV/en/orthogonal_polynomials;;Orthogonal polynomials
p387
aNaNaV/en/tracy_widom_distribution;;Tracy\u2013Widom distribution
p388
aNaNaV/en/free_probability;;Free probability
p389
aNaV/en/representation_theory_of_the_symmetric_group;;Representation theory of the symmetric group, /en/free_probability;;Free probability
p390
aNaV/en/graph_coloring;;Graph coloring
p391
aNaNasg5
NssS'http://ocw.mit.edu/courses/aeronautics-and-astronautics/16-410-principles-of-autonomy-and-decision-making-fall-2010/calendar/'
p392
(dp393
g3
(lp394
NaNaNaNaNaNaNaNaNaNaNaNaNaNaNaNaNaNaNaNaNaNaNaNaNaNasg5
V/en/decision_making;;Decision-making
p395
ss.