(lp0
(lp1
V/en/boundary_value_problem;;Boundary value problem
p2
aV/en/integrality;;Integral element
p3
aV/en/turbulence_modeling;;Turbulence modeling
p4
aV/en/high-definition_television;;High-definition television
p5
aV/en/well-posed_problem;;Well-posed problem
p6
aa(lp7
V/en/anti-aircraft_warfare;;Anti-aircraft warfare
p8
aV/en/financial_analysis;;Financial analysis
p9
aV/en/fluid_statics;;Fluid statics
p10
aV/en/life_support;;Life support, /en/environmentalism;;Environmentalism
p11
aV/en/flight_deck;;Flight deck
p12
aV/en/air_data_computer;;Air data computer
p13
aV/en/aircraft_flight_control_systems;;Aircraft flight control system
p14
aV/en/structural_system;;Structural system
p15
aV/en/risk_management;;Risk management, /en/management;;Management
p16
aa(lp17
V/en/fill_in;;Fill-In
p18
aV/en/standard_error;;Standard error
p19
aV/en/spectral_method;;Spectral method
p20
aV/en/multigrid_method;;Multigrid method
p21
aV/en/multipole_expansion;;Multipole expansion
p22
aa(lp23
V/en/integral_equation;;Integral equation
p24
aV/en/stress-strain_curve;;Stress\u2013strain curve, /en/navier-stokes_equations;;Navier\u2013Stokes equations, /en/boeing;;Boeing
p25
aV/en/airfoil;;Airfoil
p26
aV/en/lifting_line_theory;;Lifting-line theory
p27
aV/en/oblique_shock;;Oblique shock
p28
aV/en/navier-stokes_equations;;Navier\u2013Stokes equations
p29
aa(lp30
V/en/proportional_control;;Proportional control
p31
aV/en/singing;;Singing
p32
aV/en/phase_plane;;Phase plane
p33
aa(lp34
V/en/numerical_analysis;;Numerical analysis, /en/hippocampus;;Hippocampus
p35
aV/en/inventive_step_and_non-obviousness;;Inventive step and non-obviousness
p36
aV/en/crew_scheduling;;Crew scheduling, /en/hippocampus;;Hippocampus
p37
aV/en/wide_area_network;;Wide area network, /en/inventive_step_and_non-obviousness;;Inventive step and non-obviousness
p38
aV/en/anti-aircraft_warfare;;Anti-aircraft warfare
p39
aa(lp40
V/en/halloween_6;;Halloween 6
p41
aV/en/khmer_rouge_tribunal;;Cambodia Tribunal
p42
aV/en/convention_on_the_rights_of_the_child;;Convention on the Rights of the Child
p43
aV/en/trade_secret;;Trade secret
p44
aa(lp45
V/en/educational_aims_and_objectives;;Educational aims and objectives
p46
aV/en/diesel_engine;;Diesel engine
p47
aV/en/vortex;;Vortex
p48
aV/en/vorticity;;Vorticity, /en/compressible_flow;;Compressible flow, /en/conservative_party;;Conservative Party
p49
aV/en/compressible_flow;;Compressible flow, /en/conservative_party;;Conservative Party
p50
aV/en/lost_work;;Lost work
p51
aV/en/fluid_mechanics;;Fluid mechanics
p52
aa(lp53
V/en/conditional_probability;;Conditional probability
p54
aV/en/probability_density_function;;Probability density function
p55
aV/en/markov_chain;;Markov chain
p56
aa(lp57
V/en/defender;;Defender
p58
aV/en/microelectromechanical_systems;;Microelectromechanical systems
p59
aV/en/fuel_cell;;Fuel cell, /en/auxiliary_power_unit;;Auxiliary power unit, /en/hydraulics;;Hydraulics
p60
aV/en/space_shuttle_challenger_disaster;;Space Shuttle Challenger disaster
p61
aV/en/hvac;;HVAC
p62
aV/en/space_shuttle;;Space Shuttle program
p63
aV/en/electronic_amplifier;;Amplifier, /en/cnbc;;CNBC
p64
aa(lp65
V/en/discounted_cash_flow;;Discounted cash flow
p66
aV/en/weighted_average_cost_of_capital;;Weighted average cost of capital, /en/capital_asset_pricing_model;;Capital asset pricing model
p67
aV/en/production_function;;Production function
p68
aV/en/economies_of_scale;;Economies of scale
p69
aV/en/economies_of_scale;;Economies of scale
p70
aV/en/marginalism;;Marginalism
p71
aV/en/bayesian_inference;;Bayesian inference
p72
aV/en/value_of_information;;Value of information
p73
aV/en/dynamic_programming;;Dynamic programming
p74
aV/en/high-definition_television;;High-definition television, /en/hydroelectricity;;Hydroelectricity
p75
aa(lp76
V/en/fluid_statics;;Fluid statics
p77
aV/en/celestial_coordinate_system;;Celestial coordinate system, /en/euler_angles;;Euler angles
p78
aV/en/control_theory;;Control theory
p79
aV/en/inertial_measurement_unit;;Inertial measurement unit
p80
aV/en/system_identification;;System identification
p81
aV/en/statistical_model_validation;;Regression model validation
p82
aa(lp83
V/en/tom_hutton_1972;;Tom Hutton
p84
aV/en/chief_executive_officer;;Chief Executive Officer
p85
aV/en/mike_ryan;;Mike Ryan
p86
aV/en/paul_winter;;Paul Winter
p87
aV/en/jan_klein;;Jan Klein
p88
aV/en/peter_pace;;Peter Pace
p89
aV/en/john_boyd;;John Boyd
p90
aV/en/dick_hunter;;Dick Hunter
p91
aV/en/bret_smith;;Bret Smith
p92
aV/en/vic_firth;;Vic Firth
p93
aV/en/william_m_dalton;;William M. Dalton
p94
aV/en/john_m_deutch;;John M. Deutch
p95
aV/en/buzz_hargrove;;Buzz Hargrove
p96
aV/en/john_boyd;;John Boyd
p97
aV/en/jan_klein;;Jan Klein
p98
aV/en/greg_collins;;Greg Collins
p99
aV/en/dick_hunter;;Dick Hunter
p100
aV/en/john_boyd;;John Boyd
p101
aa(lp102
V/en/circulatory_system;;Circulatory system
p103
aV/en/artificial_gravity;;Artificial gravity
p104
aV/en/extra-vehicular_activity;;Extra-vehicular activity
p105
aa(lp106
V/en/lean_manufacturing;;Lean manufacturing, /en/lean_manufacturing;;Lean manufacturing
p107
aV/en/supply_chain_management;;Supply chain management, /en/supply_chain_management;;Supply chain management, /en/strategic_alliance;;Strategic alliance
p108
aV/en/jbpm;;JBPM
p109
aV/en/lean_manufacturing;;Lean manufacturing
p110
aV/en/people;;People, /en/organizational_culture;;Organizational culture
p111
aV/en/enterprise_information_system;;Enterprise information system
p112
aV/en/knowledge_management;;Knowledge management
p113
aV/en/transformational_leadership;;Transformational leadership
p114
aV/en/enterprise_engineering;;Enterprise engineering
p115
aV/en/enterprise_integration;;Enterprise integration, /en/risk_management;;Risk management, /en/global_warming;;Global warming
p116
aa(lp117
V/en/software_development_process;;Software development process
p118
aV/en/computer_software;;Software, /en/car_safety;;Automobile safety
p119
aa(lp120
V/en/task_analysis;;Task analysis
p121
aV/en/history;;History, /en/human_genome_project;;Human Genome Project
p122
aV/en/random_access_memory;;Random-access memory
p123
aV/en/presentation_of_a_group;;Presentation of a group
p124
aV/en/info-gap_decision_theory;;Info-gap decision theory, /en/bayes_theorem;;Bayes' theorem
p125
aV/en/detection_theory;;Detection theory, /en/information_theory;;Information theory
p126
aV/en/judgment_under_uncertainty_heuristics_and_biases;;Judgment Under Uncertainty: Heuristics and Biases
p127
aV/en/naturalistic_decision_making;;Naturalistic decision-making
p128
aV/en/situational_awareness;;Situation awareness
p129
aV/en/research;;Research, /en/design_of_experiments;;Design of experiments
p130
aV/en/air_traffic_control;;Air traffic control
p131
aV/en/nuclear_weapon;;Nuclear weapon
p132
aV/en/human_genome_project;;Human Genome Project
p133
aa(lp134
V/en/rocket_engine;;Rocket engine
p135
aV/en/watercooling;;Water cooling
p136
aV/en/thermal_radiation;;Thermal radiation
p137
aV/en/liquid_rocket_propellants;;Liquid rocket propellants
p138
aV/en/the_o2;;The O2
p139
aa(lp140
V/en/littles_law;;Little's law
p141
aV/en/congestion_pricing;;Congestion pricing
p142
aV/en/queueing_theory;;Queueing theory
p143
aV/en/edge_cover;;Edge cover
p144
aa(lp145
V/en/sensitivity_analysis;;Sensitivity analysis
p146
aV/en/simulated_annealing;;Simulated annealing
p147
aV/en/multiobjective_optimization;;Multi-objective optimization
p148
aa(lp149
V/en/degrees_of_freedom;;Degrees of freedom, /en/linear_motion;;Linear motion
p150
aV/en/coordinate_system;;Coordinate system
p151
aV/en/impulse;;Impulse
p152
aV/en/momentum;;Momentum
p153
aV/en/energy;;Energy
p154
aV/en/potential_energy;;Potential energy
p155
aV/en/orbital_maneuver;;Orbital maneuver
p156
aV/en/normal_mode;;Normal mode, /en/fundamental_frequency;;Fundamental frequency
p157
aV/en/energy;;Energy
p158
aV/en/equation_of_motion;;Equations of motion
p159
aV/en/eulers_equations;;Euler's equations
p160
aV/en/inertial_guidance_system;;Inertial navigation system
p161
aa(lp162
V/en/nasa;;NASA
p163
aV/en/risk_management;;Risk management
p164
aV/en/air_traffic_control;;Air traffic control
p165
aV/en/mac_os;;Mac OS
p166
aa(lp167
V/en/thiokol;;Thiokol
p168
aV/en/astrodynamics;;Orbital mechanics
p169
aV/en/outer_space;;Outer space
p170
aV/en/electromagnetic_formation_flight;;Electromagnetic Formation Flight
p171
aV/en/telemetry;;Telemetry
p172
aV/en/communications_satellite;;Communications satellite
p173
aa(lp174
V/en/finite_difference_method;;Finite difference method
p175
aV/en/latin_hypercube_sampling;;Latin hypercube sampling
p176
aV/en/response_surface_methodology;;Response surface methodology
p177
aV/en/cnbc;;CNBC
p178
aa(lp179
V/en/space_warfare;;Space warfare
p180
aV/en/space_warfare;;Space warfare
p181
aV/en/space_warfare;;Space warfare
p182
aV/en/space_warfare;;Space warfare
p183
aV/en/space_warfare;;Space warfare
p184
aa(lp185
V/en/littles_law;;Little's law
p186
aV/en/congestion_pricing;;Congestion pricing
p187
aV/en/queueing_theory;;Queueing theory
p188
aV/en/edge_cover;;Edge cover
p189
aa(lp190
V/en/cumulant;;Cumulant
p191
aV/en/orthogonal_polynomials;;Orthogonal polynomials
p192
aV/en/tracy_widom_distribution;;Tracy\u2013Widom distribution
p193
aV/en/free_probability;;Free probability
p194
aV/en/representation_theory_of_the_symmetric_group;;Representation theory of the symmetric group, /en/free_probability;;Free probability
p195
aV/en/graph_coloring;;Graph coloring
p196
aa.