(dp0
S'http://ocw.mit.edu/courses/aeronautics-and-astronautics/16-050-thermal-energy-fall-2002/calendar/'
p1
(dp2
S'course'
p3
(lp4
NaNaNaNaNaNaNaNaNaNaNaNaNaNasS'title'
p5
V/en/thermal_energy;;Thermal energy
p6
ssS'http://ocw.mit.edu/courses/aeronautics-and-astronautics/16-13-aerodynamics-of-viscous-fluids-fall-2003/calendar/'
p7
(dp8
g3
(lp9
NaNaNaNaNaNaNaNaNaNaNaNaNaNaNaNaNaNaNaNaNaV/en/boundary_value_problem;;Boundary value problem
p10
aNaNaNaNaV/en/integrality;;Integral element
p11
aNaV/en/turbulence_modeling;;Turbulence modeling
p12
aV/en/high-definition_television;;High-definition television
p13
aNaNaNaV/en/well-posed_problem;;Well-posed problem
p14
aNaNaNasg5
NssS'http://ocw.mit.edu/courses/aeronautics-and-astronautics/16-885j-aircraft-systems-engineering-fall-2004/calendar/'
p15
(dp16
g3
(lp17
V/en/anti-aircraft_warfare;;Anti-aircraft warfare
p18
aNaNaV/en/financial_analysis;;Financial analysis
p19
aV/en/fluid_statics;;Fluid statics
p20
aNaNaNaNaNaNaNaV/en/life_support;;Life support, /en/environmentalism;;Environmentalism
p21
aV/en/flight_deck;;Flight deck
p22
aV/en/air_data_computer;;Air data computer
p23
aV/en/aircraft_flight_control_systems;;Aircraft flight control system
p24
aNaV/en/structural_system;;Structural system
p25
aNaNaNaNaV/en/risk_management;;Risk management, /en/management;;Management
p26
aNaNasg5
NssS'http://ocw.mit.edu/courses/aeronautics-and-astronautics/16-881-robust-system-design-summer-1998/calendar/'
p27
(dp28
g3
(lp29
NaNaNaNaNaNaNaNaNaNaNaNaNaNaNaNaNaNaNaNaNaNasg5
NssS'http://ocw.mit.edu/courses/electrical-engineering-and-computer-science/6-336j-introduction-to-numerical-simulation-sma-5211-fall-2003/calendar/'
p30
(dp31
g3
(lp32
NaNaNaV/en/fill_in;;Fill-In
p33
aNaNaNaNaNaNaNaNaNaNaNaNaNaNaV/en/standard_error;;Standard error
p34
aV/en/spectral_method;;Spectral method
p35
aV/en/multigrid_method;;Multigrid method
p36
aNaV/en/multipole_expansion;;Multipole expansion
p37
aNaNaNasg5
NssS'http://ocw.mit.edu/courses/aeronautics-and-astronautics/16-100-aerodynamics-fall-2005/calendar/'
p38
(dp39
g3
(lp40
V/en/integral_equation;;Integral equation
p41
aV/en/stress-strain_curve;;Stress\u2013strain curve, /en/navier-stokes_equations;;Navier\u2013Stokes equations, /en/boeing;;Boeing
p42
aNaNaV/en/airfoil;;Airfoil
p43
aV/en/lifting_line_theory;;Lifting-line theory
p44
aNaV/en/oblique_shock;;Oblique shock
p45
aV/en/navier-stokes_equations;;Navier\u2013Stokes equations
p46
aNaNaNaNaNaNaNasg5
NssS'http://ocw.mit.edu/courses/health-sciences-and-technology/hst-582j-biomedical-signal-and-image-processing-spring-2007/calendar/'
p47
(dp48
g3
(lp49
NaNaNaNaNaNaNaNaNaNaNaNaNaNaNaNaNaNaNaNaNaNaNaNaNaNaNaNaNaNaNaNaNaNaNaNaNaNaNasg5
V/en/biomedical_engineering;;Biomedical engineering, /en/image_processing;;Image processing
p50
ssS'http://ocw.mit.edu/courses/aeronautics-and-astronautics/16-75j-airline-management-spring-2006/calendar/'
p51
(dp52
g3
(lp53
NaNaNaNaNaNaNaNaNaNaNaNaNaNaNaNaNaNaNaNaNaNaNaNaNaNasg5
V/en/tui_travel_plc;;TUI Travel
p54
ssS'http://ocw.mit.edu/courses/aeronautics-and-astronautics/16-920j-numerical-methods-for-partial-differential-equations-sma-5212-spring-2003/calendar/'
p55
(dp56
g3
(lp57
NaNaNaNaNaNaNaNaNaNaNaNaNaNaNaNaNaNaNaNaNaNaNaNaNaNasg5
NssS'http://ocw.mit.edu/courses/aeronautics-and-astronautics/16-682-prototyping-avionics-spring-2006/calendar/'
p58
(dp59
g3
(lp60
NaV/en/hydroelectricity;;Hydroelectricity
p61
aNaNaNaNaNaNaNaNaNaNaNaNasg5
NssS'http://ocw.mit.edu/courses/aeronautics-and-astronautics/16-810-engineering-design-and-rapid-prototyping-january-iap-2005/calendar/'
p62
(dp63
g3
(lp64
NaNaNaNaNaNaNaNaNasg5
V/en/engineering;;Engineering, /en/rapid_prototyping;;Rapid prototyping
p65
ssS'http://ocw.mit.edu/courses/aeronautics-and-astronautics/16-30-estimation-and-control-of-aerospace-systems-spring-2004/calendar/'
p66
(dp67
g3
(lp68
NaNaNaNaNaNaNaNaNaV/en/proportional_control;;Proportional control
p69
aNaV/en/singing;;Singing
p70
aNaNaNaNaNaNaNaNaNaNaNaNaNaNaNaNaNaNaNaNaNaNaNaNaNaV/en/phase_plane;;Phase plane
p71
aNaNasg5
NssS'http://ocw.mit.edu/courses/aeronautics-and-astronautics/16-412j-cognitive-robotics-spring-2005/calendar/'
p72
(dp73
g3
(lp74
NaNaNaNaNaNaNaNaNaNaNaNaNaNaNaNaNaNaNaNaNaNaNaNaNaNasg5
V/en/cognitive_robotics;;Cognitive robotics
p75
ssS'http://ocw.mit.edu/courses/aeronautics-and-astronautics/16-812-the-aerospace-industry-spring-2004/calendar/'
p76
(dp77
g3
(lp78
NaNaNaNaNaNaNaNaNaNaNaNasg5
V/en/aerospace;;Aerospace
p79
ssS'http://ocw.mit.edu/courses/mechanical-engineering/2-00aj-exploring-sea-space-earth-fundamentals-of-engineering-design-spring-2009/study-materials/'
p80
(dp81
g3
(lp82
NaNaNaNaNaNaNaNaNaNaNaNaNaNaNaNaNaNaNaNaNaNaNaNaNaNaNaNasg5
V/en/nasa;;NASA
p83
ssS'http://ocw.mit.edu/courses/civil-and-environmental-engineering/1-206j-airline-schedule-planning-spring-2003/calendar/'
p84
(dp85
g3
(lp86
NaNaV/en/numerical_analysis;;Numerical analysis, /en/hippocampus;;Hippocampus
p87
aV/en/inventive_step_and_non-obviousness;;Inventive step and non-obviousness
p88
aNaV/en/crew_scheduling;;Crew scheduling, /en/hippocampus;;Hippocampus
p89
aNaV/en/wide_area_network;;Wide area network, /en/inventive_step_and_non-obviousness;;Inventive step and non-obviousness
p90
aV/en/anti-aircraft_warfare;;Anti-aircraft warfare
p91
aNaNasg5
NssS'http://ocw.mit.edu/courses/electrical-engineering-and-computer-science/6-901-inventions-and-patents-fall-2005/calendar/'
p92
(dp93
g3
(lp94
V/en/halloween_6;;Halloween 6
p95
aV/en/khmer_rouge_tribunal;;Cambodia Tribunal
p96
aNaV/en/convention_on_the_rights_of_the_child;;Convention on the Rights of the Child
p97
aV/en/trade_secret;;Trade secret
p98
aNaNaNaNasg5
NssS'http://ocw.mit.edu/courses/aeronautics-and-astronautics/16-540-internal-flows-in-turbomachines-spring-2006/calendar/'
p99
(dp100
g3
(lp101
V/en/educational_aims_and_objectives;;Educational aims and objectives
p102
aV/en/diesel_engine;;Diesel engine
p103
aV/en/vortex;;Vortex
p104
aV/en/vorticity;;Vorticity, /en/compressible_flow;;Compressible flow, /en/conservative_party;;Conservative Party
p105
aV/en/compressible_flow;;Compressible flow, /en/conservative_party;;Conservative Party
p106
aNaNaV/en/lost_work;;Lost work
p107
aNaNaNaNaNaNaNaNaNaNaV/en/fluid_mechanics;;Fluid mechanics
p108
aNaNasg5
NssS'http://ocw.mit.edu/courses/aeronautics-and-astronautics/16-322-stochastic-estimation-and-control-fall-2004/calendar/'
p109
(dp110
g3
(lp111
V/en/conditional_probability;;Conditional probability
p112
aV/en/probability_density_function;;Probability density function
p113
aNaNaNaNaNaNaNaNaNaNaNaNaNaNaNaNaNaNaNaNaV/en/markov_chain;;Markov chain
p114
aNaNaNaNaNaNasg5
NssS'http://ocw.mit.edu/courses/mathematics/18-996-random-matrix-theory-and-its-applications-spring-2004/calendar/'
p115
(dp116
g3
(lp117
NaNaNaNaNaNaNaNaNaNaNaNaNaNaNaNaNaNaNaNaNaNaNaNaNaNaNaNasg5
V/en/endoscopy;;Endoscopy
p118
ssS'http://ocw.mit.edu/courses/aeronautics-and-astronautics/16-20-structural-mechanics-fall-2002/calendar/'
p119
(dp120
g3
(lp121
NaNaNaNaNaNaNaNaNaNaNaNaNaNaNaNaNaNaNaNaNaNaNaNaNasg5
V/en/structural_mechanics;;Structural mechanics
p122
ssS'http://ocw.mit.edu/courses/aeronautics-and-astronautics/16-522-space-propulsion-spring-2004/calendar/'
p123
(dp124
g3
(lp125
NaNaNaNaNaNaNaNaNaNaNaNaNaNaNaNaNaNaNaNaNaNasg5
V/en/spacecraft_propulsion;;Spacecraft propulsion
p126
ssS'http://ocw.mit.edu/courses/aeronautics-and-astronautics/16-61-aerospace-dynamics-spring-2003/calendar/'
p127
(dp128
g3
(lp129
NaNaNaNaNaNaNaNaNaNaNaNaNaNaNaNaNaNaNaNaNaNaNaNaNasg5
V/en/british_aerospace;;British Aerospace
p130
ssS'http://ocw.mit.edu/courses/aeronautics-and-astronautics/16-622-experimental-projects-ii-fall-2003/calendar/'
p131
(dp132
g3
(lp133
NaNaNaNaNaNaNaNaNaNaNaNaNaNaV/en/electronic_amplifier;;Amplifier
p134
asg5
NssS'http://ocw.mit.edu/courses/aeronautics-and-astronautics/16-30-feedback-control-systems-fall-2010/calendar/'
p135
(dp136
g3
(lp137
NaNaNaNaNaNaNaNaNaNaNaNaNaNaNaNaNaNaNaNaNaNaNaNaNaNasg5
V/en/control_engineering;;Control engineering
p138
ssS'http://ocw.mit.edu/courses/aeronautics-and-astronautics/16-01-unified-engineering-i-ii-iii-iv-fall-2005-spring-2006/calendar/'
p139
(dp140
g3
(lp141
NaNaNaNaNaNaNaNaNaNaNaNaNaNaNaNaNaNaNaNaNaNaNaNaNaNaNaNaNaNaNaNaNaNaNaNaNaNaNaNaNaNaNaNaNaNaNaNaNaNaNaNaNaNaNaNaNaNaNaNaNaNaNaNaNaNaNaNaNaNaNaNaNaNaNaNaNaNaNaNaNaNaNaNaNaNaNaNaNaNaNaNaNaNaNaNaNaNaNaNaNaNaNaNaNaNaNaNaNaNaNaNaNaNaNaNaNaNaNaNaNaNaNaNaNaNaNaNaNaNaNaNaNaNasg5
V/en/listed_building;;Listed building, /en/daicon_iii_and_iv_opening_animations;;Daicon III and IV Opening Animations
p142
ssS'http://ocw.mit.edu/courses/aeronautics-and-astronautics/16-885j-aircraft-systems-engineering-fall-2005/calendar/'
p143
(dp144
g3
(lp145
NaNaNaNaNaNaV/en/defender;;Defender
p146
aV/en/microelectromechanical_systems;;Microelectromechanical systems
p147
aV/en/fuel_cell;;Fuel cell, /en/auxiliary_power_unit;;Auxiliary power unit, /en/hydraulics;;Hydraulics
p148
aV/en/space_shuttle_challenger_disaster;;Space Shuttle Challenger disaster
p149
aNaNaV/en/hvac;;HVAC
p150
aNaV/en/space_shuttle;;Space Shuttle program
p151
aNaNaNaNaNaNaNaV/en/electronic_amplifier;;Amplifier, /en/cnbc;;CNBC
p152
asg5
NssS'http://ocw.mit.edu/courses/aeronautics-and-astronautics/16-863j-system-safety-spring-2011/calendar/'
p153
(dp154
g3
(lp155
NaNaNaNaNaNaNaNaNaNaNaNaNasg5
V/en/car_safety;;Automobile safety
p156
ssS'http://ocw.mit.edu/courses/aeronautics-and-astronautics/16-a47-the-engineer-of-2020-fall-2009/calendar/'
p157
(dp158
g3
(lp159
NaNaNaNaNaNaNaNaNaNaNaNasg5
NssS'http://ocw.mit.edu/courses/engineering-systems-division/esd-71-engineering-systems-analysis-for-design-fall-2008/calendar/'
p160
(dp161
g3
(lp162
NaV/en/discounted_cash_flow;;Discounted cash flow
p163
aNaNaV/en/weighted_average_cost_of_capital;;Weighted average cost of capital, /en/capital_asset_pricing_model;;Capital asset pricing model
p164
aV/en/production_function;;Production function
p165
aV/en/economies_of_scale;;Economies of scale
p166
aNaV/en/economies_of_scale;;Economies of scale
p167
aV/en/marginalism;;Marginalism
p168
aNaV/en/bayesian_inference;;Bayesian inference
p169
aNaNaNaNaNaV/en/value_of_information;;Value of information
p170
aNaNaNaNaNaNaNaNaV/en/dynamic_programming;;Dynamic programming
p171
aNaNaNaNaNaV/en/high-definition_television;;High-definition television, /en/hydroelectricity;;Hydroelectricity
p172
aNaNaNasg5
NssS'http://ocw.mit.edu/courses/aeronautics-and-astronautics/16-333-aircraft-stability-and-control-fall-2004/calendar/'
p173
(dp174
g3
(lp175
NaV/en/fluid_statics;;Fluid statics
p176
aV/en/celestial_coordinate_system;;Celestial coordinate system, /en/euler_angles;;Euler angles
p177
aNaNaNaNaNaNaV/en/control_theory;;Control theory
p178
aNaNaNaNaV/en/inertial_measurement_unit;;Inertial measurement unit
p179
aV/en/system_identification;;System identification
p180
aV/en/statistical_model_validation;;Regression model validation
p181
asg5
NssS'http://ocw.mit.edu/courses/aeronautics-and-astronautics/16-225-computational-mechanics-of-materials-fall-2003/calendar/'
p182
(dp183
g3
(lp184
NaNaNaNaNaNaNaNaNaNaNaNaNaNaNaNaNaNaNaNaNaNaNaNaNaNasg5
V/en/computational_mechanics;;Computational mechanics
p185
ssS'http://ocw.mit.edu/courses/sloan-school-of-management/15-792j-proseminar-in-manufacturing-fall-2005/calendar/'
p186
(dp187
g3
(lp188
NaNaNaNaV/en/tom_hutton_1972;;Tom Hutton
p189
aNaV/en/chief_executive_officer;;Chief Executive Officer
p190
aV/en/mike_ryan;;Mike Ryan
p191
aNaNaNaV/en/paul_winter;;Paul Winter
p192
aV/en/jan_klein;;Jan Klein
p193
aNaNaV/en/peter_pace;;Peter Pace
p194
aNaNaNaNaNaNaNaV/en/john_boyd;;John Boyd
p195
aV/en/dick_hunter;;Dick Hunter
p196
aNaV/en/bret_smith;;Bret Smith
p197
aNaV/en/vic_firth;;Vic Firth
p198
aNaNaNaNaNaNaNaNaNaV/en/william_m_dalton;;William M. Dalton
p199
aNaNaNaNaNaV/en/john_m_deutch;;John M. Deutch
p200
aV/en/buzz_hargrove;;Buzz Hargrove
p201
aV/en/john_boyd;;John Boyd
p202
aNaNaNaV/en/jan_klein;;Jan Klein
p203
aNaNaNaV/en/greg_collins;;Greg Collins
p204
aNaNaNaV/en/dick_hunter;;Dick Hunter
p205
aNaNaNaNaNaV/en/john_boyd;;John Boyd
p206
aNaNaNaNaNaNaNasg5
NssS'http://ocw.mit.edu/courses/aeronautics-and-astronautics/16-423j-aerospace-biomedical-and-life-support-engineering-spring-2006/calendar/'
p207
(dp208
g3
(lp209
NaNaNaNaNaNaNaNaNaV/en/circulatory_system;;Circulatory system
p210
aNaNaV/en/artificial_gravity;;Artificial gravity
p211
aV/en/extra-vehicular_activity;;Extra-vehicular activity
p212
aNaNaNasg5
NssS'http://ocw.mit.edu/courses/aeronautics-and-astronautics/16-810-engineering-design-and-rapid-prototyping-january-iap-2007/calendar/'
p213
(dp214
g3
(lp215
NaNaNaNaNaNaNaNasg5
V/en/engineering;;Engineering, /en/rapid_prototyping;;Rapid prototyping
p216
ssS'http://ocw.mit.edu/courses/aeronautics-and-astronautics/16-892j-space-system-architecture-and-design-fall-2004/calendar/'
p217
(dp218
g3
(lp219
V/en/spacecraft;;Spacecraft
p220
aNaNaNaNaNaNaNaNaNaNaNasg5
NssS'http://ocw.mit.edu/courses/aeronautics-and-astronautics/16-852j-integrating-the-lean-enterprise-fall-2005/calendar/'
p221
(dp222
g3
(lp223
NaNaNaNaV/en/lean_manufacturing;;Lean manufacturing, /en/lean_manufacturing;;Lean manufacturing
p224
aNaV/en/supply_chain_management;;Supply chain management, /en/supply_chain_management;;Supply chain management, /en/strategic_alliance;;Strategic alliance
p225
aV/en/jbpm;;JBPM
p226
aV/en/lean_manufacturing;;Lean manufacturing
p227
aNaV/en/people;;People, /en/organizational_culture;;Organizational culture
p228
aNaNaV/en/enterprise_information_system;;Enterprise information system
p229
aV/en/knowledge_management;;Knowledge management
p230
aV/en/transformational_leadership;;Transformational leadership
p231
aV/en/enterprise_engineering;;Enterprise engineering
p232
aNaV/en/enterprise_integration;;Enterprise integration, /en/risk_management;;Risk management, /en/global_warming;;Global warming
p233
aNaNaNaNasg5
NssS'http://ocw.mit.edu/courses/aeronautics-and-astronautics/16-72-air-traffic-control-fall-2006/calendar/'
p234
(dp235
g3
(lp236
NaNaNaNaNaNaNaNaNaNaNaNaNaV/en/area_control_center;;Area Control Center
p237
aNaNaNaNaNaNaNaNaNaNaNaNasg5
V/en/air_traffic_control;;Air traffic control
p238
ssS'http://ocw.mit.edu/courses/electrical-engineering-and-computer-science/6-241j-dynamic-systems-and-control-spring-2011/calendar/'
p239
(dp240
g3
(lp241
NaNaNaNaNaNaNaNaNaNaNaNaNaNaNaNaNaNaNaNaNaNaNaNasg5
V/en/dynamical_system;;Dynamical system
p242
ssS'http://ocw.mit.edu/courses/aeronautics-and-astronautics/16-355j-software-engineering-concepts-fall-2005/calendar/'
p243
(dp244
g3
(lp245
NaV/en/software_development_process;;Software development process
p246
aNaNaNaNaNaNaNaNaV/en/computer_software;;Software, /en/car_safety;;Automobile safety
p247
aNasg5
NssS'http://ocw.mit.edu/courses/aeronautics-and-astronautics/16-422-human-supervisory-control-of-automated-systems-spring-2004/calendar/'
p248
(dp249
g3
(lp250
NaNaV/en/task_analysis;;Task analysis
p251
aV/en/history;;History, /en/human_genome_project;;Human Genome Project
p252
aV/en/random_access_memory;;Random-access memory
p253
aV/en/presentation_of_a_group;;Presentation of a group
p254
aNaV/en/info-gap_decision_theory;;Info-gap decision theory, /en/bayes_theorem;;Bayes' theorem
p255
aV/en/detection_theory;;Detection theory, /en/information_theory;;Information theory
p256
aV/en/judgment_under_uncertainty_heuristics_and_biases;;Judgment Under Uncertainty: Heuristics and Biases
p257
aV/en/naturalistic_decision_making;;Naturalistic decision-making
p258
aV/en/situational_awareness;;Situation awareness
p259
aNaNaNaV/en/research;;Research, /en/design_of_experiments;;Design of experiments
p260
aNaV/en/air_traffic_control;;Air traffic control
p261
aNaNaNaNaV/en/nuclear_weapon;;Nuclear weapon
p262
aV/en/human_genome_project;;Human Genome Project
p263
aNaNasg5
NssS'http://ocw.mit.edu/courses/aeronautics-and-astronautics/16-512-rocket-propulsion-fall-2005/calendar/'
p264
(dp265
g3
(lp266
NaV/en/rocket_engine;;Rocket engine
p267
aNaNaNaNaNaV/en/watercooling;;Water cooling
p268
aNaV/en/thermal_radiation;;Thermal radiation
p269
aNaNaNaNaNaNaV/en/liquid_rocket_propellants;;Liquid rocket propellants
p270
aNaNaNaNaNaNaNaNaNaNaNaNaNaNaNaNaV/en/the_o2;;The O2
p271
asg5
NssS'http://ocw.mit.edu/courses/aeronautics-and-astronautics/16-400-human-factors-engineering-fall-2011/calendar/'
p272
(dp273
g3
(lp274
NaNaNaNaNaNaNaNaNaNaNaNaNaNaNaNaNaNaNaNaNaNasg5
V/en/ergonomics;;Human factors and ergonomics
p275
ssS'http://ocw.mit.edu/courses/aeronautics-and-astronautics/16-621-experimental-projects-i-spring-2003/calendar/'
p276
(dp277
g3
(lp278
NaNaNaNaNaNaNaNaNaNaNaNaNaNasg5
NssS'http://ocw.mit.edu/courses/electrical-engineering-and-computer-science/6-243j-dynamics-of-nonlinear-systems-fall-2003/calendar/'
p279
(dp280
g3
(lp281
NaNaNaNaNaNaNaNaNaNaNaNaNasg5
V/en/nonlinearity;;Nonlinear system
p282
ssS'http://ocw.mit.edu/courses/aeronautics-and-astronautics/16-842-fundamentals-of-systems-engineering-fall-2009/calendar/'
p283
(dp284
g3
(lp285
NaNaNaNaNaNaNaNaNaNaNaNaNasg5
V/en/systems_engineering;;Systems engineering
p286
ssS'http://ocw.mit.edu/courses/civil-and-environmental-engineering/1-203j-logistical-and-transportation-planning-methods-fall-2004/calendar/'
p287
(dp288
g3
(lp289
NaNaNaNaNaNaNaNaV/en/littles_law;;Little's law
p290
aNaNaNaNaV/en/congestion_pricing;;Congestion pricing
p291
aV/en/queueing_theory;;Queueing theory
p292
aNaNaNaNaV/en/edge_cover;;Edge cover
p293
aNaNaNaNaNaNasg5
NssS'http://ocw.mit.edu/courses/electrical-engineering-and-computer-science/6-263j-data-communication-networks-fall-2002/calendar/'
p294
(dp295
g3
(lp296
NaNaNaNaNaNaNaNaNaNaNaNaNaNaNaNaNaNaNaNaNaNaNaNaNaNasg5
V/en/computer_network;;Computer network
p297
ssS'http://ocw.mit.edu/courses/engineering-systems-division/esd-77-multidisciplinary-system-design-optimization-spring-2010/calendar/'
p298
(dp299
g3
(lp300
NaNaNaNaNaNaNaNaV/en/sensitivity_analysis;;Sensitivity analysis
p301
aV/en/simulated_annealing;;Simulated annealing
p302
aNaNaNaNaV/en/multiobjective_optimization;;Multi-objective optimization
p303
aNaNaNaNaNaNaNaNaNaNaNasg5
NssS'http://ocw.mit.edu/courses/aeronautics-and-astronautics/16-07-dynamics-fall-2009/calendar/'
p304
(dp305
g3
(lp306
NaNaV/en/degrees_of_freedom;;Degrees of freedom, /en/linear_motion;;Linear motion
p307
aV/en/coordinate_system;;Coordinate system
p308
aNaNaNaNaNaNaNaV/en/impulse;;Impulse
p309
aV/en/momentum;;Momentum
p310
aNaNaV/en/energy;;Energy
p311
aV/en/potential_energy;;Potential energy
p312
aNaNaNaNaNaV/en/orbital_maneuver;;Orbital maneuver
p313
aNaV/en/normal_mode;;Normal mode, /en/fundamental_frequency;;Fundamental frequency
p314
aNaNaNaV/en/energy;;Energy
p315
aNaNaNaNaNaNaNaV/en/equation_of_motion;;Equations of motion
p316
aV/en/eulers_equations;;Euler's equations
p317
aNaNaNaNaV/en/inertial_guidance_system;;Inertial navigation system
p318
asg5
NssS'http://ocw.mit.edu/courses/aeronautics-and-astronautics/16-120-compressible-flow-spring-2003/calendar/'
p319
(dp320
g3
(lp321
NaNaNaNaNaNaNaNaNaNaNaNaNaNaNaNaNaNaNaNaNaNaNaNaNasg5
V/en/compressible_flow;;Compressible flow
p322
ssS'http://ocw.mit.edu/courses/aeronautics-and-astronautics/16-886-air-transportation-systems-architecting-spring-2004/calendar/'
p323
(dp324
g3
(lp325
NaNaNaNaNaNaNaNaNaNaNaNaNaNaNaNaNaNaNaV/en/nasa;;NASA
p326
aNaNaNaV/en/risk_management;;Risk management
p327
aNaNaV/en/air_traffic_control;;Air traffic control
p328
aNaV/en/mac_os;;Mac OS
p329
aNaNaNaNaNaNaNasg5
NssS'http://ocw.mit.edu/courses/aeronautics-and-astronautics/16-851-satellite-engineering-fall-2003/calendar/'
p330
(dp331
g3
(lp332
V/en/thiokol;;Thiokol
p333
aV/en/astrodynamics;;Orbital mechanics
p334
aNaNaV/en/outer_space;;Outer space
p335
aNaNaNaNaV/en/electromagnetic_formation_flight;;Electromagnetic Formation Flight
p336
aNaNaNaNaNaNaNaNaNaV/en/telemetry;;Telemetry
p337
aV/en/communications_satellite;;Communications satellite
p338
aNaNaNasg5
NssS'http://ocw.mit.edu/courses/aeronautics-and-astronautics/16-901-computational-methods-in-aerospace-engineering-spring-2005/calendar/'
p339
(dp340
g3
(lp341
NaNaNaNaNaNaNaV/en/finite_difference_method;;Finite difference method
p342
aNaNaNaNaNaNaNaNaNaNaNaNaNaNaNaNaNaV/en/latin_hypercube_sampling;;Latin hypercube sampling
p343
aV/en/response_surface_methodology;;Response surface methodology
p344
aNaV/en/cnbc;;CNBC
p345
aNasg5
NssS'http://ocw.mit.edu/courses/aeronautics-and-astronautics/16-891j-space-policy-seminar-spring-2003/calendar/'
p346
(dp347
g3
(lp348
NaNaV/en/space_warfare;;Space warfare
p349
aV/en/space_warfare;;Space warfare
p350
aV/en/space_warfare;;Space warfare
p351
aV/en/space_warfare;;Space warfare
p352
aV/en/space_warfare;;Space warfare
p353
aNaNaNaNaNasg5
NssS'http://ocw.mit.edu/courses/aeronautics-and-astronautics/16-00-introduction-to-aerospace-engineering-and-design-spring-2003/calendar/'
p354
(dp355
g3
(lp356
NaNaNaNaNaNaNaNaNaNaNaNaNaNaNaNaNaNaNaNaNaNaNaNaNaNasg5
V/en/aerospace_engineering;;Aerospace Engineering
p357
ssS'http://ocw.mit.edu/courses/civil-and-environmental-engineering/1-203j-logistical-and-transportation-planning-methods-fall-2006/calendar/'
p358
(dp359
g3
(lp360
NaNaNaNaNaNaNaV/en/littles_law;;Little's law
p361
aNaNaNaNaNaV/en/congestion_pricing;;Congestion pricing
p362
aNaV/en/queueing_theory;;Queueing theory
p363
aNaNaNaV/en/edge_cover;;Edge cover
p364
aNaNaNaNaNaNaNasg5
NssS'http://ocw.mit.edu/courses/mechanical-engineering/2-158j-computational-geometry-spring-2003/calendar/'
p365
(dp366
g3
(lp367
NaNaNaNaNaNaNaNaNaNaNaNaNaNaNaNaNaNaNaNaNaNaNaNaNaNasg5
V/en/computational_geometry;;Computational geometry
p368
ssS'http://ocw.mit.edu/courses/aeronautics-and-astronautics/16-36-communication-systems-engineering-spring-2009/calendar/'
p369
(dp370
g3
(lp371
NaNaNaNaNaNaNaNaNaNaNaNaNaNaNaNaNaNaNaNaNaNaNaNaNaNasg5
V/en/telecommunications_engineer;;Telecommunications engineering
p372
ssS'http://ocw.mit.edu/courses/mechanical-engineering/2-00aj-exploring-sea-space-earth-fundamentals-of-engineering-design-spring-2009/calendar/'
p373
(dp374
g3
(lp375
NaNaNaNaNaNaNaNaNaNaNaNaNaNaNaNaNaNaNaNaNaNaNaNaNaNaNaNasg5
V/en/nasa;;NASA
p376
ssS'http://ocw.mit.edu/courses/aeronautics-and-astronautics/16-83x-space-systems-engineering-spring-2002-spring-2003/calendar/'
p377
(dp378
g3
(lp379
NaNaNaNaNaNaNaNaNaNaNaNaNaNaNaNaNaNaNaNaNaNaNaNaNaNaNaNaNaNaNaNaNaNaNaNaNaNasg5
V/en/nasa;;NASA
p380
ssS'http://ocw.mit.edu/courses/mathematics/18-338j-infinite-random-matrix-theory-fall-2004/calendar/'
p381
(dp382
g3
(lp383
NaNaNaNaNaNaNaV/en/cumulant;;Cumulant
p384
aNaNaNaNaNaNaV/en/orthogonal_polynomials;;Orthogonal polynomials
p385
aNaNaV/en/tracy_widom_distribution;;Tracy\u2013Widom distribution
p386
aNaNaV/en/free_probability;;Free probability
p387
aNaV/en/representation_theory_of_the_symmetric_group;;Representation theory of the symmetric group, /en/free_probability;;Free probability
p388
aNaV/en/graph_coloring;;Graph coloring
p389
aNaNasg5
NssS'http://ocw.mit.edu/courses/aeronautics-and-astronautics/16-410-principles-of-autonomy-and-decision-making-fall-2010/calendar/'
p390
(dp391
g3
(lp392
NaNaNaNaNaNaNaNaNaNaNaNaNaNaNaNaNaNaNaNaNaNaNaNaNaNasg5
V/en/decision_making;;Decision-making
p393
ss.